
mysimu:     format de fichier elf32-littlearm


Déassemblage de la section .interp :

00010154 <.interp>:
   10154:	62696c2f 	rsbvs	r6, r9, #12032	; 0x2f00
   10158:	2d646c2f 	stclcs	12, cr6, [r4, #-188]!	; 0xffffff44
   1015c:	756e696c 	strbvc	r6, [lr, #-2412]!	; 0xfffff694
   10160:	72612d78 	rsbvc	r2, r1, #120, 26	; 0x1e00
   10164:	2e66686d 	cdpcs	8, 6, cr6, cr6, cr13, {3}
   10168:	332e6f73 			; <UNDEFINED> instruction: 0x332e6f73
	...

Déassemblage de la section .note.ABI-tag :

00010170 <.note.ABI-tag>:
   10170:	00000004 	andeq	r0, r0, r4
   10174:	00000010 	andeq	r0, r0, r0, lsl r0
   10178:	00000001 	andeq	r0, r0, r1
   1017c:	00554e47 	subseq	r4, r5, r7, asr #28
   10180:	00000000 	andeq	r0, r0, r0
   10184:	00000003 	andeq	r0, r0, r3
   10188:	00000002 	andeq	r0, r0, r2
   1018c:	00000000 	andeq	r0, r0, r0

Déassemblage de la section .note.gnu.build-id :

00010190 <.note.gnu.build-id>:
   10190:	00000004 	andeq	r0, r0, r4
   10194:	00000014 	andeq	r0, r0, r4, lsl r0
   10198:	00000003 	andeq	r0, r0, r3
   1019c:	00554e47 	subseq	r4, r5, r7, asr #28
   101a0:	5ce6e9fe 			; <UNDEFINED> instruction: 0x5ce6e9fe
   101a4:	697b9c62 	ldmdbvs	fp!, {r1, r5, r6, sl, fp, ip, pc}^
   101a8:	c791c81a 			; <UNDEFINED> instruction: 0xc791c81a
   101ac:	0bba0fff 	bleq	fee941b0 <__bss_end__+0xfee69244>
   101b0:	4771aaac 	ldrbmi	sl, [r1, -ip, lsr #21]!

Déassemblage de la section .gnu.hash :

000101b4 <.gnu.hash>:
   101b4:	00000011 	andeq	r0, r0, r1, lsl r0
   101b8:	00000005 	andeq	r0, r0, r5
   101bc:	00000004 	andeq	r0, r0, r4
   101c0:	00000007 	andeq	r0, r0, r7
   101c4:	02138882 	andseq	r8, r3, #8519680	; 0x820000
   101c8:	37814900 	strcc	r4, [r1, r0, lsl #18]
   101cc:	00032400 	andeq	r2, r3, r0, lsl #8
   101d0:	ae088401 	cdpge	4, 0, cr8, cr8, cr1, {0}
   101d4:	00000000 	andeq	r0, r0, r0
   101d8:	00000005 	andeq	r0, r0, r5
   101dc:	00000000 	andeq	r0, r0, r0
   101e0:	00000007 	andeq	r0, r0, r7
   101e4:	00000009 	andeq	r0, r0, r9
   101e8:	00000000 	andeq	r0, r0, r0
   101ec:	0000000a 	andeq	r0, r0, sl
   101f0:	00000000 	andeq	r0, r0, r0
   101f4:	0000000c 	andeq	r0, r0, ip
   101f8:	0000000e 	andeq	r0, r0, lr
	...
   10204:	00000010 	andeq	r0, r0, r0, lsl r0
   10208:	00000011 	andeq	r0, r0, r1, lsl r0
   1020c:	00000013 	andeq	r0, r0, r3, lsl r0
   10210:	00000015 	andeq	r0, r0, r5, lsl r0
   10214:	00000018 	andeq	r0, r0, r8, lsl r0
   10218:	0f3b9850 	svceq	0x003b9850
   1021c:	0d82b831 	stceq	8, cr11, [r2, #196]	; 0xc4
   10220:	7c96f086 	ldcvc	0, cr15, [r6], {134}	; 0x86
   10224:	0f11ed7d 	svceq	0x0011ed7d
   10228:	7c96dc8b 	ldcvc	12, cr13, [r6], {139}	; 0x8b
   1022c:	7c9e7894 	ldcvc	8, cr7, [lr], {148}	; 0x94
   10230:	f63d4e2f 			; <UNDEFINED> instruction: 0xf63d4e2f
   10234:	bad299e0 	blt	ff4b69bc <__bss_end__+0xff48ba50>
   10238:	7c9e0eef 	ldcvc	14, cr0, [lr], {239}	; 0xef
   1023c:	0b88aa0e 	bleq	fe23aa7c <__bss_end__+0xfe20fb10>
   10240:	0b8866cb 	bleq	fe229d74 <__bss_end__+0xfe1fee08>
   10244:	05d4073d 	ldrbeq	r0, [r4, #1853]	; 0x73d
   10248:	0d827590 	cfstr32eq	mvfx7, [r2, #576]	; 0x240
   1024c:	1060307d 	rsbne	r3, r0, sp, ror r0
   10250:	1484ecfe 	strne	lr, [r4], #3326	; 0xcfe
   10254:	7c93f42b 	cfldrsvc	mvf15, [r3], {43}	; 0x2b
   10258:	156b2bb8 	strbne	r2, [fp, #-3000]!	; 0xfffff448
   1025c:	0d39ad3c 	ldceq	13, cr10, [r9, #-240]!	; 0xffffff10
   10260:	7c9d3deb 	ldcvc	13, cr3, [sp], {235}	; 0xeb
   10264:	1044e839 	subne	lr, r4, r9, lsr r8

Déassemblage de la section .dynsym :

00010268 <.dynsym>:
	...
   10278:	0000000b 	andeq	r0, r0, fp
	...
   10284:	00000020 	andeq	r0, r0, r0, lsr #32
   10288:	00000027 	andeq	r0, r0, r7, lsr #32
	...
   10294:	00000020 	andeq	r0, r0, r0, lsr #32
   10298:	00000036 	andeq	r0, r0, r6, lsr r0
	...
   102a4:	00000020 	andeq	r0, r0, r0, lsr #32
   102a8:	0000004a 	andeq	r0, r0, sl, asr #32
	...
   102b4:	00000020 	andeq	r0, r0, r0, lsr #32
   102b8:	000000c5 	andeq	r0, r0, r5, asr #1
	...
   102c4:	00000012 	andeq	r0, r0, r2, lsl r0
   102c8:	000000d8 	ldrdeq	r0, [r0], -r8
	...
   102d4:	00000012 	andeq	r0, r0, r2, lsl r0
   102d8:	000000ff 	strdeq	r0, [r0], -pc	; <UNPREDICTABLE>
	...
   102e4:	00000012 	andeq	r0, r0, r2, lsl r0
   102e8:	000000cb 	andeq	r0, r0, fp, asr #1
	...
   102f4:	00000012 	andeq	r0, r0, r2, lsl r0
   102f8:	00000072 	andeq	r0, r0, r2, ror r0
	...
   10304:	00000012 	andeq	r0, r0, r2, lsl r0
   10308:	000000c0 	andeq	r0, r0, r0, asr #1
	...
   10314:	00000012 	andeq	r0, r0, r2, lsl r0
   10318:	000000ed 	andeq	r0, r0, sp, ror #1
	...
   10324:	00000012 	andeq	r0, r0, r2, lsl r0
   10328:	00000094 	muleq	r0, r4, r0
	...
   10334:	00000012 	andeq	r0, r0, r2, lsl r0
   10338:	00000069 	andeq	r0, r0, r9, rrx
	...
   10344:	00000012 	andeq	r0, r0, r2, lsl r0
   10348:	0000006e 	andeq	r0, r0, lr, rrx
	...
   10354:	00000012 	andeq	r0, r0, r2, lsl r0
   10358:	00000065 	andeq	r0, r0, r5, rrx
	...
   10364:	00000012 	andeq	r0, r0, r2, lsl r0
   10368:	00000087 	andeq	r0, r0, r7, lsl #1
	...
   10374:	00000012 	andeq	r0, r0, r2, lsl r0
   10378:	000000df 	ldrdeq	r0, [r0], -pc	; <UNPREDICTABLE>
	...
   10384:	00000012 	andeq	r0, r0, r2, lsl r0
   10388:	000000b3 	strheq	r0, [r0], -r3
	...
   10394:	00000012 	andeq	r0, r0, r2, lsl r0
   10398:	000000b9 	strheq	r0, [r0], -r9
	...
   103a4:	00000012 	andeq	r0, r0, r2, lsl r0
   103a8:	00000064 	andeq	r0, r0, r4, rrx
	...
   103b4:	00000012 	andeq	r0, r0, r2, lsl r0
   103b8:	000000d1 	ldrdeq	r0, [r0], -r1
	...
   103c4:	00000012 	andeq	r0, r0, r2, lsl r0
   103c8:	000000e6 	andeq	r0, r0, r6, ror #1
	...
   103d4:	00000012 	andeq	r0, r0, r2, lsl r0
   103d8:	000000b4 	strheq	r0, [r0], -r4
	...
   103e4:	00000012 	andeq	r0, r0, r2, lsl r0
   103e8:	000000a3 	andeq	r0, r0, r3, lsr #1
	...
   103f4:	00000012 	andeq	r0, r0, r2, lsl r0

Déassemblage de la section .dynstr :

000103f8 <.dynstr>:
   103f8:	62696c00 	rsbvs	r6, r9, #0, 24
   103fc:	6f732e6d 	svcvs	0x00732e6d
   10400:	5f00362e 	svcpl	0x0000362e
   10404:	5f4d5449 	svcpl	0x004d5449
   10408:	65726564 	ldrbvs	r6, [r2, #-1380]!	; 0xfffffa9c
   1040c:	74736967 	ldrbtvc	r6, [r3], #-2407	; 0xfffff699
   10410:	4d547265 	lfmmi	f7, 2, [r4, #-404]	; 0xfffffe6c
   10414:	6e6f6c43 	cdpvs	12, 6, cr6, cr15, cr3, {2}
   10418:	62615465 	rsbvs	r5, r1, #1694498816	; 0x65000000
   1041c:	5f00656c 	svcpl	0x0000656c
   10420:	6f6d675f 	svcvs	0x006d675f
   10424:	74735f6e 	ldrbtvc	r5, [r3], #-3950	; 0xfffff092
   10428:	5f747261 	svcpl	0x00747261
   1042c:	4a5f005f 	bmi	17d05b0 <__bss_end__+0x17a5644>
   10430:	65525f76 	ldrbvs	r5, [r2, #-3958]	; 0xfffff08a
   10434:	74736967 	ldrbtvc	r6, [r3], #-2407	; 0xfffff699
   10438:	6c437265 	sfmvs	f7, 2, [r3], {101}	; 0x65
   1043c:	65737361 	ldrbvs	r7, [r3, #-865]!	; 0xfffffc9f
   10440:	495f0073 	ldmdbmi	pc, {r0, r1, r4, r5, r6}^	; <UNPREDICTABLE>
   10444:	725f4d54 	subsvc	r4, pc, #84, 26	; 0x1500
   10448:	73696765 	cmnvc	r9, #26476544	; 0x1940000
   1044c:	54726574 	ldrbtpl	r6, [r2], #-1396	; 0xfffffa8c
   10450:	6f6c434d 	svcvs	0x006c434d
   10454:	6154656e 	cmpvs	r4, lr, ror #10
   10458:	00656c62 	rsbeq	r6, r5, r2, ror #24
   1045c:	736f6361 	cmnvc	pc, #-2080374783	; 0x84000001
   10460:	72717300 	rsbsvc	r7, r1, #0, 6
   10464:	69730074 	ldmdbvs	r3!, {r2, r4, r5, r6}^
   10468:	6d66006e 	stclvs	0, cr0, [r6, #-440]!	; 0xfffffe48
   1046c:	6c00646f 	cfstrsvs	mvf6, [r0], {111}	; 0x6f
   10470:	74706269 	ldrbtvc	r6, [r0], #-617	; 0xfffffd97
   10474:	61657268 	cmnvs	r5, r8, ror #4
   10478:	6f732e64 	svcvs	0x00732e64
   1047c:	7000302e 	andvc	r3, r0, lr, lsr #32
   10480:	65726874 	ldrbvs	r6, [r2, #-2164]!	; 0xfffff78c
   10484:	6a5f6461 	bvs	17e9610 <__bss_end__+0x17be6a4>
   10488:	006e696f 	rsbeq	r6, lr, pc, ror #18
   1048c:	72687470 	rsbvc	r7, r8, #112, 8	; 0x70000000
   10490:	5f646165 	svcpl	0x00646165
   10494:	61657263 	cmnvs	r5, r3, ror #4
   10498:	72006574 	andvc	r6, r0, #116, 10	; 0x1d000000
   1049c:	65736961 	ldrbvs	r6, [r3, #-2401]!	; 0xfffff69f
   104a0:	62696c00 	rsbvs	r6, r9, #0, 24
   104a4:	6f732e63 	svcvs	0x00732e63
   104a8:	7300362e 	movwvc	r3, #1582	; 0x62e
   104ac:	646e6172 	strbtvs	r6, [lr], #-370	; 0xfffffe8e
   104b0:	72657000 	rsbvc	r7, r5, #0
   104b4:	00726f72 	rsbseq	r6, r2, r2, ror pc
   104b8:	656d6974 	strbvs	r6, [sp, #-2420]!	; 0xfffff68c
   104bc:	6f6c6300 	svcvs	0x006c6300
   104c0:	61006b63 	tstvs	r0, r3, ror #22
   104c4:	74726f62 	ldrbtvc	r6, [r2], #-3938	; 0xfffff09e
   104c8:	69727000 	ldmdbvs	r2!, {ip, sp, lr}^
   104cc:	0066746e 	rsbeq	r7, r6, lr, ror #8
   104d0:	736d656d 	cmnvc	sp, #457179136	; 0x1b400000
   104d4:	6d007465 	cfstrsvs	mvf7, [r0, #-404]	; 0xfffffe6c
   104d8:	70636d65 	rsbvc	r6, r3, r5, ror #26
   104dc:	616d0079 	smcvs	53257	; 0xd009
   104e0:	636f6c6c 	cmnvs	pc, #108, 24	; 0x6c00
   104e4:	6c5f5f00 	mrrcvs	15, 0, r5, pc, cr0	; <UNPREDICTABLE>
   104e8:	5f636269 	svcpl	0x00636269
   104ec:	72617473 	rsbvc	r7, r1, #1929379840	; 0x73000000
   104f0:	616d5f74 	smcvs	54772	; 0xd5f4
   104f4:	66006e69 	strvs	r6, [r0], -r9, ror #28
   104f8:	00656572 	rsbeq	r6, r5, r2, ror r5
   104fc:	42494c47 	submi	r4, r9, #18176	; 0x4700
   10500:	2e325f43 	cdpcs	15, 3, cr5, cr2, cr3, {2}
   10504:	Adresse 0x00010504 hors intervalle.


Déassemblage de la section .gnu.version :

00010506 <.gnu.version>:
	...
   1050e:	00030000 	andeq	r0, r3, r0
   10512:	00030003 	andeq	r0, r3, r3
   10516:	00040003 	andeq	r0, r4, r3
   1051a:	00030003 	andeq	r0, r3, r3
   1051e:	00040002 	andeq	r0, r4, r2
   10522:	00040004 	andeq	r0, r4, r4
   10526:	00030002 	andeq	r0, r3, r2
   1052a:	00030003 	andeq	r0, r3, r3
   1052e:	00030004 	andeq	r0, r3, r4
   10532:	00030003 	andeq	r0, r3, r3
   10536:	Adresse 0x00010536 hors intervalle.


Déassemblage de la section .gnu.version_r :

00010538 <.gnu.version_r>:
   10538:	00010001 	andeq	r0, r1, r1
   1053c:	00000001 	andeq	r0, r0, r1
   10540:	00000010 	andeq	r0, r0, r0, lsl r0
   10544:	00000020 	andeq	r0, r0, r0, lsr #32
   10548:	0d696914 			; <UNDEFINED> instruction: 0x0d696914
   1054c:	00040000 	andeq	r0, r4, r0
   10550:	00000104 	andeq	r0, r0, r4, lsl #2
   10554:	00000000 	andeq	r0, r0, r0
   10558:	00010001 	andeq	r0, r1, r1
   1055c:	000000a9 	andeq	r0, r0, r9, lsr #1
   10560:	00000010 	andeq	r0, r0, r0, lsl r0
   10564:	00000020 	andeq	r0, r0, r0, lsr #32
   10568:	0d696914 			; <UNDEFINED> instruction: 0x0d696914
   1056c:	00030000 	andeq	r0, r3, r0
   10570:	00000104 	andeq	r0, r0, r4, lsl #2
   10574:	00000000 	andeq	r0, r0, r0
   10578:	00010001 	andeq	r0, r1, r1
   1057c:	00000077 	andeq	r0, r0, r7, ror r0
   10580:	00000010 	andeq	r0, r0, r0, lsl r0
   10584:	00000000 	andeq	r0, r0, r0
   10588:	0d696914 			; <UNDEFINED> instruction: 0x0d696914
   1058c:	00020000 	andeq	r0, r2, r0
   10590:	00000104 	andeq	r0, r0, r4, lsl #2
   10594:	00000000 	andeq	r0, r0, r0

Déassemblage de la section .rel.dyn :

00010598 <.rel.dyn>:
   10598:	00027060 	andeq	r7, r2, r0, rrx
   1059c:	00000215 	andeq	r0, r0, r5, lsl r2

Déassemblage de la section .rel.plt :

000105a0 <.rel.plt>:
   105a0:	0002700c 	andeq	r7, r2, ip
   105a4:	00001816 	andeq	r1, r0, r6, lsl r8
   105a8:	00027010 	andeq	r7, r2, r0, lsl r0
   105ac:	00001516 	andeq	r1, r0, r6, lsl r5
   105b0:	00027014 	andeq	r7, r2, r4, lsl r0
   105b4:	00000716 	andeq	r0, r0, r6, lsl r7
   105b8:	00027018 	andeq	r7, r2, r8, lsl r0
   105bc:	00001116 	andeq	r1, r0, r6, lsl r1
   105c0:	0002701c 	andeq	r7, r2, ip, lsl r0
   105c4:	00000a16 	andeq	r0, r0, r6, lsl sl
   105c8:	00027020 	andeq	r7, r2, r0, lsr #32
   105cc:	00001316 	andeq	r1, r0, r6, lsl r3
   105d0:	00027024 	andeq	r7, r2, r4, lsr #32
   105d4:	00000c16 	andeq	r0, r0, r6, lsl ip
   105d8:	00027028 	andeq	r7, r2, r8, lsr #32
   105dc:	00001416 	andeq	r1, r0, r6, lsl r4
   105e0:	0002702c 	andeq	r7, r2, ip, lsr #32
   105e4:	00001616 	andeq	r1, r0, r6, lsl r6
   105e8:	00027030 	andeq	r7, r2, r0, lsr r0
   105ec:	00000b16 	andeq	r0, r0, r6, lsl fp
   105f0:	00027034 	andeq	r7, r2, r4, lsr r0
   105f4:	00000216 	andeq	r0, r0, r6, lsl r2
   105f8:	00027038 	andeq	r7, r2, r8, lsr r0
   105fc:	00000516 	andeq	r0, r0, r6, lsl r5
   10600:	0002703c 	andeq	r7, r2, ip, lsr r0
   10604:	00000e16 	andeq	r0, r0, r6, lsl lr
   10608:	00027040 	andeq	r7, r2, r0, asr #32
   1060c:	00001216 	andeq	r1, r0, r6, lsl r2
   10610:	00027044 	andeq	r7, r2, r4, asr #32
   10614:	00000d16 	andeq	r0, r0, r6, lsl sp
   10618:	00027048 	andeq	r7, r2, r8, asr #32
   1061c:	00000616 	andeq	r0, r0, r6, lsl r6
   10620:	0002704c 	andeq	r7, r2, ip, asr #32
   10624:	00001716 	andeq	r1, r0, r6, lsl r7
   10628:	00027050 	andeq	r7, r2, r0, asr r0
   1062c:	00001016 	andeq	r1, r0, r6, lsl r0
   10630:	00027054 	andeq	r7, r2, r4, asr r0
   10634:	00000916 	andeq	r0, r0, r6, lsl r9
   10638:	00027058 	andeq	r7, r2, r8, asr r0
   1063c:	00000816 	andeq	r0, r0, r6, lsl r8
   10640:	0002705c 	andeq	r7, r2, ip, asr r0
   10644:	00000f16 	andeq	r0, r0, r6, lsl pc

Déassemblage de la section .init :

00010648 <_init>:
   10648:	e92d4008 	push	{r3, lr}
   1064c:	eb000054 	bl	107a4 <call_weak_fn>
   10650:	e8bd8008 	pop	{r3, pc}

Déassemblage de la section .plt :

00010654 <.plt>:
   10654:	e52de004 	push	{lr}		; (str lr, [sp, #-4]!)
   10658:	e59fe004 	ldr	lr, [pc, #4]	; 10664 <.plt+0x10>
   1065c:	e08fe00e 	add	lr, pc, lr
   10660:	e5bef008 	ldr	pc, [lr, #8]!
   10664:	0001699c 	muleq	r1, ip, r9

00010668 <raise@plt>:
   10668:	e28fc600 	add	ip, pc, #0, 12
   1066c:	e28cca16 	add	ip, ip, #90112	; 0x16000
   10670:	e5bcf99c 	ldr	pc, [ip, #2460]!	; 0x99c

00010674 <printf@plt>:
   10674:	e28fc600 	add	ip, pc, #0, 12
   10678:	e28cca16 	add	ip, ip, #90112	; 0x16000
   1067c:	e5bcf994 	ldr	pc, [ip, #2452]!	; 0x994

00010680 <free@plt>:
   10680:	e28fc600 	add	ip, pc, #0, 12
   10684:	e28cca16 	add	ip, ip, #90112	; 0x16000
   10688:	e5bcf98c 	ldr	pc, [ip, #2444]!	; 0x98c

0001068c <memcpy@plt>:
   1068c:	e28fc600 	add	ip, pc, #0, 12
   10690:	e28cca16 	add	ip, ip, #90112	; 0x16000
   10694:	e5bcf984 	ldr	pc, [ip, #2436]!	; 0x984

00010698 <time@plt>:
   10698:	e28fc600 	add	ip, pc, #0, 12
   1069c:	e28cca16 	add	ip, ip, #90112	; 0x16000
   106a0:	e5bcf97c 	ldr	pc, [ip, #2428]!	; 0x97c

000106a4 <perror@plt>:
   106a4:	e28fc600 	add	ip, pc, #0, 12
   106a8:	e28cca16 	add	ip, ip, #90112	; 0x16000
   106ac:	e5bcf974 	ldr	pc, [ip, #2420]!	; 0x974

000106b0 <pthread_create@plt>:
   106b0:	e28fc600 	add	ip, pc, #0, 12
   106b4:	e28cca16 	add	ip, ip, #90112	; 0x16000
   106b8:	e5bcf96c 	ldr	pc, [ip, #2412]!	; 0x96c

000106bc <acos@plt>:
   106bc:	e28fc600 	add	ip, pc, #0, 12
   106c0:	e28cca16 	add	ip, ip, #90112	; 0x16000
   106c4:	e5bcf964 	ldr	pc, [ip, #2404]!	; 0x964

000106c8 <malloc@plt>:
   106c8:	e28fc600 	add	ip, pc, #0, 12
   106cc:	e28cca16 	add	ip, ip, #90112	; 0x16000
   106d0:	e5bcf95c 	ldr	pc, [ip, #2396]!	; 0x95c

000106d4 <__libc_start_main@plt>:
   106d4:	e28fc600 	add	ip, pc, #0, 12
   106d8:	e28cca16 	add	ip, ip, #90112	; 0x16000
   106dc:	e5bcf954 	ldr	pc, [ip, #2388]!	; 0x954

000106e0 <__gmon_start__@plt>:
   106e0:	e28fc600 	add	ip, pc, #0, 12
   106e4:	e28cca16 	add	ip, ip, #90112	; 0x16000
   106e8:	e5bcf94c 	ldr	pc, [ip, #2380]!	; 0x94c

000106ec <clock@plt>:
   106ec:	e28fc600 	add	ip, pc, #0, 12
   106f0:	e28cca16 	add	ip, ip, #90112	; 0x16000
   106f4:	e5bcf944 	ldr	pc, [ip, #2372]!	; 0x944

000106f8 <sin@plt>:
   106f8:	e28fc600 	add	ip, pc, #0, 12
   106fc:	e28cca16 	add	ip, ip, #90112	; 0x16000
   10700:	e5bcf93c 	ldr	pc, [ip, #2364]!	; 0x93c

00010704 <srand@plt>:
   10704:	e28fc600 	add	ip, pc, #0, 12
   10708:	e28cca16 	add	ip, ip, #90112	; 0x16000
   1070c:	e5bcf934 	ldr	pc, [ip, #2356]!	; 0x934

00010710 <sqrt@plt>:
   10710:	e28fc600 	add	ip, pc, #0, 12
   10714:	e28cca16 	add	ip, ip, #90112	; 0x16000
   10718:	e5bcf92c 	ldr	pc, [ip, #2348]!	; 0x92c

0001071c <memset@plt>:
   1071c:	e28fc600 	add	ip, pc, #0, 12
   10720:	e28cca16 	add	ip, ip, #90112	; 0x16000
   10724:	e5bcf924 	ldr	pc, [ip, #2340]!	; 0x924

00010728 <rand@plt>:
   10728:	e28fc600 	add	ip, pc, #0, 12
   1072c:	e28cca16 	add	ip, ip, #90112	; 0x16000
   10730:	e5bcf91c 	ldr	pc, [ip, #2332]!	; 0x91c

00010734 <pthread_join@plt>:
   10734:	e28fc600 	add	ip, pc, #0, 12
   10738:	e28cca16 	add	ip, ip, #90112	; 0x16000
   1073c:	e5bcf914 	ldr	pc, [ip, #2324]!	; 0x914

00010740 <fmod@plt>:
   10740:	e28fc600 	add	ip, pc, #0, 12
   10744:	e28cca16 	add	ip, ip, #90112	; 0x16000
   10748:	e5bcf90c 	ldr	pc, [ip, #2316]!	; 0x90c

0001074c <abort@plt>:
   1074c:	e28fc600 	add	ip, pc, #0, 12
   10750:	e28cca16 	add	ip, ip, #90112	; 0x16000
   10754:	e5bcf904 	ldr	pc, [ip, #2308]!	; 0x904

00010758 <cos@plt>:
   10758:	e28fc600 	add	ip, pc, #0, 12
   1075c:	e28cca16 	add	ip, ip, #90112	; 0x16000
   10760:	e5bcf8fc 	ldr	pc, [ip, #2300]!	; 0x8fc

Déassemblage de la section .text :

00010768 <_start>:
   10768:	e3a0b000 	mov	fp, #0
   1076c:	e3a0e000 	mov	lr, #0
   10770:	e49d1004 	pop	{r1}		; (ldr r1, [sp], #4)
   10774:	e1a0200d 	mov	r2, sp
   10778:	e52d2004 	push	{r2}		; (str r2, [sp, #-4]!)
   1077c:	e52d0004 	push	{r0}		; (str r0, [sp, #-4]!)
   10780:	e59fc010 	ldr	ip, [pc, #16]	; 10798 <_start+0x30>
   10784:	e52dc004 	push	{ip}		; (str ip, [sp, #-4]!)
   10788:	e59f000c 	ldr	r0, [pc, #12]	; 1079c <_start+0x34>
   1078c:	e59f300c 	ldr	r3, [pc, #12]	; 107a0 <_start+0x38>
   10790:	ebffffcf 	bl	106d4 <__libc_start_main@plt>
   10794:	ebffffec 	bl	1074c <abort@plt>
   10798:	00016548 	andeq	r6, r1, r8, asr #10
   1079c:	00010890 	muleq	r1, r0, r8
   107a0:	000164e8 	andeq	r6, r1, r8, ror #9

000107a4 <call_weak_fn>:
   107a4:	e59f3014 	ldr	r3, [pc, #20]	; 107c0 <call_weak_fn+0x1c>
   107a8:	e59f2014 	ldr	r2, [pc, #20]	; 107c4 <call_weak_fn+0x20>
   107ac:	e08f3003 	add	r3, pc, r3
   107b0:	e7932002 	ldr	r2, [r3, r2]
   107b4:	e3520000 	cmp	r2, #0
   107b8:	012fff1e 	bxeq	lr
   107bc:	eaffffc7 	b	106e0 <__gmon_start__@plt>
   107c0:	0001684c 	andeq	r6, r1, ip, asr #16
   107c4:	00000060 	andeq	r0, r0, r0, rrx

000107c8 <deregister_tm_clones>:
   107c8:	e59f301c 	ldr	r3, [pc, #28]	; 107ec <deregister_tm_clones+0x24>
   107cc:	e59f001c 	ldr	r0, [pc, #28]	; 107f0 <deregister_tm_clones+0x28>
   107d0:	e0433000 	sub	r3, r3, r0
   107d4:	e3530006 	cmp	r3, #6
   107d8:	912fff1e 	bxls	lr
   107dc:	e59f3010 	ldr	r3, [pc, #16]	; 107f4 <deregister_tm_clones+0x2c>
   107e0:	e3530000 	cmp	r3, #0
   107e4:	012fff1e 	bxeq	lr
   107e8:	e12fff13 	bx	r3
   107ec:	00027087 	andeq	r7, r2, r7, lsl #1
   107f0:	00027084 	andeq	r7, r2, r4, lsl #1
   107f4:	00000000 	andeq	r0, r0, r0

000107f8 <register_tm_clones>:
   107f8:	e59f1024 	ldr	r1, [pc, #36]	; 10824 <register_tm_clones+0x2c>
   107fc:	e59f0024 	ldr	r0, [pc, #36]	; 10828 <register_tm_clones+0x30>
   10800:	e0411000 	sub	r1, r1, r0
   10804:	e1a01141 	asr	r1, r1, #2
   10808:	e0811fa1 	add	r1, r1, r1, lsr #31
   1080c:	e1b010c1 	asrs	r1, r1, #1
   10810:	012fff1e 	bxeq	lr
   10814:	e59f3010 	ldr	r3, [pc, #16]	; 1082c <register_tm_clones+0x34>
   10818:	e3530000 	cmp	r3, #0
   1081c:	012fff1e 	bxeq	lr
   10820:	e12fff13 	bx	r3
   10824:	00027084 	andeq	r7, r2, r4, lsl #1
   10828:	00027084 	andeq	r7, r2, r4, lsl #1
   1082c:	00000000 	andeq	r0, r0, r0

00010830 <__do_global_dtors_aux>:
   10830:	e92d4010 	push	{r4, lr}
   10834:	e59f4018 	ldr	r4, [pc, #24]	; 10854 <__do_global_dtors_aux+0x24>
   10838:	e5d43000 	ldrb	r3, [r4]
   1083c:	e3530000 	cmp	r3, #0
   10840:	18bd8010 	popne	{r4, pc}
   10844:	ebffffdf 	bl	107c8 <deregister_tm_clones>
   10848:	e3a03001 	mov	r3, #1
   1084c:	e5c43000 	strb	r3, [r4]
   10850:	e8bd8010 	pop	{r4, pc}
   10854:	00027088 	andeq	r7, r2, r8, lsl #1

00010858 <frame_dummy>:
   10858:	e59f0028 	ldr	r0, [pc, #40]	; 10888 <frame_dummy+0x30>
   1085c:	e5903000 	ldr	r3, [r0]
   10860:	e3530000 	cmp	r3, #0
   10864:	1a000000 	bne	1086c <frame_dummy+0x14>
   10868:	eaffffe2 	b	107f8 <register_tm_clones>
   1086c:	e59f3018 	ldr	r3, [pc, #24]	; 1088c <frame_dummy+0x34>
   10870:	e3530000 	cmp	r3, #0
   10874:	0afffffb 	beq	10868 <frame_dummy+0x10>
   10878:	e92d4010 	push	{r4, lr}
   1087c:	e12fff33 	blx	r3
   10880:	e8bd4010 	pop	{r4, lr}
   10884:	eaffffdb 	b	107f8 <register_tm_clones>
   10888:	00026f04 	andeq	r6, r2, r4, lsl #30
   1088c:	00000000 	andeq	r0, r0, r0

00010890 <main>:
   10890:	e92d4800 	push	{fp, lr}
   10894:	e28db004 	add	fp, sp, #4
   10898:	e24dd0e0 	sub	sp, sp, #224	; 0xe0
   1089c:	e3a03000 	mov	r3, #0
   108a0:	e54b3044 	strb	r3, [fp, #-68]	; 0xffffffbc
   108a4:	e59f2148 	ldr	r2, [pc, #328]	; 109f4 <main+0x164>
   108a8:	e24b308c 	sub	r3, fp, #140	; 0x8c
   108ac:	e1a01002 	mov	r1, r2
   108b0:	e3a02048 	mov	r2, #72	; 0x48
   108b4:	e1a00003 	mov	r0, r3
   108b8:	ebffff73 	bl	1068c <memcpy@plt>
   108bc:	e3a03003 	mov	r3, #3
   108c0:	e50b3098 	str	r3, [fp, #-152]	; 0xffffff68
   108c4:	e3a03003 	mov	r3, #3
   108c8:	e50b3094 	str	r3, [fp, #-148]	; 0xffffff6c
   108cc:	e24b308c 	sub	r3, fp, #140	; 0x8c
   108d0:	e50b3090 	str	r3, [fp, #-144]	; 0xffffff70
   108d4:	e3a03000 	mov	r3, #0
   108d8:	e50b30a4 	str	r3, [fp, #-164]	; 0xffffff5c
   108dc:	e3a03000 	mov	r3, #0
   108e0:	e50b30a0 	str	r3, [fp, #-160]	; 0xffffff60
   108e4:	e3a03000 	mov	r3, #0
   108e8:	e54b309c 	strb	r3, [fp, #-156]	; 0xffffff64
   108ec:	e3a03000 	mov	r3, #0
   108f0:	e50b30b0 	str	r3, [fp, #-176]	; 0xffffff50
   108f4:	e3a03000 	mov	r3, #0
   108f8:	e50b30ac 	str	r3, [fp, #-172]	; 0xffffff54
   108fc:	e3a03000 	mov	r3, #0
   10900:	e54b30a8 	strb	r3, [fp, #-168]	; 0xffffff58
   10904:	e3a03000 	mov	r3, #0
   10908:	e50b30bc 	str	r3, [fp, #-188]	; 0xffffff44
   1090c:	e3a03000 	mov	r3, #0
   10910:	e50b30b8 	str	r3, [fp, #-184]	; 0xffffff48
   10914:	e3a03000 	mov	r3, #0
   10918:	e54b30b4 	strb	r3, [fp, #-180]	; 0xffffff4c
   1091c:	e3a03000 	mov	r3, #0
   10920:	e50b3040 	str	r3, [fp, #-64]	; 0xffffffc0
   10924:	e3a03000 	mov	r3, #0
   10928:	e50b303c 	str	r3, [fp, #-60]	; 0xffffffc4
   1092c:	e3a03001 	mov	r3, #1
   10930:	e54b3038 	strb	r3, [fp, #-56]	; 0xffffffc8
   10934:	e3a03000 	mov	r3, #0
   10938:	e50b3034 	str	r3, [fp, #-52]	; 0xffffffcc
   1093c:	e3a03000 	mov	r3, #0
   10940:	e50b3030 	str	r3, [fp, #-48]	; 0xffffffd0
   10944:	e3a03000 	mov	r3, #0
   10948:	e50b3028 	str	r3, [fp, #-40]	; 0xffffffd8
   1094c:	e3a03000 	mov	r3, #0
   10950:	e50b3024 	str	r3, [fp, #-36]	; 0xffffffdc
   10954:	e3a02000 	mov	r2, #0
   10958:	e3a03000 	mov	r3, #0
   1095c:	e14b2ef4 	strd	r2, [fp, #-228]	; 0xffffff1c
   10960:	e3a02000 	mov	r2, #0
   10964:	e3a03000 	mov	r3, #0
   10968:	e14b2dfc 	strd	r2, [fp, #-220]	; 0xffffff24
   1096c:	e3a03000 	mov	r3, #0
   10970:	e50b30d4 	str	r3, [fp, #-212]	; 0xffffff2c
   10974:	e3a03000 	mov	r3, #0
   10978:	e50b30d0 	str	r3, [fp, #-208]	; 0xffffff30
   1097c:	e3a03000 	mov	r3, #0
   10980:	e50b30cc 	str	r3, [fp, #-204]	; 0xffffff34
   10984:	e3a03000 	mov	r3, #0
   10988:	e50b30c8 	str	r3, [fp, #-200]	; 0xffffff38
   1098c:	e3a03001 	mov	r3, #1
   10990:	e54b30c4 	strb	r3, [fp, #-196]	; 0xffffff3c
   10994:	e24b30e4 	sub	r3, fp, #228	; 0xe4
   10998:	e50b3010 	str	r3, [fp, #-16]
   1099c:	e3a03000 	mov	r3, #0
   109a0:	e50b3008 	str	r3, [fp, #-8]
   109a4:	ea00000b 	b	109d8 <main+0x148>
   109a8:	e24b3044 	sub	r3, fp, #68	; 0x44
   109ac:	e24b000c 	sub	r0, fp, #12
   109b0:	e59f2040 	ldr	r2, [pc, #64]	; 109f8 <main+0x168>
   109b4:	e3a01000 	mov	r1, #0
   109b8:	eb0015fa 	bl	161a8 <start_thread>
   109bc:	e51b300c 	ldr	r3, [fp, #-12]
   109c0:	e3a01000 	mov	r1, #0
   109c4:	e1a00003 	mov	r0, r3
   109c8:	eb00160d 	bl	16204 <end_thread>
   109cc:	e51b3008 	ldr	r3, [fp, #-8]
   109d0:	e2833001 	add	r3, r3, #1
   109d4:	e50b3008 	str	r3, [fp, #-8]
   109d8:	e51b3008 	ldr	r3, [fp, #-8]
   109dc:	e3530013 	cmp	r3, #19
   109e0:	dafffff0 	ble	109a8 <main+0x118>
   109e4:	e3a03000 	mov	r3, #0
   109e8:	e1a00003 	mov	r0, r3
   109ec:	e24bd004 	sub	sp, fp, #4
   109f0:	e8bd8800 	pop	{fp, pc}
   109f4:	00016560 	andeq	r6, r1, r0, ror #10
   109f8:	00014c88 	andeq	r4, r1, r8, lsl #25

000109fc <get_error_vector>:
   109fc:	e92d4800 	push	{fp, lr}
   10a00:	e28db004 	add	fp, sp, #4
   10a04:	e24dd050 	sub	sp, sp, #80	; 0x50
   10a08:	eeb05a40 	vmov.f32	s10, s0
   10a0c:	eef05a60 	vmov.f32	s11, s1
   10a10:	eeb06a41 	vmov.f32	s12, s2
   10a14:	eef06a61 	vmov.f32	s13, s3
   10a18:	eeb07a42 	vmov.f32	s14, s4
   10a1c:	eef07a62 	vmov.f32	s15, s5
   10a20:	e50b0050 	str	r0, [fp, #-80]	; 0xffffffb0
   10a24:	ed0b5a10 	vstr	s10, [fp, #-64]	; 0xffffffc0
   10a28:	ed4b5a0f 	vstr	s11, [fp, #-60]	; 0xffffffc4
   10a2c:	ed0b6a0e 	vstr	s12, [fp, #-56]	; 0xffffffc8
   10a30:	ed4b6a13 	vstr	s13, [fp, #-76]	; 0xffffffb4
   10a34:	ed0b7a12 	vstr	s14, [fp, #-72]	; 0xffffffb8
   10a38:	ed4b7a11 	vstr	s15, [fp, #-68]	; 0xffffffbc
   10a3c:	e24b3034 	sub	r3, fp, #52	; 0x34
   10a40:	e3a02024 	mov	r2, #36	; 0x24
   10a44:	e3a01000 	mov	r1, #0
   10a48:	e1a00003 	mov	r0, r3
   10a4c:	ebffff32 	bl	1071c <memset@plt>
   10a50:	ed5b7a0e 	vldr	s15, [fp, #-56]	; 0xffffffc8
   10a54:	eeb77ae7 	vcvt.f64.f32	d7, s15
   10a58:	eeb00b47 	vmov.f64	d0, d7
   10a5c:	ebffff3d 	bl	10758 <cos@plt>
   10a60:	eeb07b40 	vmov.f64	d7, d0
   10a64:	eef77bc7 	vcvt.f32.f64	s15, d7
   10a68:	ed4b7a0d 	vstr	s15, [fp, #-52]	; 0xffffffcc
   10a6c:	ed5b7a0e 	vldr	s15, [fp, #-56]	; 0xffffffc8
   10a70:	eeb77ae7 	vcvt.f64.f32	d7, s15
   10a74:	eeb00b47 	vmov.f64	d0, d7
   10a78:	ebffff1e 	bl	106f8 <sin@plt>
   10a7c:	eeb07b40 	vmov.f64	d7, d0
   10a80:	eef77bc7 	vcvt.f32.f64	s15, d7
   10a84:	ed4b7a0c 	vstr	s15, [fp, #-48]	; 0xffffffd0
   10a88:	ed5b7a0e 	vldr	s15, [fp, #-56]	; 0xffffffc8
   10a8c:	eeb77ae7 	vcvt.f64.f32	d7, s15
   10a90:	eeb00b47 	vmov.f64	d0, d7
   10a94:	ebffff17 	bl	106f8 <sin@plt>
   10a98:	eeb07b40 	vmov.f64	d7, d0
   10a9c:	eef77bc7 	vcvt.f32.f64	s15, d7
   10aa0:	eef17a67 	vneg.f32	s15, s15
   10aa4:	ed4b7a0a 	vstr	s15, [fp, #-40]	; 0xffffffd8
   10aa8:	ed5b7a0e 	vldr	s15, [fp, #-56]	; 0xffffffc8
   10aac:	eeb77ae7 	vcvt.f64.f32	d7, s15
   10ab0:	eeb00b47 	vmov.f64	d0, d7
   10ab4:	ebffff27 	bl	10758 <cos@plt>
   10ab8:	eeb07b40 	vmov.f64	d7, d0
   10abc:	eef77bc7 	vcvt.f32.f64	s15, d7
   10ac0:	ed4b7a09 	vstr	s15, [fp, #-36]	; 0xffffffdc
   10ac4:	e3a035fe 	mov	r3, #1065353216	; 0x3f800000
   10ac8:	e50b3014 	str	r3, [fp, #-20]	; 0xffffffec
   10acc:	ed1b7a13 	vldr	s14, [fp, #-76]	; 0xffffffb4
   10ad0:	ed5b7a10 	vldr	s15, [fp, #-64]	; 0xffffffc0
   10ad4:	ee777a67 	vsub.f32	s15, s14, s15
   10ad8:	ed4b7a04 	vstr	s15, [fp, #-16]
   10adc:	ed1b7a12 	vldr	s14, [fp, #-72]	; 0xffffffb8
   10ae0:	ed5b7a0f 	vldr	s15, [fp, #-60]	; 0xffffffc4
   10ae4:	ee777a67 	vsub.f32	s15, s14, s15
   10ae8:	ed4b7a03 	vstr	s15, [fp, #-12]
   10aec:	ed1b7a11 	vldr	s14, [fp, #-68]	; 0xffffffbc
   10af0:	ed5b7a0e 	vldr	s15, [fp, #-56]	; 0xffffffc8
   10af4:	ee777a67 	vsub.f32	s15, s14, s15
   10af8:	ed4b7a02 	vstr	s15, [fp, #-8]
   10afc:	e24b3034 	sub	r3, fp, #52	; 0x34
   10b00:	ed5b6a04 	vldr	s13, [fp, #-16]
   10b04:	ed1b7a03 	vldr	s14, [fp, #-12]
   10b08:	ed5b7a02 	vldr	s15, [fp, #-8]
   10b0c:	e1a01003 	mov	r1, r3
   10b10:	eeb00a66 	vmov.f32	s0, s13
   10b14:	eef00a47 	vmov.f32	s1, s14
   10b18:	eeb01a67 	vmov.f32	s2, s15
   10b1c:	e51b0050 	ldr	r0, [fp, #-80]	; 0xffffffb0
   10b20:	eb0000b0 	bl	10de8 <change_coordinate_system>
   10b24:	e1a00000 	nop			; (mov r0, r0)
   10b28:	e24bd004 	sub	sp, fp, #4
   10b2c:	e8bd8800 	pop	{fp, pc}

00010b30 <get_ref_speed>:
   10b30:	e92d4800 	push	{fp, lr}
   10b34:	e28db004 	add	fp, sp, #4
   10b38:	e24dd060 	sub	sp, sp, #96	; 0x60
   10b3c:	eeb05a40 	vmov.f32	s10, s0
   10b40:	eef05a60 	vmov.f32	s11, s1
   10b44:	eeb06a41 	vmov.f32	s12, s2
   10b48:	eef06a61 	vmov.f32	s13, s3
   10b4c:	eeb07a42 	vmov.f32	s14, s4
   10b50:	eef07a62 	vmov.f32	s15, s5
   10b54:	e50b0060 	str	r0, [fp, #-96]	; 0xffffffa0
   10b58:	e50b1064 	str	r1, [fp, #-100]	; 0xffffff9c
   10b5c:	ed0b5a14 	vstr	s10, [fp, #-80]	; 0xffffffb0
   10b60:	ed4b5a13 	vstr	s11, [fp, #-76]	; 0xffffffb4
   10b64:	ed0b6a12 	vstr	s12, [fp, #-72]	; 0xffffffb8
   10b68:	ed4b6a17 	vstr	s13, [fp, #-92]	; 0xffffffa4
   10b6c:	ed0b7a16 	vstr	s14, [fp, #-88]	; 0xffffffa8
   10b70:	ed4b7a15 	vstr	s15, [fp, #-84]	; 0xffffffac
   10b74:	e24b3040 	sub	r3, fp, #64	; 0x40
   10b78:	e3a02024 	mov	r2, #36	; 0x24
   10b7c:	e3a01000 	mov	r1, #0
   10b80:	e1a00003 	mov	r0, r3
   10b84:	ebfffee4 	bl	1071c <memset@plt>
   10b88:	ed5b7a15 	vldr	s15, [fp, #-84]	; 0xffffffac
   10b8c:	eeb77ae7 	vcvt.f64.f32	d7, s15
   10b90:	eeb00b47 	vmov.f64	d0, d7
   10b94:	ebfffeef 	bl	10758 <cos@plt>
   10b98:	eeb07b40 	vmov.f64	d7, d0
   10b9c:	eef77bc7 	vcvt.f32.f64	s15, d7
   10ba0:	ed4b7a10 	vstr	s15, [fp, #-64]	; 0xffffffc0
   10ba4:	ed5b7a15 	vldr	s15, [fp, #-84]	; 0xffffffac
   10ba8:	eeb77ae7 	vcvt.f64.f32	d7, s15
   10bac:	eeb00b47 	vmov.f64	d0, d7
   10bb0:	ebfffed0 	bl	106f8 <sin@plt>
   10bb4:	eeb07b40 	vmov.f64	d7, d0
   10bb8:	eef77bc7 	vcvt.f32.f64	s15, d7
   10bbc:	ed4b7a0f 	vstr	s15, [fp, #-60]	; 0xffffffc4
   10bc0:	ed5b7a15 	vldr	s15, [fp, #-84]	; 0xffffffac
   10bc4:	eeb77ae7 	vcvt.f64.f32	d7, s15
   10bc8:	eeb00b47 	vmov.f64	d0, d7
   10bcc:	ebfffec9 	bl	106f8 <sin@plt>
   10bd0:	eeb07b40 	vmov.f64	d7, d0
   10bd4:	eef77bc7 	vcvt.f32.f64	s15, d7
   10bd8:	eef17a67 	vneg.f32	s15, s15
   10bdc:	ed4b7a0d 	vstr	s15, [fp, #-52]	; 0xffffffcc
   10be0:	ed5b7a15 	vldr	s15, [fp, #-84]	; 0xffffffac
   10be4:	eeb77ae7 	vcvt.f64.f32	d7, s15
   10be8:	eeb00b47 	vmov.f64	d0, d7
   10bec:	ebfffed9 	bl	10758 <cos@plt>
   10bf0:	eeb07b40 	vmov.f64	d7, d0
   10bf4:	eef77bc7 	vcvt.f32.f64	s15, d7
   10bf8:	ed4b7a0c 	vstr	s15, [fp, #-48]	; 0xffffffd0
   10bfc:	e3a035fe 	mov	r3, #1065353216	; 0x3f800000
   10c00:	e50b3020 	str	r3, [fp, #-32]	; 0xffffffe0
   10c04:	ed1b7a14 	vldr	s14, [fp, #-80]	; 0xffffffb0
   10c08:	ed5b7a17 	vldr	s15, [fp, #-92]	; 0xffffffa4
   10c0c:	ee777a67 	vsub.f32	s15, s14, s15
   10c10:	ed9f7a32 	vldr	s14, [pc, #200]	; 10ce0 <get_ref_speed+0x1b0>
   10c14:	ee277a87 	vmul.f32	s14, s15, s14
   10c18:	eddf6a31 	vldr	s13, [pc, #196]	; 10ce4 <get_ref_speed+0x1b4>
   10c1c:	eec77a26 	vdiv.f32	s15, s14, s13
   10c20:	ed4b7a07 	vstr	s15, [fp, #-28]	; 0xffffffe4
   10c24:	ed1b7a13 	vldr	s14, [fp, #-76]	; 0xffffffb4
   10c28:	ed5b7a16 	vldr	s15, [fp, #-88]	; 0xffffffa8
   10c2c:	ee777a67 	vsub.f32	s15, s14, s15
   10c30:	ed9f7a2a 	vldr	s14, [pc, #168]	; 10ce0 <get_ref_speed+0x1b0>
   10c34:	ee277a87 	vmul.f32	s14, s15, s14
   10c38:	eddf6a29 	vldr	s13, [pc, #164]	; 10ce4 <get_ref_speed+0x1b4>
   10c3c:	eec77a26 	vdiv.f32	s15, s14, s13
   10c40:	ed4b7a06 	vstr	s15, [fp, #-24]	; 0xffffffe8
   10c44:	ed1b7a12 	vldr	s14, [fp, #-72]	; 0xffffffb8
   10c48:	ed5b7a15 	vldr	s15, [fp, #-84]	; 0xffffffac
   10c4c:	ee777a67 	vsub.f32	s15, s14, s15
   10c50:	ed9f7a22 	vldr	s14, [pc, #136]	; 10ce0 <get_ref_speed+0x1b0>
   10c54:	ee277a87 	vmul.f32	s14, s15, s14
   10c58:	eddf6a21 	vldr	s13, [pc, #132]	; 10ce4 <get_ref_speed+0x1b4>
   10c5c:	eec77a26 	vdiv.f32	s15, s14, s13
   10c60:	ed4b7a05 	vstr	s15, [fp, #-20]	; 0xffffffec
   10c64:	e24b2040 	sub	r2, fp, #64	; 0x40
   10c68:	ed5b6a07 	vldr	s13, [fp, #-28]	; 0xffffffe4
   10c6c:	ed1b7a06 	vldr	s14, [fp, #-24]	; 0xffffffe8
   10c70:	ed5b7a05 	vldr	s15, [fp, #-20]	; 0xffffffec
   10c74:	e24b3010 	sub	r3, fp, #16
   10c78:	e1a01002 	mov	r1, r2
   10c7c:	eeb00a66 	vmov.f32	s0, s13
   10c80:	eef00a47 	vmov.f32	s1, s14
   10c84:	eeb01a67 	vmov.f32	s2, s15
   10c88:	e1a00003 	mov	r0, r3
   10c8c:	eb000055 	bl	10de8 <change_coordinate_system>
   10c90:	ed1b7a04 	vldr	s14, [fp, #-16]
   10c94:	ed5b7a04 	vldr	s15, [fp, #-16]
   10c98:	ee277a27 	vmul.f32	s14, s14, s15
   10c9c:	ed5b6a03 	vldr	s13, [fp, #-12]
   10ca0:	ed5b7a03 	vldr	s15, [fp, #-12]
   10ca4:	ee667aa7 	vmul.f32	s15, s13, s15
   10ca8:	ee777a27 	vadd.f32	s15, s14, s15
   10cac:	eeb77ae7 	vcvt.f64.f32	d7, s15
   10cb0:	eeb00b47 	vmov.f64	d0, d7
   10cb4:	ebfffe95 	bl	10710 <sqrt@plt>
   10cb8:	eeb07b40 	vmov.f64	d7, d0
   10cbc:	eef77bc7 	vcvt.f32.f64	s15, d7
   10cc0:	e51b3060 	ldr	r3, [fp, #-96]	; 0xffffffa0
   10cc4:	edc37a00 	vstr	s15, [r3]
   10cc8:	e51b2014 	ldr	r2, [fp, #-20]	; 0xffffffec
   10ccc:	e51b3064 	ldr	r3, [fp, #-100]	; 0xffffff9c
   10cd0:	e5832000 	str	r2, [r3]
   10cd4:	e1a00000 	nop			; (mov r0, r0)
   10cd8:	e24bd004 	sub	sp, fp, #4
   10cdc:	e8bd8800 	pop	{fp, pc}
   10ce0:	447a0000 	ldrbtmi	r0, [sl], #-0
   10ce4:	42c80000 	sbcmi	r0, r8, #0

00010ce8 <kanayama>:
   10ce8:	e92d4800 	push	{fp, lr}
   10cec:	ed2d8b08 	vpush	{d8-d11}
   10cf0:	e28db024 	add	fp, sp, #36	; 0x24
   10cf4:	e24dd030 	sub	sp, sp, #48	; 0x30
   10cf8:	ed0b0a0e 	vstr	s0, [fp, #-56]	; 0xffffffc8
   10cfc:	ed4b0a0f 	vstr	s1, [fp, #-60]	; 0xffffffc4
   10d00:	eef06a41 	vmov.f32	s13, s2
   10d04:	eeb07a61 	vmov.f32	s14, s3
   10d08:	eef07a42 	vmov.f32	s15, s4
   10d0c:	e50b004c 	str	r0, [fp, #-76]	; 0xffffffb4
   10d10:	e50b1050 	str	r1, [fp, #-80]	; 0xffffffb0
   10d14:	ed4b6a12 	vstr	s13, [fp, #-72]	; 0xffffffb8
   10d18:	ed0b7a11 	vstr	s14, [fp, #-68]	; 0xffffffbc
   10d1c:	ed4b7a10 	vstr	s15, [fp, #-64]	; 0xffffffc0
   10d20:	e3a035fe 	mov	r3, #1065353216	; 0x3f800000
   10d24:	e50b3028 	str	r3, [fp, #-40]	; 0xffffffd8
   10d28:	e59f30b0 	ldr	r3, [pc, #176]	; 10de0 <kanayama+0xf8>
   10d2c:	e50b302c 	str	r3, [fp, #-44]	; 0xffffffd4
   10d30:	e59f30ac 	ldr	r3, [pc, #172]	; 10de4 <kanayama+0xfc>
   10d34:	e50b3030 	str	r3, [fp, #-48]	; 0xffffffd0
   10d38:	ed5b7a0e 	vldr	s15, [fp, #-56]	; 0xffffffc8
   10d3c:	eeb78ae7 	vcvt.f64.f32	d8, s15
   10d40:	ed5b7a10 	vldr	s15, [fp, #-64]	; 0xffffffc0
   10d44:	eeb77ae7 	vcvt.f64.f32	d7, s15
   10d48:	eeb00b47 	vmov.f64	d0, d7
   10d4c:	ebfffe81 	bl	10758 <cos@plt>
   10d50:	eeb07b40 	vmov.f64	d7, d0
   10d54:	ee286b07 	vmul.f64	d6, d8, d7
   10d58:	ed1b7a12 	vldr	s14, [fp, #-72]	; 0xffffffb8
   10d5c:	ed5b7a0a 	vldr	s15, [fp, #-40]	; 0xffffffd8
   10d60:	ee677a27 	vmul.f32	s15, s14, s15
   10d64:	eeb77ae7 	vcvt.f64.f32	d7, s15
   10d68:	ee367b07 	vadd.f64	d7, d6, d7
   10d6c:	eef77bc7 	vcvt.f32.f64	s15, d7
   10d70:	e51b304c 	ldr	r3, [fp, #-76]	; 0xffffffb4
   10d74:	edc37a00 	vstr	s15, [r3]
   10d78:	ed5b7a0f 	vldr	s15, [fp, #-60]	; 0xffffffc4
   10d7c:	eeb78ae7 	vcvt.f64.f32	d8, s15
   10d80:	ed5b7a0e 	vldr	s15, [fp, #-56]	; 0xffffffc8
   10d84:	eeb79ae7 	vcvt.f64.f32	d9, s15
   10d88:	ed1b7a11 	vldr	s14, [fp, #-68]	; 0xffffffbc
   10d8c:	ed5b7a0b 	vldr	s15, [fp, #-44]	; 0xffffffd4
   10d90:	ee677a27 	vmul.f32	s15, s14, s15
   10d94:	eeb7aae7 	vcvt.f64.f32	d10, s15
   10d98:	ed5b7a0c 	vldr	s15, [fp, #-48]	; 0xffffffd0
   10d9c:	eeb7bae7 	vcvt.f64.f32	d11, s15
   10da0:	ed5b7a10 	vldr	s15, [fp, #-64]	; 0xffffffc0
   10da4:	eeb77ae7 	vcvt.f64.f32	d7, s15
   10da8:	eeb00b47 	vmov.f64	d0, d7
   10dac:	ebfffe51 	bl	106f8 <sin@plt>
   10db0:	eeb07b40 	vmov.f64	d7, d0
   10db4:	ee2b7b07 	vmul.f64	d7, d11, d7
   10db8:	ee3a7b07 	vadd.f64	d7, d10, d7
   10dbc:	ee297b07 	vmul.f64	d7, d9, d7
   10dc0:	ee387b07 	vadd.f64	d7, d8, d7
   10dc4:	eef77bc7 	vcvt.f32.f64	s15, d7
   10dc8:	e51b3050 	ldr	r3, [fp, #-80]	; 0xffffffb0
   10dcc:	edc37a00 	vstr	s15, [r3]
   10dd0:	e1a00000 	nop			; (mov r0, r0)
   10dd4:	e24bd024 	sub	sp, fp, #36	; 0x24
   10dd8:	ecbd8b08 	vpop	{d8-d11}
   10ddc:	e8bd8800 	pop	{fp, pc}
   10de0:	3ecccccd 	cdpcc	12, 12, cr12, cr12, cr13, {6}
   10de4:	3d99999a 	vldrcc.16	s18, [r9, #308]	; 0x134	; <UNPREDICTABLE>

00010de8 <change_coordinate_system>:
   10de8:	e52db004 	push	{fp}		; (str fp, [sp, #-4]!)
   10dec:	e28db000 	add	fp, sp, #0
   10df0:	e24dd01c 	sub	sp, sp, #28
   10df4:	e50b0008 	str	r0, [fp, #-8]
   10df8:	eef06a40 	vmov.f32	s13, s0
   10dfc:	eeb07a60 	vmov.f32	s14, s1
   10e00:	eef07a41 	vmov.f32	s15, s2
   10e04:	e50b1018 	str	r1, [fp, #-24]	; 0xffffffe8
   10e08:	ed4b6a05 	vstr	s13, [fp, #-20]	; 0xffffffec
   10e0c:	ed0b7a04 	vstr	s14, [fp, #-16]
   10e10:	ed4b7a03 	vstr	s15, [fp, #-12]
   10e14:	e51b3018 	ldr	r3, [fp, #-24]	; 0xffffffe8
   10e18:	ed937a00 	vldr	s14, [r3]
   10e1c:	ed5b7a05 	vldr	s15, [fp, #-20]	; 0xffffffec
   10e20:	ee277a27 	vmul.f32	s14, s14, s15
   10e24:	e51b3018 	ldr	r3, [fp, #-24]	; 0xffffffe8
   10e28:	edd36a01 	vldr	s13, [r3, #4]
   10e2c:	ed5b7a04 	vldr	s15, [fp, #-16]
   10e30:	ee667aa7 	vmul.f32	s15, s13, s15
   10e34:	ee377a27 	vadd.f32	s14, s14, s15
   10e38:	e51b3018 	ldr	r3, [fp, #-24]	; 0xffffffe8
   10e3c:	edd36a02 	vldr	s13, [r3, #8]
   10e40:	ed5b7a03 	vldr	s15, [fp, #-12]
   10e44:	ee667aa7 	vmul.f32	s15, s13, s15
   10e48:	ee777a27 	vadd.f32	s15, s14, s15
   10e4c:	e51b3008 	ldr	r3, [fp, #-8]
   10e50:	edc37a00 	vstr	s15, [r3]
   10e54:	e51b3018 	ldr	r3, [fp, #-24]	; 0xffffffe8
   10e58:	e283300c 	add	r3, r3, #12
   10e5c:	ed937a00 	vldr	s14, [r3]
   10e60:	ed5b7a05 	vldr	s15, [fp, #-20]	; 0xffffffec
   10e64:	ee277a27 	vmul.f32	s14, s14, s15
   10e68:	e51b3018 	ldr	r3, [fp, #-24]	; 0xffffffe8
   10e6c:	e283300c 	add	r3, r3, #12
   10e70:	edd36a01 	vldr	s13, [r3, #4]
   10e74:	ed5b7a04 	vldr	s15, [fp, #-16]
   10e78:	ee667aa7 	vmul.f32	s15, s13, s15
   10e7c:	ee377a27 	vadd.f32	s14, s14, s15
   10e80:	e51b3018 	ldr	r3, [fp, #-24]	; 0xffffffe8
   10e84:	e283300c 	add	r3, r3, #12
   10e88:	edd36a02 	vldr	s13, [r3, #8]
   10e8c:	ed5b7a03 	vldr	s15, [fp, #-12]
   10e90:	ee667aa7 	vmul.f32	s15, s13, s15
   10e94:	ee777a27 	vadd.f32	s15, s14, s15
   10e98:	e51b3008 	ldr	r3, [fp, #-8]
   10e9c:	edc37a01 	vstr	s15, [r3, #4]
   10ea0:	e51b3018 	ldr	r3, [fp, #-24]	; 0xffffffe8
   10ea4:	e2833018 	add	r3, r3, #24
   10ea8:	ed937a00 	vldr	s14, [r3]
   10eac:	ed5b7a05 	vldr	s15, [fp, #-20]	; 0xffffffec
   10eb0:	ee277a27 	vmul.f32	s14, s14, s15
   10eb4:	e51b3018 	ldr	r3, [fp, #-24]	; 0xffffffe8
   10eb8:	e2833018 	add	r3, r3, #24
   10ebc:	edd36a01 	vldr	s13, [r3, #4]
   10ec0:	ed5b7a04 	vldr	s15, [fp, #-16]
   10ec4:	ee667aa7 	vmul.f32	s15, s13, s15
   10ec8:	ee377a27 	vadd.f32	s14, s14, s15
   10ecc:	e51b3018 	ldr	r3, [fp, #-24]	; 0xffffffe8
   10ed0:	e2833018 	add	r3, r3, #24
   10ed4:	edd36a02 	vldr	s13, [r3, #8]
   10ed8:	ed5b7a03 	vldr	s15, [fp, #-12]
   10edc:	ee667aa7 	vmul.f32	s15, s13, s15
   10ee0:	ee777a27 	vadd.f32	s15, s14, s15
   10ee4:	e51b3008 	ldr	r3, [fp, #-8]
   10ee8:	edc37a02 	vstr	s15, [r3, #8]
   10eec:	e1a00000 	nop			; (mov r0, r0)
   10ef0:	e28bd000 	add	sp, fp, #0
   10ef4:	e49db004 	pop	{fp}		; (ldr fp, [sp], #4)
   10ef8:	e12fff1e 	bx	lr
   10efc:	00000000 	andeq	r0, r0, r0

00010f00 <node_eq>:
   10f00:	e52db004 	push	{fp}		; (str fp, [sp, #-4]!)
   10f04:	e28db000 	add	fp, sp, #0
   10f08:	e24dd00c 	sub	sp, sp, #12
   10f0c:	e50b0008 	str	r0, [fp, #-8]
   10f10:	e50b100c 	str	r1, [fp, #-12]
   10f14:	e51b3008 	ldr	r3, [fp, #-8]
   10f18:	ed937a01 	vldr	s14, [r3, #4]
   10f1c:	e51b300c 	ldr	r3, [fp, #-12]
   10f20:	edd37a01 	vldr	s15, [r3, #4]
   10f24:	eeb47a67 	vcmp.f32	s14, s15
   10f28:	eef1fa10 	vmrs	APSR_nzcv, fpscr
   10f2c:	1a000008 	bne	10f54 <node_eq+0x54>
   10f30:	e51b3008 	ldr	r3, [fp, #-8]
   10f34:	ed937a02 	vldr	s14, [r3, #8]
   10f38:	e51b300c 	ldr	r3, [fp, #-12]
   10f3c:	edd37a02 	vldr	s15, [r3, #8]
   10f40:	eeb47a67 	vcmp.f32	s14, s15
   10f44:	eef1fa10 	vmrs	APSR_nzcv, fpscr
   10f48:	1a000001 	bne	10f54 <node_eq+0x54>
   10f4c:	e3a03001 	mov	r3, #1
   10f50:	ea000000 	b	10f58 <node_eq+0x58>
   10f54:	e3a03000 	mov	r3, #0
   10f58:	e6af3073 	sxtb	r3, r3
   10f5c:	e1a00003 	mov	r0, r3
   10f60:	e28bd000 	add	sp, fp, #0
   10f64:	e49db004 	pop	{fp}		; (ldr fp, [sp], #4)
   10f68:	e12fff1e 	bx	lr

00010f6c <get_speed_constraints>:
   10f6c:	e92d4800 	push	{fp, lr}
   10f70:	e28db004 	add	fp, sp, #4
   10f74:	e24dd070 	sub	sp, sp, #112	; 0x70
   10f78:	e50b0068 	str	r0, [fp, #-104]	; 0xffffff98
   10f7c:	e50b106c 	str	r1, [fp, #-108]	; 0xffffff94
   10f80:	e50b2070 	str	r2, [fp, #-112]	; 0xffffff90
   10f84:	e50b3074 	str	r3, [fp, #-116]	; 0xffffff8c
   10f88:	e3a03000 	mov	r3, #0
   10f8c:	e50b3008 	str	r3, [fp, #-8]
   10f90:	e51b3068 	ldr	r3, [fp, #-104]	; 0xffffff98
   10f94:	e1d330b8 	ldrh	r3, [r3, #8]
   10f98:	e2432001 	sub	r2, r3, #1
   10f9c:	e51b306c 	ldr	r3, [fp, #-108]	; 0xffffff94
   10fa0:	e1520003 	cmp	r2, r3
   10fa4:	ca000002 	bgt	10fb4 <get_speed_constraints+0x48>
   10fa8:	e51b306c 	ldr	r3, [fp, #-108]	; 0xffffff94
   10fac:	e2433001 	sub	r3, r3, #1
   10fb0:	ea000000 	b	10fb8 <get_speed_constraints+0x4c>
   10fb4:	e51b306c 	ldr	r3, [fp, #-108]	; 0xffffff94
   10fb8:	e50b300c 	str	r3, [fp, #-12]
   10fbc:	e51b2068 	ldr	r2, [fp, #-104]	; 0xffffff98
   10fc0:	e51b300c 	ldr	r3, [fp, #-12]
   10fc4:	e2833002 	add	r3, r3, #2
   10fc8:	e1a03103 	lsl	r3, r3, #2
   10fcc:	e0823003 	add	r3, r2, r3
   10fd0:	e5932004 	ldr	r2, [r3, #4]
   10fd4:	e24b3060 	sub	r3, fp, #96	; 0x60
   10fd8:	e1a01002 	mov	r1, r2
   10fdc:	e3a02054 	mov	r2, #84	; 0x54
   10fe0:	e1a00003 	mov	r0, r3
   10fe4:	ebfffda8 	bl	1068c <memcpy@plt>
   10fe8:	e51b3070 	ldr	r3, [fp, #-112]	; 0xffffff90
   10fec:	e59f2148 	ldr	r2, [pc, #328]	; 1113c <get_speed_constraints+0x1d0>
   10ff0:	e5832000 	str	r2, [r3]
   10ff4:	e51b3074 	ldr	r3, [fp, #-116]	; 0xffffff8c
   10ff8:	e59f213c 	ldr	r2, [pc, #316]	; 1113c <get_speed_constraints+0x1d0>
   10ffc:	e5832000 	str	r2, [r3]
   11000:	e3a03000 	mov	r3, #0
   11004:	e50b3008 	str	r3, [fp, #-8]
   11008:	ea00002e 	b	110c8 <get_speed_constraints+0x15c>
   1100c:	e51b2008 	ldr	r2, [fp, #-8]
   11010:	e1a03002 	mov	r3, r2
   11014:	e1a03083 	lsl	r3, r3, #1
   11018:	e0833002 	add	r3, r3, r2
   1101c:	e1a03103 	lsl	r3, r3, #2
   11020:	e24b2004 	sub	r2, fp, #4
   11024:	e0823003 	add	r3, r2, r3
   11028:	e2433048 	sub	r3, r3, #72	; 0x48
   1102c:	e5930000 	ldr	r0, [r3]
   11030:	e51b300c 	ldr	r3, [fp, #-12]
   11034:	e2833001 	add	r3, r3, #1
   11038:	e51b2068 	ldr	r2, [fp, #-104]	; 0xffffff98
   1103c:	e2833002 	add	r3, r3, #2
   11040:	e1a03103 	lsl	r3, r3, #2
   11044:	e0823003 	add	r3, r2, r3
   11048:	e5933004 	ldr	r3, [r3, #4]
   1104c:	e1a01003 	mov	r1, r3
   11050:	ebffffaa 	bl	10f00 <node_eq>
   11054:	e1a03000 	mov	r3, r0
   11058:	e3530000 	cmp	r3, #0
   1105c:	0a000016 	beq	110bc <get_speed_constraints+0x150>
   11060:	e51b2008 	ldr	r2, [fp, #-8]
   11064:	e1a03002 	mov	r3, r2
   11068:	e1a03083 	lsl	r3, r3, #1
   1106c:	e0833002 	add	r3, r3, r2
   11070:	e1a03103 	lsl	r3, r3, #2
   11074:	e24b2004 	sub	r2, fp, #4
   11078:	e0823003 	add	r3, r2, r3
   1107c:	e2433044 	sub	r3, r3, #68	; 0x44
   11080:	e5932000 	ldr	r2, [r3]
   11084:	e51b3070 	ldr	r3, [fp, #-112]	; 0xffffff90
   11088:	e5832000 	str	r2, [r3]
   1108c:	e51b2008 	ldr	r2, [fp, #-8]
   11090:	e1a03002 	mov	r3, r2
   11094:	e1a03083 	lsl	r3, r3, #1
   11098:	e0833002 	add	r3, r3, r2
   1109c:	e1a03103 	lsl	r3, r3, #2
   110a0:	e24b2004 	sub	r2, fp, #4
   110a4:	e0823003 	add	r3, r2, r3
   110a8:	e2433040 	sub	r3, r3, #64	; 0x40
   110ac:	e5932000 	ldr	r2, [r3]
   110b0:	e51b3074 	ldr	r3, [fp, #-116]	; 0xffffff8c
   110b4:	e5832000 	str	r2, [r3]
   110b8:	ea000007 	b	110dc <get_speed_constraints+0x170>
   110bc:	e51b3008 	ldr	r3, [fp, #-8]
   110c0:	e2833001 	add	r3, r3, #1
   110c4:	e50b3008 	str	r3, [fp, #-8]
   110c8:	e55b3050 	ldrb	r3, [fp, #-80]	; 0xffffffb0
   110cc:	e1a02003 	mov	r2, r3
   110d0:	e51b3008 	ldr	r3, [fp, #-8]
   110d4:	e1520003 	cmp	r2, r3
   110d8:	caffffcb 	bgt	1100c <get_speed_constraints+0xa0>
   110dc:	e51b3070 	ldr	r3, [fp, #-112]	; 0xffffff90
   110e0:	edd37a00 	vldr	s15, [r3]
   110e4:	ed9f7a13 	vldr	s14, [pc, #76]	; 11138 <get_speed_constraints+0x1cc>
   110e8:	eef47a47 	vcmp.f32	s15, s14
   110ec:	eef1fa10 	vmrs	APSR_nzcv, fpscr
   110f0:	1a000003 	bne	11104 <get_speed_constraints+0x198>
   110f4:	e51b3068 	ldr	r3, [fp, #-104]	; 0xffffff98
   110f8:	e5932000 	ldr	r2, [r3]
   110fc:	e51b3070 	ldr	r3, [fp, #-112]	; 0xffffff90
   11100:	e5832000 	str	r2, [r3]
   11104:	e51b3074 	ldr	r3, [fp, #-116]	; 0xffffff8c
   11108:	edd37a00 	vldr	s15, [r3]
   1110c:	ed9f7a09 	vldr	s14, [pc, #36]	; 11138 <get_speed_constraints+0x1cc>
   11110:	eef47a47 	vcmp.f32	s15, s14
   11114:	eef1fa10 	vmrs	APSR_nzcv, fpscr
   11118:	1a000003 	bne	1112c <get_speed_constraints+0x1c0>
   1111c:	e51b3068 	ldr	r3, [fp, #-104]	; 0xffffff98
   11120:	e5932004 	ldr	r2, [r3, #4]
   11124:	e51b3074 	ldr	r3, [fp, #-116]	; 0xffffff8c
   11128:	e5832000 	str	r2, [r3]
   1112c:	e1a00000 	nop			; (mov r0, r0)
   11130:	e24bd004 	sub	sp, fp, #4
   11134:	e8bd8800 	pop	{fp, pc}
   11138:	bf800000 	svclt	0x00800000
   1113c:	bf800000 	svclt	0x00800000

00011140 <get_max_range>:
   11140:	e92d4800 	push	{fp, lr}
   11144:	e28db004 	add	fp, sp, #4
   11148:	e24dd028 	sub	sp, sp, #40	; 0x28
   1114c:	eeb07a40 	vmov.f32	s14, s0
   11150:	eef07a60 	vmov.f32	s15, s1
   11154:	e50b0028 	str	r0, [fp, #-40]	; 0xffffffd8
   11158:	e50b102c 	str	r1, [fp, #-44]	; 0xffffffd4
   1115c:	ed0b7a09 	vstr	s14, [fp, #-36]	; 0xffffffdc
   11160:	ed4b7a08 	vstr	s15, [fp, #-32]	; 0xffffffe0
   11164:	e3a03000 	mov	r3, #0
   11168:	e50b3008 	str	r3, [fp, #-8]
   1116c:	e59f3274 	ldr	r3, [pc, #628]	; 113e8 <get_max_range+0x2a8>
   11170:	e50b300c 	str	r3, [fp, #-12]
   11174:	e3a03000 	mov	r3, #0
   11178:	e50b3010 	str	r3, [fp, #-16]
   1117c:	e51b302c 	ldr	r3, [fp, #-44]	; 0xffffffd4
   11180:	e50b3010 	str	r3, [fp, #-16]
   11184:	ea000080 	b	1138c <get_max_range+0x24c>
   11188:	e24b301c 	sub	r3, fp, #28
   1118c:	e24b2018 	sub	r2, fp, #24
   11190:	e51b1010 	ldr	r1, [fp, #-16]
   11194:	e51b0028 	ldr	r0, [fp, #-40]	; 0xffffffd8
   11198:	ebffff73 	bl	10f6c <get_speed_constraints>
   1119c:	ed1b7a06 	vldr	s14, [fp, #-24]	; 0xffffffe8
   111a0:	ed5b7a03 	vldr	s15, [fp, #-12]
   111a4:	ee677a27 	vmul.f32	s15, s14, s15
   111a8:	ed4b7a05 	vstr	s15, [fp, #-20]	; 0xffffffec
   111ac:	ed1b7a09 	vldr	s14, [fp, #-36]	; 0xffffffdc
   111b0:	e51b3010 	ldr	r3, [fp, #-16]
   111b4:	e2833001 	add	r3, r3, #1
   111b8:	e51b2028 	ldr	r2, [fp, #-40]	; 0xffffffd8
   111bc:	e2833002 	add	r3, r3, #2
   111c0:	e1a03103 	lsl	r3, r3, #2
   111c4:	e0823003 	add	r3, r2, r3
   111c8:	e5933004 	ldr	r3, [r3, #4]
   111cc:	edd37a01 	vldr	s15, [r3, #4]
   111d0:	ee377a67 	vsub.f32	s14, s14, s15
   111d4:	ed5b6a09 	vldr	s13, [fp, #-36]	; 0xffffffdc
   111d8:	e51b3010 	ldr	r3, [fp, #-16]
   111dc:	e2833001 	add	r3, r3, #1
   111e0:	e51b2028 	ldr	r2, [fp, #-40]	; 0xffffffd8
   111e4:	e2833002 	add	r3, r3, #2
   111e8:	e1a03103 	lsl	r3, r3, #2
   111ec:	e0823003 	add	r3, r2, r3
   111f0:	e5933004 	ldr	r3, [r3, #4]
   111f4:	edd37a01 	vldr	s15, [r3, #4]
   111f8:	ee767ae7 	vsub.f32	s15, s13, s15
   111fc:	ee277a27 	vmul.f32	s14, s14, s15
   11200:	ed5b6a08 	vldr	s13, [fp, #-32]	; 0xffffffe0
   11204:	e51b3010 	ldr	r3, [fp, #-16]
   11208:	e2833001 	add	r3, r3, #1
   1120c:	e51b2028 	ldr	r2, [fp, #-40]	; 0xffffffd8
   11210:	e2833002 	add	r3, r3, #2
   11214:	e1a03103 	lsl	r3, r3, #2
   11218:	e0823003 	add	r3, r2, r3
   1121c:	e5933004 	ldr	r3, [r3, #4]
   11220:	edd37a02 	vldr	s15, [r3, #8]
   11224:	ee766ae7 	vsub.f32	s13, s13, s15
   11228:	ed1b6a08 	vldr	s12, [fp, #-32]	; 0xffffffe0
   1122c:	e51b3010 	ldr	r3, [fp, #-16]
   11230:	e2833001 	add	r3, r3, #1
   11234:	e51b2028 	ldr	r2, [fp, #-40]	; 0xffffffd8
   11238:	e2833002 	add	r3, r3, #2
   1123c:	e1a03103 	lsl	r3, r3, #2
   11240:	e0823003 	add	r3, r2, r3
   11244:	e5933004 	ldr	r3, [r3, #4]
   11248:	edd37a02 	vldr	s15, [r3, #8]
   1124c:	ee767a67 	vsub.f32	s15, s12, s15
   11250:	ee667aa7 	vmul.f32	s15, s13, s15
   11254:	ee777a27 	vadd.f32	s15, s14, s15
   11258:	eeb77ae7 	vcvt.f64.f32	d7, s15
   1125c:	eeb00b47 	vmov.f64	d0, d7
   11260:	ebfffd2a 	bl	10710 <sqrt@plt>
   11264:	eeb07b40 	vmov.f64	d7, d0
   11268:	eeb77bc7 	vcvt.f32.f64	s14, d7
   1126c:	ed5b7a05 	vldr	s15, [fp, #-20]	; 0xffffffec
   11270:	eeb47ae7 	vcmpe.f32	s14, s15
   11274:	eef1fa10 	vmrs	APSR_nzcv, fpscr
   11278:	ba000005 	blt	11294 <get_max_range+0x154>
   1127c:	ed1b7a02 	vldr	s14, [fp, #-8]
   11280:	ed5b7a05 	vldr	s15, [fp, #-20]	; 0xffffffec
   11284:	ee777a27 	vadd.f32	s15, s14, s15
   11288:	ed4b7a02 	vstr	s15, [fp, #-8]
   1128c:	ed5b7a02 	vldr	s15, [fp, #-8]
   11290:	ea00004f 	b	113d4 <get_max_range+0x294>
   11294:	ed1b7a09 	vldr	s14, [fp, #-36]	; 0xffffffdc
   11298:	e51b3010 	ldr	r3, [fp, #-16]
   1129c:	e2833001 	add	r3, r3, #1
   112a0:	e51b2028 	ldr	r2, [fp, #-40]	; 0xffffffd8
   112a4:	e2833002 	add	r3, r3, #2
   112a8:	e1a03103 	lsl	r3, r3, #2
   112ac:	e0823003 	add	r3, r2, r3
   112b0:	e5933004 	ldr	r3, [r3, #4]
   112b4:	edd37a01 	vldr	s15, [r3, #4]
   112b8:	ee377a67 	vsub.f32	s14, s14, s15
   112bc:	ed5b6a09 	vldr	s13, [fp, #-36]	; 0xffffffdc
   112c0:	e51b3010 	ldr	r3, [fp, #-16]
   112c4:	e2833001 	add	r3, r3, #1
   112c8:	e51b2028 	ldr	r2, [fp, #-40]	; 0xffffffd8
   112cc:	e2833002 	add	r3, r3, #2
   112d0:	e1a03103 	lsl	r3, r3, #2
   112d4:	e0823003 	add	r3, r2, r3
   112d8:	e5933004 	ldr	r3, [r3, #4]
   112dc:	edd37a01 	vldr	s15, [r3, #4]
   112e0:	ee767ae7 	vsub.f32	s15, s13, s15
   112e4:	ee277a27 	vmul.f32	s14, s14, s15
   112e8:	ed5b6a08 	vldr	s13, [fp, #-32]	; 0xffffffe0
   112ec:	e51b3010 	ldr	r3, [fp, #-16]
   112f0:	e2833001 	add	r3, r3, #1
   112f4:	e51b2028 	ldr	r2, [fp, #-40]	; 0xffffffd8
   112f8:	e2833002 	add	r3, r3, #2
   112fc:	e1a03103 	lsl	r3, r3, #2
   11300:	e0823003 	add	r3, r2, r3
   11304:	e5933004 	ldr	r3, [r3, #4]
   11308:	edd37a02 	vldr	s15, [r3, #8]
   1130c:	ee766ae7 	vsub.f32	s13, s13, s15
   11310:	ed1b6a08 	vldr	s12, [fp, #-32]	; 0xffffffe0
   11314:	e51b3010 	ldr	r3, [fp, #-16]
   11318:	e2833001 	add	r3, r3, #1
   1131c:	e51b2028 	ldr	r2, [fp, #-40]	; 0xffffffd8
   11320:	e2833002 	add	r3, r3, #2
   11324:	e1a03103 	lsl	r3, r3, #2
   11328:	e0823003 	add	r3, r2, r3
   1132c:	e5933004 	ldr	r3, [r3, #4]
   11330:	edd37a02 	vldr	s15, [r3, #8]
   11334:	ee767a67 	vsub.f32	s15, s12, s15
   11338:	ee667aa7 	vmul.f32	s15, s13, s15
   1133c:	ee777a27 	vadd.f32	s15, s14, s15
   11340:	eeb77ae7 	vcvt.f64.f32	d7, s15
   11344:	eeb00b47 	vmov.f64	d0, d7
   11348:	ebfffcf0 	bl	10710 <sqrt@plt>
   1134c:	eeb07b40 	vmov.f64	d7, d0
   11350:	eef77bc7 	vcvt.f32.f64	s15, d7
   11354:	ed4b7a05 	vstr	s15, [fp, #-20]	; 0xffffffec
   11358:	ed1b7a02 	vldr	s14, [fp, #-8]
   1135c:	ed5b7a05 	vldr	s15, [fp, #-20]	; 0xffffffec
   11360:	ee777a27 	vadd.f32	s15, s14, s15
   11364:	ed4b7a02 	vstr	s15, [fp, #-8]
   11368:	ed1b7a06 	vldr	s14, [fp, #-24]	; 0xffffffe8
   1136c:	ed5b6a05 	vldr	s13, [fp, #-20]	; 0xffffffec
   11370:	eec67a87 	vdiv.f32	s15, s13, s14
   11374:	ed1b7a03 	vldr	s14, [fp, #-12]
   11378:	ee777a67 	vsub.f32	s15, s14, s15
   1137c:	ed4b7a03 	vstr	s15, [fp, #-12]
   11380:	e51b3010 	ldr	r3, [fp, #-16]
   11384:	e2833001 	add	r3, r3, #1
   11388:	e50b3010 	str	r3, [fp, #-16]
   1138c:	e51b3028 	ldr	r3, [fp, #-40]	; 0xffffffd8
   11390:	e1d330b8 	ldrh	r3, [r3, #8]
   11394:	e2432002 	sub	r2, r3, #2
   11398:	e51b3010 	ldr	r3, [fp, #-16]
   1139c:	e1520003 	cmp	r2, r3
   113a0:	aaffff78 	bge	11188 <get_max_range+0x48>
   113a4:	e51b3028 	ldr	r3, [fp, #-40]	; 0xffffffd8
   113a8:	e1d330b8 	ldrh	r3, [r3, #8]
   113ac:	e2431001 	sub	r1, r3, #1
   113b0:	e24b301c 	sub	r3, fp, #28
   113b4:	e24b2018 	sub	r2, fp, #24
   113b8:	e51b0028 	ldr	r0, [fp, #-40]	; 0xffffffd8
   113bc:	ebfffeea 	bl	10f6c <get_speed_constraints>
   113c0:	ed5b7a06 	vldr	s15, [fp, #-24]	; 0xffffffe8
   113c4:	eeb77ae7 	vcvt.f64.f32	d7, s15
   113c8:	ed9f6b04 	vldr	d6, [pc, #16]	; 113e0 <get_max_range+0x2a0>
   113cc:	ee277b06 	vmul.f64	d7, d7, d6
   113d0:	eef77bc7 	vcvt.f32.f64	s15, d7
   113d4:	eeb00a67 	vmov.f32	s0, s15
   113d8:	e24bd004 	sub	sp, fp, #4
   113dc:	e8bd8800 	pop	{fp, pc}
   113e0:	9999999a 	ldmibls	r9, {r1, r3, r4, r7, r8, fp, ip, pc}
   113e4:	3fb99999 	svccc	0x00b99999
   113e8:	3dcccccd 	stclcc	12, cr12, [ip, #820]	; 0x334

000113ec <projection>:
   113ec:	e92d4800 	push	{fp, lr}
   113f0:	ed2d8b02 	vpush	{d8}
   113f4:	e28db00c 	add	fp, sp, #12
   113f8:	e24dd058 	sub	sp, sp, #88	; 0x58
   113fc:	eef06a40 	vmov.f32	s13, s0
   11400:	eeb07a60 	vmov.f32	s14, s1
   11404:	eef07a41 	vmov.f32	s15, s2
   11408:	e50b0054 	str	r0, [fp, #-84]	; 0xffffffac
   1140c:	e50b1058 	str	r1, [fp, #-88]	; 0xffffffa8
   11410:	ed4b6a14 	vstr	s13, [fp, #-80]	; 0xffffffb0
   11414:	ed0b7a13 	vstr	s14, [fp, #-76]	; 0xffffffb4
   11418:	ed4b7a12 	vstr	s15, [fp, #-72]	; 0xffffffb8
   1141c:	e51b3058 	ldr	r3, [fp, #-88]	; 0xffffffa8
   11420:	e3530000 	cmp	r3, #0
   11424:	1a000010 	bne	1146c <projection+0x80>
   11428:	e51b3054 	ldr	r3, [fp, #-84]	; 0xffffffac
   1142c:	e593300c 	ldr	r3, [r3, #12]
   11430:	e5933004 	ldr	r3, [r3, #4]
   11434:	e50b3034 	str	r3, [fp, #-52]	; 0xffffffcc
   11438:	e51b3054 	ldr	r3, [fp, #-84]	; 0xffffffac
   1143c:	e593300c 	ldr	r3, [r3, #12]
   11440:	e5933008 	ldr	r3, [r3, #8]
   11444:	e50b3030 	str	r3, [fp, #-48]	; 0xffffffd0
   11448:	e51b3054 	ldr	r3, [fp, #-84]	; 0xffffffac
   1144c:	e5933010 	ldr	r3, [r3, #16]
   11450:	e5933004 	ldr	r3, [r3, #4]
   11454:	e50b303c 	str	r3, [fp, #-60]	; 0xffffffc4
   11458:	e51b3054 	ldr	r3, [fp, #-84]	; 0xffffffac
   1145c:	e5933010 	ldr	r3, [r3, #16]
   11460:	e5933008 	ldr	r3, [r3, #8]
   11464:	e50b3038 	str	r3, [fp, #-56]	; 0xffffffc8
   11468:	ea000021 	b	114f4 <projection+0x108>
   1146c:	e51b3058 	ldr	r3, [fp, #-88]	; 0xffffffa8
   11470:	e2433001 	sub	r3, r3, #1
   11474:	e51b2054 	ldr	r2, [fp, #-84]	; 0xffffffac
   11478:	e2833002 	add	r3, r3, #2
   1147c:	e1a03103 	lsl	r3, r3, #2
   11480:	e0823003 	add	r3, r2, r3
   11484:	e5933004 	ldr	r3, [r3, #4]
   11488:	e5933004 	ldr	r3, [r3, #4]
   1148c:	e50b3034 	str	r3, [fp, #-52]	; 0xffffffcc
   11490:	e51b3058 	ldr	r3, [fp, #-88]	; 0xffffffa8
   11494:	e2433001 	sub	r3, r3, #1
   11498:	e51b2054 	ldr	r2, [fp, #-84]	; 0xffffffac
   1149c:	e2833002 	add	r3, r3, #2
   114a0:	e1a03103 	lsl	r3, r3, #2
   114a4:	e0823003 	add	r3, r2, r3
   114a8:	e5933004 	ldr	r3, [r3, #4]
   114ac:	e5933008 	ldr	r3, [r3, #8]
   114b0:	e50b3030 	str	r3, [fp, #-48]	; 0xffffffd0
   114b4:	e51b2054 	ldr	r2, [fp, #-84]	; 0xffffffac
   114b8:	e51b3058 	ldr	r3, [fp, #-88]	; 0xffffffa8
   114bc:	e2833002 	add	r3, r3, #2
   114c0:	e1a03103 	lsl	r3, r3, #2
   114c4:	e0823003 	add	r3, r2, r3
   114c8:	e5933004 	ldr	r3, [r3, #4]
   114cc:	e5933004 	ldr	r3, [r3, #4]
   114d0:	e50b303c 	str	r3, [fp, #-60]	; 0xffffffc4
   114d4:	e51b2054 	ldr	r2, [fp, #-84]	; 0xffffffac
   114d8:	e51b3058 	ldr	r3, [fp, #-88]	; 0xffffffa8
   114dc:	e2833002 	add	r3, r3, #2
   114e0:	e1a03103 	lsl	r3, r3, #2
   114e4:	e0823003 	add	r3, r2, r3
   114e8:	e5933004 	ldr	r3, [r3, #4]
   114ec:	e5933008 	ldr	r3, [r3, #8]
   114f0:	e50b3038 	str	r3, [fp, #-56]	; 0xffffffc8
   114f4:	ed1b7a0d 	vldr	s14, [fp, #-52]	; 0xffffffcc
   114f8:	ed5b7a0f 	vldr	s15, [fp, #-60]	; 0xffffffc4
   114fc:	eeb47a67 	vcmp.f32	s14, s15
   11500:	eef1fa10 	vmrs	APSR_nzcv, fpscr
   11504:	1a000009 	bne	11530 <projection+0x144>
   11508:	ed1b7a0c 	vldr	s14, [fp, #-48]	; 0xffffffd0
   1150c:	ed5b7a0e 	vldr	s15, [fp, #-56]	; 0xffffffc8
   11510:	eeb47a67 	vcmp.f32	s14, s15
   11514:	eef1fa10 	vmrs	APSR_nzcv, fpscr
   11518:	1a000004 	bne	11530 <projection+0x144>
   1151c:	e24b302c 	sub	r3, fp, #44	; 0x2c
   11520:	e24b2034 	sub	r2, fp, #52	; 0x34
   11524:	e8920003 	ldm	r2, {r0, r1}
   11528:	e8830003 	stm	r3, {r0, r1}
   1152c:	ea00009c 	b	117a4 <projection+0x3b8>
   11530:	ed1b7a14 	vldr	s14, [fp, #-80]	; 0xffffffb0
   11534:	ed5b7a0d 	vldr	s15, [fp, #-52]	; 0xffffffcc
   11538:	ee377a67 	vsub.f32	s14, s14, s15
   1153c:	ed5b6a0f 	vldr	s13, [fp, #-60]	; 0xffffffc4
   11540:	ed5b7a0d 	vldr	s15, [fp, #-52]	; 0xffffffcc
   11544:	ee767ae7 	vsub.f32	s15, s13, s15
   11548:	ee277a27 	vmul.f32	s14, s14, s15
   1154c:	ed5b6a13 	vldr	s13, [fp, #-76]	; 0xffffffb4
   11550:	ed5b7a0c 	vldr	s15, [fp, #-48]	; 0xffffffd0
   11554:	ee766ae7 	vsub.f32	s13, s13, s15
   11558:	ed1b6a0e 	vldr	s12, [fp, #-56]	; 0xffffffc8
   1155c:	ed5b7a0c 	vldr	s15, [fp, #-48]	; 0xffffffd0
   11560:	ee767a67 	vsub.f32	s15, s12, s15
   11564:	ee667aa7 	vmul.f32	s15, s13, s15
   11568:	ee777a27 	vadd.f32	s15, s14, s15
   1156c:	ed4b7a08 	vstr	s15, [fp, #-32]	; 0xffffffe0
   11570:	ed1b7a0f 	vldr	s14, [fp, #-60]	; 0xffffffc4
   11574:	ed5b7a0d 	vldr	s15, [fp, #-52]	; 0xffffffcc
   11578:	ee377a67 	vsub.f32	s14, s14, s15
   1157c:	ed5b6a0f 	vldr	s13, [fp, #-60]	; 0xffffffc4
   11580:	ed5b7a0d 	vldr	s15, [fp, #-52]	; 0xffffffcc
   11584:	ee767ae7 	vsub.f32	s15, s13, s15
   11588:	ee277a27 	vmul.f32	s14, s14, s15
   1158c:	ed5b6a0e 	vldr	s13, [fp, #-56]	; 0xffffffc8
   11590:	ed5b7a0c 	vldr	s15, [fp, #-48]	; 0xffffffd0
   11594:	ee766ae7 	vsub.f32	s13, s13, s15
   11598:	ed1b6a0e 	vldr	s12, [fp, #-56]	; 0xffffffc8
   1159c:	ed5b7a0c 	vldr	s15, [fp, #-48]	; 0xffffffd0
   115a0:	ee767a67 	vsub.f32	s15, s12, s15
   115a4:	ee667aa7 	vmul.f32	s15, s13, s15
   115a8:	ee777a27 	vadd.f32	s15, s14, s15
   115ac:	ed4b7a09 	vstr	s15, [fp, #-36]	; 0xffffffdc
   115b0:	ed5b6a08 	vldr	s13, [fp, #-32]	; 0xffffffe0
   115b4:	ed1b7a09 	vldr	s14, [fp, #-36]	; 0xffffffdc
   115b8:	eec67a87 	vdiv.f32	s15, s13, s14
   115bc:	ed4b7a08 	vstr	s15, [fp, #-32]	; 0xffffffe0
   115c0:	ed1b7a0d 	vldr	s14, [fp, #-52]	; 0xffffffcc
   115c4:	ed5b6a0f 	vldr	s13, [fp, #-60]	; 0xffffffc4
   115c8:	ed5b7a0d 	vldr	s15, [fp, #-52]	; 0xffffffcc
   115cc:	ee766ae7 	vsub.f32	s13, s13, s15
   115d0:	ed5b7a08 	vldr	s15, [fp, #-32]	; 0xffffffe0
   115d4:	ee667aa7 	vmul.f32	s15, s13, s15
   115d8:	ee777a27 	vadd.f32	s15, s14, s15
   115dc:	ed4b7a11 	vstr	s15, [fp, #-68]	; 0xffffffbc
   115e0:	ed1b7a0c 	vldr	s14, [fp, #-48]	; 0xffffffd0
   115e4:	ed5b6a0e 	vldr	s13, [fp, #-56]	; 0xffffffc8
   115e8:	ed5b7a0c 	vldr	s15, [fp, #-48]	; 0xffffffd0
   115ec:	ee766ae7 	vsub.f32	s13, s13, s15
   115f0:	ed5b7a08 	vldr	s15, [fp, #-32]	; 0xffffffe0
   115f4:	ee667aa7 	vmul.f32	s15, s13, s15
   115f8:	ee777a27 	vadd.f32	s15, s14, s15
   115fc:	ed4b7a10 	vstr	s15, [fp, #-64]	; 0xffffffc0
   11600:	ed1b7a0d 	vldr	s14, [fp, #-52]	; 0xffffffcc
   11604:	ed5b7a0f 	vldr	s15, [fp, #-60]	; 0xffffffc4
   11608:	eeb47ae7 	vcmpe.f32	s14, s15
   1160c:	eef1fa10 	vmrs	APSR_nzcv, fpscr
   11610:	8a000004 	bhi	11628 <projection+0x23c>
   11614:	e51b3034 	ldr	r3, [fp, #-52]	; 0xffffffcc
   11618:	e50b3010 	str	r3, [fp, #-16]
   1161c:	e51b303c 	ldr	r3, [fp, #-60]	; 0xffffffc4
   11620:	e50b3018 	str	r3, [fp, #-24]	; 0xffffffe8
   11624:	ea000003 	b	11638 <projection+0x24c>
   11628:	e51b303c 	ldr	r3, [fp, #-60]	; 0xffffffc4
   1162c:	e50b3010 	str	r3, [fp, #-16]
   11630:	e51b3034 	ldr	r3, [fp, #-52]	; 0xffffffcc
   11634:	e50b3018 	str	r3, [fp, #-24]	; 0xffffffe8
   11638:	ed1b7a0c 	vldr	s14, [fp, #-48]	; 0xffffffd0
   1163c:	ed5b7a0e 	vldr	s15, [fp, #-56]	; 0xffffffc8
   11640:	eeb47ae7 	vcmpe.f32	s14, s15
   11644:	eef1fa10 	vmrs	APSR_nzcv, fpscr
   11648:	8a000004 	bhi	11660 <projection+0x274>
   1164c:	e51b3030 	ldr	r3, [fp, #-48]	; 0xffffffd0
   11650:	e50b3014 	str	r3, [fp, #-20]	; 0xffffffec
   11654:	e51b3038 	ldr	r3, [fp, #-56]	; 0xffffffc8
   11658:	e50b301c 	str	r3, [fp, #-28]	; 0xffffffe4
   1165c:	ea000003 	b	11670 <projection+0x284>
   11660:	e51b3038 	ldr	r3, [fp, #-56]	; 0xffffffc8
   11664:	e50b3014 	str	r3, [fp, #-20]	; 0xffffffec
   11668:	e51b3030 	ldr	r3, [fp, #-48]	; 0xffffffd0
   1166c:	e50b301c 	str	r3, [fp, #-28]	; 0xffffffe4
   11670:	ed1b7a11 	vldr	s14, [fp, #-68]	; 0xffffffbc
   11674:	ed5b7a04 	vldr	s15, [fp, #-16]
   11678:	eeb47ae7 	vcmpe.f32	s14, s15
   1167c:	eef1fa10 	vmrs	APSR_nzcv, fpscr
   11680:	ba000013 	blt	116d4 <projection+0x2e8>
   11684:	ed1b7a11 	vldr	s14, [fp, #-68]	; 0xffffffbc
   11688:	ed5b7a06 	vldr	s15, [fp, #-24]	; 0xffffffe8
   1168c:	eeb47ae7 	vcmpe.f32	s14, s15
   11690:	eef1fa10 	vmrs	APSR_nzcv, fpscr
   11694:	8a00000e 	bhi	116d4 <projection+0x2e8>
   11698:	ed1b7a10 	vldr	s14, [fp, #-64]	; 0xffffffc0
   1169c:	ed5b7a05 	vldr	s15, [fp, #-20]	; 0xffffffec
   116a0:	eeb47ae7 	vcmpe.f32	s14, s15
   116a4:	eef1fa10 	vmrs	APSR_nzcv, fpscr
   116a8:	ba000009 	blt	116d4 <projection+0x2e8>
   116ac:	ed1b7a10 	vldr	s14, [fp, #-64]	; 0xffffffc0
   116b0:	ed5b7a07 	vldr	s15, [fp, #-28]	; 0xffffffe4
   116b4:	eeb47ae7 	vcmpe.f32	s14, s15
   116b8:	eef1fa10 	vmrs	APSR_nzcv, fpscr
   116bc:	8a000004 	bhi	116d4 <projection+0x2e8>
   116c0:	e24b302c 	sub	r3, fp, #44	; 0x2c
   116c4:	e24b2044 	sub	r2, fp, #68	; 0x44
   116c8:	e8920003 	ldm	r2, {r0, r1}
   116cc:	e8830003 	stm	r3, {r0, r1}
   116d0:	ea000033 	b	117a4 <projection+0x3b8>
   116d4:	ed1b7a0d 	vldr	s14, [fp, #-52]	; 0xffffffcc
   116d8:	ed5b7a11 	vldr	s15, [fp, #-68]	; 0xffffffbc
   116dc:	ee377a67 	vsub.f32	s14, s14, s15
   116e0:	ed5b6a0d 	vldr	s13, [fp, #-52]	; 0xffffffcc
   116e4:	ed5b7a11 	vldr	s15, [fp, #-68]	; 0xffffffbc
   116e8:	ee767ae7 	vsub.f32	s15, s13, s15
   116ec:	ee277a27 	vmul.f32	s14, s14, s15
   116f0:	ed5b6a0c 	vldr	s13, [fp, #-48]	; 0xffffffd0
   116f4:	ed5b7a10 	vldr	s15, [fp, #-64]	; 0xffffffc0
   116f8:	ee766ae7 	vsub.f32	s13, s13, s15
   116fc:	ed1b6a0c 	vldr	s12, [fp, #-48]	; 0xffffffd0
   11700:	ed5b7a10 	vldr	s15, [fp, #-64]	; 0xffffffc0
   11704:	ee767a67 	vsub.f32	s15, s12, s15
   11708:	ee667aa7 	vmul.f32	s15, s13, s15
   1170c:	ee777a27 	vadd.f32	s15, s14, s15
   11710:	eeb77ae7 	vcvt.f64.f32	d7, s15
   11714:	eeb00b47 	vmov.f64	d0, d7
   11718:	ebfffbfc 	bl	10710 <sqrt@plt>
   1171c:	eeb07b40 	vmov.f64	d7, d0
   11720:	eeb78bc7 	vcvt.f32.f64	s16, d7
   11724:	ed1b7a0f 	vldr	s14, [fp, #-60]	; 0xffffffc4
   11728:	ed5b7a11 	vldr	s15, [fp, #-68]	; 0xffffffbc
   1172c:	ee377a67 	vsub.f32	s14, s14, s15
   11730:	ed5b6a0f 	vldr	s13, [fp, #-60]	; 0xffffffc4
   11734:	ed5b7a11 	vldr	s15, [fp, #-68]	; 0xffffffbc
   11738:	ee767ae7 	vsub.f32	s15, s13, s15
   1173c:	ee277a27 	vmul.f32	s14, s14, s15
   11740:	ed5b6a0e 	vldr	s13, [fp, #-56]	; 0xffffffc8
   11744:	ed5b7a10 	vldr	s15, [fp, #-64]	; 0xffffffc0
   11748:	ee766ae7 	vsub.f32	s13, s13, s15
   1174c:	ed1b6a0e 	vldr	s12, [fp, #-56]	; 0xffffffc8
   11750:	ed5b7a10 	vldr	s15, [fp, #-64]	; 0xffffffc0
   11754:	ee767a67 	vsub.f32	s15, s12, s15
   11758:	ee667aa7 	vmul.f32	s15, s13, s15
   1175c:	ee777a27 	vadd.f32	s15, s14, s15
   11760:	eeb77ae7 	vcvt.f64.f32	d7, s15
   11764:	eeb00b47 	vmov.f64	d0, d7
   11768:	ebfffbe8 	bl	10710 <sqrt@plt>
   1176c:	eeb07b40 	vmov.f64	d7, d0
   11770:	eef77bc7 	vcvt.f32.f64	s15, d7
   11774:	eeb48ae7 	vcmpe.f32	s16, s15
   11778:	eef1fa10 	vmrs	APSR_nzcv, fpscr
   1177c:	8a000004 	bhi	11794 <projection+0x3a8>
   11780:	e24b302c 	sub	r3, fp, #44	; 0x2c
   11784:	e24b2034 	sub	r2, fp, #52	; 0x34
   11788:	e8920003 	ldm	r2, {r0, r1}
   1178c:	e8830003 	stm	r3, {r0, r1}
   11790:	ea000003 	b	117a4 <projection+0x3b8>
   11794:	e24b302c 	sub	r3, fp, #44	; 0x2c
   11798:	e24b203c 	sub	r2, fp, #60	; 0x3c
   1179c:	e8920003 	ldm	r2, {r0, r1}
   117a0:	e8830003 	stm	r3, {r0, r1}
   117a4:	e51b202c 	ldr	r2, [fp, #-44]	; 0xffffffd4
   117a8:	e51b3028 	ldr	r3, [fp, #-40]	; 0xffffffd8
   117ac:	ee072a10 	vmov	s14, r2
   117b0:	ee073a90 	vmov	s15, r3
   117b4:	eeb00a47 	vmov.f32	s0, s14
   117b8:	eef00a67 	vmov.f32	s1, s15
   117bc:	e24bd00c 	sub	sp, fp, #12
   117c0:	ecbd8b02 	vpop	{d8}
   117c4:	e8bd8800 	pop	{fp, pc}

000117c8 <is_mandatory>:
   117c8:	e24dd010 	sub	sp, sp, #16
   117cc:	e52db004 	push	{fp}		; (str fp, [sp, #-4]!)
   117d0:	e28db000 	add	fp, sp, #0
   117d4:	e28bc004 	add	ip, fp, #4
   117d8:	e88c000f 	stm	ip, {r0, r1, r2, r3}
   117dc:	e59b3010 	ldr	r3, [fp, #16]
   117e0:	e3530001 	cmp	r3, #1
   117e4:	0a000002 	beq	117f4 <is_mandatory+0x2c>
   117e8:	e59b3010 	ldr	r3, [fp, #16]
   117ec:	e3530002 	cmp	r3, #2
   117f0:	1a000001 	bne	117fc <is_mandatory+0x34>
   117f4:	e3a03001 	mov	r3, #1
   117f8:	ea000000 	b	11800 <is_mandatory+0x38>
   117fc:	e3a03000 	mov	r3, #0
   11800:	e6af3073 	sxtb	r3, r3
   11804:	e1a00003 	mov	r0, r3
   11808:	e28bd000 	add	sp, fp, #0
   1180c:	e49db004 	pop	{fp}		; (ldr fp, [sp], #4)
   11810:	e28dd010 	add	sp, sp, #16
   11814:	e12fff1e 	bx	lr

00011818 <eq_pos>:
   11818:	e24dd010 	sub	sp, sp, #16
   1181c:	e52db004 	push	{fp}		; (str fp, [sp, #-4]!)
   11820:	e28db000 	add	fp, sp, #0
   11824:	e24dd01c 	sub	sp, sp, #28
   11828:	eef06a40 	vmov.f32	s13, s0
   1182c:	eeb07a60 	vmov.f32	s14, s1
   11830:	eef07a41 	vmov.f32	s15, s2
   11834:	e28bc004 	add	ip, fp, #4
   11838:	e88c000f 	stm	ip, {r0, r1, r2, r3}
   1183c:	ed4b1a07 	vstr	s3, [fp, #-28]	; 0xffffffe4
   11840:	ed4b6a06 	vstr	s13, [fp, #-24]	; 0xffffffe8
   11844:	ed0b7a05 	vstr	s14, [fp, #-20]	; 0xffffffec
   11848:	ed4b7a04 	vstr	s15, [fp, #-16]
   1184c:	ed1b7a06 	vldr	s14, [fp, #-24]	; 0xffffffe8
   11850:	eddb7a02 	vldr	s15, [fp, #8]
   11854:	ee777a67 	vsub.f32	s15, s14, s15
   11858:	ed4b7a02 	vstr	s15, [fp, #-8]
   1185c:	ed1b7a05 	vldr	s14, [fp, #-20]	; 0xffffffec
   11860:	eddb7a03 	vldr	s15, [fp, #12]
   11864:	ee777a67 	vsub.f32	s15, s14, s15
   11868:	ed4b7a03 	vstr	s15, [fp, #-12]
   1186c:	ed1b7a02 	vldr	s14, [fp, #-8]
   11870:	ed5b7a07 	vldr	s15, [fp, #-28]	; 0xffffffe4
   11874:	eeb47ae7 	vcmpe.f32	s14, s15
   11878:	eef1fa10 	vmrs	APSR_nzcv, fpscr
   1187c:	5a000012 	bpl	118cc <eq_pos+0xb4>
   11880:	ed5b7a07 	vldr	s15, [fp, #-28]	; 0xffffffe4
   11884:	eeb17a67 	vneg.f32	s14, s15
   11888:	ed5b7a02 	vldr	s15, [fp, #-8]
   1188c:	eeb47ae7 	vcmpe.f32	s14, s15
   11890:	eef1fa10 	vmrs	APSR_nzcv, fpscr
   11894:	5a00000c 	bpl	118cc <eq_pos+0xb4>
   11898:	ed1b7a03 	vldr	s14, [fp, #-12]
   1189c:	ed5b7a07 	vldr	s15, [fp, #-28]	; 0xffffffe4
   118a0:	eeb47ae7 	vcmpe.f32	s14, s15
   118a4:	eef1fa10 	vmrs	APSR_nzcv, fpscr
   118a8:	5a000007 	bpl	118cc <eq_pos+0xb4>
   118ac:	ed5b7a07 	vldr	s15, [fp, #-28]	; 0xffffffe4
   118b0:	eeb17a67 	vneg.f32	s14, s15
   118b4:	ed5b7a03 	vldr	s15, [fp, #-12]
   118b8:	eeb47ae7 	vcmpe.f32	s14, s15
   118bc:	eef1fa10 	vmrs	APSR_nzcv, fpscr
   118c0:	5a000001 	bpl	118cc <eq_pos+0xb4>
   118c4:	e3a03001 	mov	r3, #1
   118c8:	ea000000 	b	118d0 <eq_pos+0xb8>
   118cc:	e3a03000 	mov	r3, #0
   118d0:	e6af3073 	sxtb	r3, r3
   118d4:	e1a00003 	mov	r0, r3
   118d8:	e28bd000 	add	sp, fp, #0
   118dc:	e49db004 	pop	{fp}		; (ldr fp, [sp], #4)
   118e0:	e28dd010 	add	sp, sp, #16
   118e4:	e12fff1e 	bx	lr

000118e8 <get_pose_at_last_node>:
   118e8:	e24dd010 	sub	sp, sp, #16
   118ec:	e92d4800 	push	{fp, lr}
   118f0:	ed2d8b02 	vpush	{d8}
   118f4:	e28db00c 	add	fp, sp, #12
   118f8:	e24dd028 	sub	sp, sp, #40	; 0x28
   118fc:	e28bc004 	add	ip, fp, #4
   11900:	e88c000f 	stm	ip, {r0, r1, r2, r3}
   11904:	e59b305c 	ldr	r3, [fp, #92]	; 0x5c
   11908:	e50b3024 	str	r3, [fp, #-36]	; 0xffffffdc
   1190c:	e59b3060 	ldr	r3, [fp, #96]	; 0x60
   11910:	e50b3020 	str	r3, [fp, #-32]	; 0xffffffe0
   11914:	ed9b7a03 	vldr	s14, [fp, #12]
   11918:	eddb7a18 	vldr	s15, [fp, #96]	; 0x60
   1191c:	eeb47ae7 	vcmpe.f32	s14, s15
   11920:	eef1fa10 	vmrs	APSR_nzcv, fpscr
   11924:	da00001d 	ble	119a0 <get_pose_at_last_node+0xb8>
   11928:	ed9b7a17 	vldr	s14, [fp, #92]	; 0x5c
   1192c:	eddb7a02 	vldr	s15, [fp, #8]
   11930:	ee378a67 	vsub.f32	s16, s14, s15
   11934:	ed9b7a02 	vldr	s14, [fp, #8]
   11938:	eddb7a17 	vldr	s15, [fp, #92]	; 0x5c
   1193c:	ee377a67 	vsub.f32	s14, s14, s15
   11940:	eddb6a02 	vldr	s13, [fp, #8]
   11944:	eddb7a17 	vldr	s15, [fp, #92]	; 0x5c
   11948:	ee767ae7 	vsub.f32	s15, s13, s15
   1194c:	ee277a27 	vmul.f32	s14, s14, s15
   11950:	eddb6a03 	vldr	s13, [fp, #12]
   11954:	eddb7a18 	vldr	s15, [fp, #96]	; 0x60
   11958:	ee766ae7 	vsub.f32	s13, s13, s15
   1195c:	ed9b6a03 	vldr	s12, [fp, #12]
   11960:	eddb7a18 	vldr	s15, [fp, #96]	; 0x60
   11964:	ee767a67 	vsub.f32	s15, s12, s15
   11968:	ee667aa7 	vmul.f32	s15, s13, s15
   1196c:	ee777a27 	vadd.f32	s15, s14, s15
   11970:	eeb77ae7 	vcvt.f64.f32	d7, s15
   11974:	eeb00b47 	vmov.f64	d0, d7
   11978:	ebfffb64 	bl	10710 <sqrt@plt>
   1197c:	eeb07b40 	vmov.f64	d7, d0
   11980:	eeb77bc7 	vcvt.f32.f64	s14, d7
   11984:	eec87a07 	vdiv.f32	s15, s16, s14
   11988:	eeb77ae7 	vcvt.f64.f32	d7, s15
   1198c:	eeb00b47 	vmov.f64	d0, d7
   11990:	ebfffb49 	bl	106bc <acos@plt>
   11994:	eeb07b40 	vmov.f64	d7, d0
   11998:	eeb17b47 	vneg.f64	d7, d7
   1199c:	ea00001b 	b	11a10 <get_pose_at_last_node+0x128>
   119a0:	ed9b7a17 	vldr	s14, [fp, #92]	; 0x5c
   119a4:	eddb7a02 	vldr	s15, [fp, #8]
   119a8:	ee378a67 	vsub.f32	s16, s14, s15
   119ac:	ed9b7a02 	vldr	s14, [fp, #8]
   119b0:	eddb7a17 	vldr	s15, [fp, #92]	; 0x5c
   119b4:	ee377a67 	vsub.f32	s14, s14, s15
   119b8:	eddb6a02 	vldr	s13, [fp, #8]
   119bc:	eddb7a17 	vldr	s15, [fp, #92]	; 0x5c
   119c0:	ee767ae7 	vsub.f32	s15, s13, s15
   119c4:	ee277a27 	vmul.f32	s14, s14, s15
   119c8:	eddb6a03 	vldr	s13, [fp, #12]
   119cc:	eddb7a18 	vldr	s15, [fp, #96]	; 0x60
   119d0:	ee766ae7 	vsub.f32	s13, s13, s15
   119d4:	ed9b6a03 	vldr	s12, [fp, #12]
   119d8:	eddb7a18 	vldr	s15, [fp, #96]	; 0x60
   119dc:	ee767a67 	vsub.f32	s15, s12, s15
   119e0:	ee667aa7 	vmul.f32	s15, s13, s15
   119e4:	ee777a27 	vadd.f32	s15, s14, s15
   119e8:	eeb77ae7 	vcvt.f64.f32	d7, s15
   119ec:	eeb00b47 	vmov.f64	d0, d7
   119f0:	ebfffb46 	bl	10710 <sqrt@plt>
   119f4:	eeb07b40 	vmov.f64	d7, d0
   119f8:	eeb77bc7 	vcvt.f32.f64	s14, d7
   119fc:	eec87a07 	vdiv.f32	s15, s16, s14
   11a00:	eeb77ae7 	vcvt.f64.f32	d7, s15
   11a04:	eeb00b47 	vmov.f64	d0, d7
   11a08:	ebfffb2b 	bl	106bc <acos@plt>
   11a0c:	eeb07b40 	vmov.f64	d7, d0
   11a10:	eef77bc7 	vcvt.f32.f64	s15, d7
   11a14:	ed4b7a07 	vstr	s15, [fp, #-28]	; 0xffffffe4
   11a18:	e24b3018 	sub	r3, fp, #24
   11a1c:	e24b2024 	sub	r2, fp, #36	; 0x24
   11a20:	e8920007 	ldm	r2, {r0, r1, r2}
   11a24:	e8830007 	stm	r3, {r0, r1, r2}
   11a28:	e51b1018 	ldr	r1, [fp, #-24]	; 0xffffffe8
   11a2c:	e51b2014 	ldr	r2, [fp, #-20]	; 0xffffffec
   11a30:	e51b3010 	ldr	r3, [fp, #-16]
   11a34:	ee061a90 	vmov	s13, r1
   11a38:	ee072a10 	vmov	s14, r2
   11a3c:	ee073a90 	vmov	s15, r3
   11a40:	eeb00a66 	vmov.f32	s0, s13
   11a44:	eef00a47 	vmov.f32	s1, s14
   11a48:	eeb01a67 	vmov.f32	s2, s15
   11a4c:	e24bd00c 	sub	sp, fp, #12
   11a50:	ecbd8b02 	vpop	{d8}
   11a54:	e8bd4800 	pop	{fp, lr}
   11a58:	e28dd010 	add	sp, sp, #16
   11a5c:	e12fff1e 	bx	lr

00011a60 <get_setpoint>:
   11a60:	e92d4830 	push	{r4, r5, fp, lr}
   11a64:	ed2d8b04 	vpush	{d8-d9}
   11a68:	e28db01c 	add	fp, sp, #28
   11a6c:	e24dde21 	sub	sp, sp, #528	; 0x210
   11a70:	eef06a40 	vmov.f32	s13, s0
   11a74:	eeb07a60 	vmov.f32	s14, s1
   11a78:	eef07a41 	vmov.f32	s15, s2
   11a7c:	e50b012c 	str	r0, [fp, #-300]	; 0xfffffed4
   11a80:	e50b1130 	str	r1, [fp, #-304]	; 0xfffffed0
   11a84:	ed4b6a4a 	vstr	s13, [fp, #-296]	; 0xfffffed8
   11a88:	ed0b7a49 	vstr	s14, [fp, #-292]	; 0xfffffedc
   11a8c:	ed4b7a48 	vstr	s15, [fp, #-288]	; 0xfffffee0
   11a90:	e59f3750 	ldr	r3, [pc, #1872]	; 121e8 <get_setpoint+0x788>
   11a94:	e5933000 	ldr	r3, [r3]
   11a98:	e50b3020 	str	r3, [fp, #-32]	; 0xffffffe0
   11a9c:	e3a03000 	mov	r3, #0
   11aa0:	e54b3025 	strb	r3, [fp, #-37]	; 0xffffffdb
   11aa4:	e3a03000 	mov	r3, #0
   11aa8:	e54b3026 	strb	r3, [fp, #-38]	; 0xffffffda
   11aac:	e3a03000 	mov	r3, #0
   11ab0:	e50b3030 	str	r3, [fp, #-48]	; 0xffffffd0
   11ab4:	e59f372c 	ldr	r3, [pc, #1836]	; 121e8 <get_setpoint+0x788>
   11ab8:	e5933000 	ldr	r3, [r3]
   11abc:	ed5b6a4a 	vldr	s13, [fp, #-296]	; 0xfffffed8
   11ac0:	ed1b7a49 	vldr	s14, [fp, #-292]	; 0xfffffedc
   11ac4:	ed5b7a48 	vldr	s15, [fp, #-288]	; 0xfffffee0
   11ac8:	e1a01003 	mov	r1, r3
   11acc:	e51b012c 	ldr	r0, [fp, #-300]	; 0xfffffed4
   11ad0:	eeb00a66 	vmov.f32	s0, s13
   11ad4:	eef00a47 	vmov.f32	s1, s14
   11ad8:	eeb01a67 	vmov.f32	s2, s15
   11adc:	ebfffe42 	bl	113ec <projection>
   11ae0:	eeb07a40 	vmov.f32	s14, s0
   11ae4:	eef07a60 	vmov.f32	s15, s1
   11ae8:	ed0b7a3e 	vstr	s14, [fp, #-248]	; 0xffffff08
   11aec:	ed4b7a3d 	vstr	s15, [fp, #-244]	; 0xffffff0c
   11af0:	e59f36f0 	ldr	r3, [pc, #1776]	; 121e8 <get_setpoint+0x788>
   11af4:	e5933000 	ldr	r3, [r3]
   11af8:	ed1b7a3e 	vldr	s14, [fp, #-248]	; 0xffffff08
   11afc:	ed5b7a3d 	vldr	s15, [fp, #-244]	; 0xffffff0c
   11b00:	e1a01003 	mov	r1, r3
   11b04:	e51b012c 	ldr	r0, [fp, #-300]	; 0xfffffed4
   11b08:	eeb00a47 	vmov.f32	s0, s14
   11b0c:	eef00a67 	vmov.f32	s1, s15
   11b10:	ebfffd8a 	bl	11140 <get_max_range>
   11b14:	ed0b0a0d 	vstr	s0, [fp, #-52]	; 0xffffffcc
   11b18:	e59f36c8 	ldr	r3, [pc, #1736]	; 121e8 <get_setpoint+0x788>
   11b1c:	e5933000 	ldr	r3, [r3]
   11b20:	e3530000 	cmp	r3, #0
   11b24:	1a000002 	bne	11b34 <get_setpoint+0xd4>
   11b28:	e3a03000 	mov	r3, #0
   11b2c:	e50b3024 	str	r3, [fp, #-36]	; 0xffffffdc
   11b30:	ea000003 	b	11b44 <get_setpoint+0xe4>
   11b34:	e59f36ac 	ldr	r3, [pc, #1708]	; 121e8 <get_setpoint+0x788>
   11b38:	e5933000 	ldr	r3, [r3]
   11b3c:	e2433001 	sub	r3, r3, #1
   11b40:	e50b3024 	str	r3, [fp, #-36]	; 0xffffffdc
   11b44:	e51b312c 	ldr	r3, [fp, #-300]	; 0xfffffed4
   11b48:	e1d330b8 	ldrh	r3, [r3, #8]
   11b4c:	e2432001 	sub	r2, r3, #1
   11b50:	e59f3690 	ldr	r3, [pc, #1680]	; 121e8 <get_setpoint+0x788>
   11b54:	e5933000 	ldr	r3, [r3]
   11b58:	e1520003 	cmp	r2, r3
   11b5c:	1a0001c8 	bne	12284 <get_setpoint+0x824>
   11b60:	e51b312c 	ldr	r3, [fp, #-300]	; 0xfffffed4
   11b64:	e1d330b8 	ldrh	r3, [r3, #8]
   11b68:	e2433001 	sub	r3, r3, #1
   11b6c:	e51b212c 	ldr	r2, [fp, #-300]	; 0xfffffed4
   11b70:	e2833002 	add	r3, r3, #2
   11b74:	e1a03103 	lsl	r3, r3, #2
   11b78:	e0823003 	add	r3, r2, r3
   11b7c:	e5934004 	ldr	r4, [r3, #4]
   11b80:	e59f3668 	ldr	r3, [pc, #1640]	; 121f0 <get_setpoint+0x790>
   11b84:	ed939a00 	vldr	s18, [r3]
   11b88:	edd38a01 	vldr	s17, [r3, #4]
   11b8c:	ed938a02 	vldr	s16, [r3, #8]
   11b90:	e1a0000d 	mov	r0, sp
   11b94:	e2843010 	add	r3, r4, #16
   11b98:	e3a02044 	mov	r2, #68	; 0x44
   11b9c:	e1a01003 	mov	r1, r3
   11ba0:	ebfffab9 	bl	1068c <memcpy@plt>
   11ba4:	e894000f 	ldm	r4, {r0, r1, r2, r3}
   11ba8:	ed5b1a0d 	vldr	s3, [fp, #-52]	; 0xffffffcc
   11bac:	eeb00a49 	vmov.f32	s0, s18
   11bb0:	eef00a68 	vmov.f32	s1, s17
   11bb4:	eeb01a48 	vmov.f32	s2, s16
   11bb8:	ebffff16 	bl	11818 <eq_pos>
   11bbc:	e1a03000 	mov	r3, r0
   11bc0:	e3530000 	cmp	r3, #0
   11bc4:	0a0001ae 	beq	12284 <get_setpoint+0x824>
   11bc8:	e51b312c 	ldr	r3, [fp, #-300]	; 0xfffffed4
   11bcc:	e1d330b8 	ldrh	r3, [r3, #8]
   11bd0:	e2433002 	sub	r3, r3, #2
   11bd4:	e51b212c 	ldr	r2, [fp, #-300]	; 0xfffffed4
   11bd8:	e2833002 	add	r3, r3, #2
   11bdc:	e1a03103 	lsl	r3, r3, #2
   11be0:	e0823003 	add	r3, r2, r3
   11be4:	e5934004 	ldr	r4, [r3, #4]
   11be8:	e51b312c 	ldr	r3, [fp, #-300]	; 0xfffffed4
   11bec:	e1d330b8 	ldrh	r3, [r3, #8]
   11bf0:	e2433001 	sub	r3, r3, #1
   11bf4:	e51b212c 	ldr	r2, [fp, #-300]	; 0xfffffed4
   11bf8:	e2833002 	add	r3, r3, #2
   11bfc:	e1a03103 	lsl	r3, r3, #2
   11c00:	e0823003 	add	r3, r2, r3
   11c04:	e5933004 	ldr	r3, [r3, #4]
   11c08:	e28d0044 	add	r0, sp, #68	; 0x44
   11c0c:	e1a01003 	mov	r1, r3
   11c10:	e3a03054 	mov	r3, #84	; 0x54
   11c14:	e1a02003 	mov	r2, r3
   11c18:	ebfffa9b 	bl	1068c <memcpy@plt>
   11c1c:	e1a0000d 	mov	r0, sp
   11c20:	e2843010 	add	r3, r4, #16
   11c24:	e3a02044 	mov	r2, #68	; 0x44
   11c28:	e1a01003 	mov	r1, r3
   11c2c:	ebfffa96 	bl	1068c <memcpy@plt>
   11c30:	e894000f 	ldm	r4, {r0, r1, r2, r3}
   11c34:	ebffff2b 	bl	118e8 <get_pose_at_last_node>
   11c38:	eef06a40 	vmov.f32	s13, s0
   11c3c:	eeb07a60 	vmov.f32	s14, s1
   11c40:	eef07a41 	vmov.f32	s15, s2
   11c44:	e51b3130 	ldr	r3, [fp, #-304]	; 0xfffffed0
   11c48:	edc36a00 	vstr	s13, [r3]
   11c4c:	ed837a01 	vstr	s14, [r3, #4]
   11c50:	edc37a02 	vstr	s15, [r3, #8]
   11c54:	e3a03000 	mov	r3, #0
   11c58:	ea000372 	b	12a28 <get_setpoint+0xfc8>
   11c5c:	e51b212c 	ldr	r2, [fp, #-300]	; 0xfffffed4
   11c60:	e51b3020 	ldr	r3, [fp, #-32]	; 0xffffffe0
   11c64:	e2833002 	add	r3, r3, #2
   11c68:	e1a03103 	lsl	r3, r3, #2
   11c6c:	e0823003 	add	r3, r2, r3
   11c70:	e5932004 	ldr	r2, [r3, #4]
   11c74:	e24b30e8 	sub	r3, fp, #232	; 0xe8
   11c78:	e1a01002 	mov	r1, r2
   11c7c:	e3a02054 	mov	r2, #84	; 0x54
   11c80:	e1a00003 	mov	r0, r3
   11c84:	ebfffa80 	bl	1068c <memcpy@plt>
   11c88:	e51b30e4 	ldr	r3, [fp, #-228]	; 0xffffff1c
   11c8c:	e50b30f0 	str	r3, [fp, #-240]	; 0xffffff10
   11c90:	e51b30e0 	ldr	r3, [fp, #-224]	; 0xffffff20
   11c94:	e50b30ec 	str	r3, [fp, #-236]	; 0xffffff14
   11c98:	ed1b7a3e 	vldr	s14, [fp, #-248]	; 0xffffff08
   11c9c:	e51b212c 	ldr	r2, [fp, #-300]	; 0xfffffed4
   11ca0:	e51b3020 	ldr	r3, [fp, #-32]	; 0xffffffe0
   11ca4:	e2833002 	add	r3, r3, #2
   11ca8:	e1a03103 	lsl	r3, r3, #2
   11cac:	e0823003 	add	r3, r2, r3
   11cb0:	e5933004 	ldr	r3, [r3, #4]
   11cb4:	edd37a01 	vldr	s15, [r3, #4]
   11cb8:	ee377a67 	vsub.f32	s14, s14, s15
   11cbc:	ed5b6a3e 	vldr	s13, [fp, #-248]	; 0xffffff08
   11cc0:	e51b212c 	ldr	r2, [fp, #-300]	; 0xfffffed4
   11cc4:	e51b3020 	ldr	r3, [fp, #-32]	; 0xffffffe0
   11cc8:	e2833002 	add	r3, r3, #2
   11ccc:	e1a03103 	lsl	r3, r3, #2
   11cd0:	e0823003 	add	r3, r2, r3
   11cd4:	e5933004 	ldr	r3, [r3, #4]
   11cd8:	edd37a01 	vldr	s15, [r3, #4]
   11cdc:	ee767ae7 	vsub.f32	s15, s13, s15
   11ce0:	ee277a27 	vmul.f32	s14, s14, s15
   11ce4:	ed5b6a3d 	vldr	s13, [fp, #-244]	; 0xffffff0c
   11ce8:	e51b212c 	ldr	r2, [fp, #-300]	; 0xfffffed4
   11cec:	e51b3020 	ldr	r3, [fp, #-32]	; 0xffffffe0
   11cf0:	e2833002 	add	r3, r3, #2
   11cf4:	e1a03103 	lsl	r3, r3, #2
   11cf8:	e0823003 	add	r3, r2, r3
   11cfc:	e5933004 	ldr	r3, [r3, #4]
   11d00:	edd37a02 	vldr	s15, [r3, #8]
   11d04:	ee766ae7 	vsub.f32	s13, s13, s15
   11d08:	ed1b6a3d 	vldr	s12, [fp, #-244]	; 0xffffff0c
   11d0c:	e51b212c 	ldr	r2, [fp, #-300]	; 0xfffffed4
   11d10:	e51b3020 	ldr	r3, [fp, #-32]	; 0xffffffe0
   11d14:	e2833002 	add	r3, r3, #2
   11d18:	e1a03103 	lsl	r3, r3, #2
   11d1c:	e0823003 	add	r3, r2, r3
   11d20:	e5933004 	ldr	r3, [r3, #4]
   11d24:	edd37a02 	vldr	s15, [r3, #8]
   11d28:	ee767a67 	vsub.f32	s15, s12, s15
   11d2c:	ee667aa7 	vmul.f32	s15, s13, s15
   11d30:	ee777a27 	vadd.f32	s15, s14, s15
   11d34:	eeb77ae7 	vcvt.f64.f32	d7, s15
   11d38:	eeb00b47 	vmov.f64	d0, d7
   11d3c:	ebfffa73 	bl	10710 <sqrt@plt>
   11d40:	eeb07b40 	vmov.f64	d7, d0
   11d44:	eef77bc7 	vcvt.f32.f64	s15, d7
   11d48:	ed4b7a0c 	vstr	s15, [fp, #-48]	; 0xffffffd0
   11d4c:	ed1b7a0c 	vldr	s14, [fp, #-48]	; 0xffffffd0
   11d50:	ed5b7a0d 	vldr	s15, [fp, #-52]	; 0xffffffcc
   11d54:	eeb47ae7 	vcmpe.f32	s14, s15
   11d58:	eef1fa10 	vmrs	APSR_nzcv, fpscr
   11d5c:	c3a03001 	movgt	r3, #1
   11d60:	d3a03000 	movle	r3, #0
   11d64:	e6ef3073 	uxtb	r3, r3
   11d68:	e54b3025 	strb	r3, [fp, #-37]	; 0xffffffdb
   11d6c:	e15b32d5 	ldrsb	r3, [fp, #-37]	; 0xffffffdb
   11d70:	e3530000 	cmp	r3, #0
   11d74:	1a000142 	bne	12284 <get_setpoint+0x824>
   11d78:	ea000083 	b	11f8c <get_setpoint+0x52c>
   11d7c:	e51b312c 	ldr	r3, [fp, #-300]	; 0xfffffed4
   11d80:	e1d330b8 	ldrh	r3, [r3, #8]
   11d84:	e2432002 	sub	r2, r3, #2
   11d88:	e59f344c 	ldr	r3, [pc, #1100]	; 121dc <get_setpoint+0x77c>
   11d8c:	e5933000 	ldr	r3, [r3]
   11d90:	e1520003 	cmp	r2, r3
   11d94:	aa000028 	bge	11e3c <get_setpoint+0x3dc>
   11d98:	e59f343c 	ldr	r3, [pc, #1084]	; 121dc <get_setpoint+0x77c>
   11d9c:	e5933000 	ldr	r3, [r3]
   11da0:	e51b212c 	ldr	r2, [fp, #-300]	; 0xfffffed4
   11da4:	e2833002 	add	r3, r3, #2
   11da8:	e1a03103 	lsl	r3, r3, #2
   11dac:	e0823003 	add	r3, r2, r3
   11db0:	e5934004 	ldr	r4, [r3, #4]
   11db4:	e59f3420 	ldr	r3, [pc, #1056]	; 121dc <get_setpoint+0x77c>
   11db8:	e5933000 	ldr	r3, [r3]
   11dbc:	e2433001 	sub	r3, r3, #1
   11dc0:	e51b212c 	ldr	r2, [fp, #-300]	; 0xfffffed4
   11dc4:	e2833002 	add	r3, r3, #2
   11dc8:	e1a03103 	lsl	r3, r3, #2
   11dcc:	e0823003 	add	r3, r2, r3
   11dd0:	e5930004 	ldr	r0, [r3, #4]
   11dd4:	e59f3400 	ldr	r3, [pc, #1024]	; 121dc <get_setpoint+0x77c>
   11dd8:	e5933000 	ldr	r3, [r3]
   11ddc:	e1a03183 	lsl	r3, r3, #3
   11de0:	e59f23f8 	ldr	r2, [pc, #1016]	; 121e0 <get_setpoint+0x780>
   11de4:	e0833002 	add	r3, r3, r2
   11de8:	e59f23ec 	ldr	r2, [pc, #1004]	; 121dc <get_setpoint+0x77c>
   11dec:	e5922000 	ldr	r2, [r2]
   11df0:	e1a02182 	lsl	r2, r2, #3
   11df4:	e59f13e8 	ldr	r1, [pc, #1000]	; 121e4 <get_setpoint+0x784>
   11df8:	e0822001 	add	r2, r2, r1
   11dfc:	e58d209c 	str	r2, [sp, #156]	; 0x9c
   11e00:	e58d3098 	str	r3, [sp, #152]	; 0x98
   11e04:	e28d3044 	add	r3, sp, #68	; 0x44
   11e08:	e1a01000 	mov	r1, r0
   11e0c:	e3a02054 	mov	r2, #84	; 0x54
   11e10:	e1a00003 	mov	r0, r3
   11e14:	ebfffa1c 	bl	1068c <memcpy@plt>
   11e18:	e1a0000d 	mov	r0, sp
   11e1c:	e2843010 	add	r3, r4, #16
   11e20:	e3a02044 	mov	r2, #68	; 0x44
   11e24:	e1a01003 	mov	r1, r3
   11e28:	ebfffa17 	bl	1068c <memcpy@plt>
   11e2c:	e894000f 	ldm	r4, {r0, r1, r2, r3}
   11e30:	ed9f0ae8 	vldr	s0, [pc, #928]	; 121d8 <get_setpoint+0x778>
   11e34:	eb00092c 	bl	142ec <side_lr_points>
   11e38:	ea00004e 	b	11f78 <get_setpoint+0x518>
   11e3c:	e59f3398 	ldr	r3, [pc, #920]	; 121dc <get_setpoint+0x77c>
   11e40:	e5933000 	ldr	r3, [r3]
   11e44:	e3530000 	cmp	r3, #0
   11e48:	1a000015 	bne	11ea4 <get_setpoint+0x444>
   11e4c:	e51b312c 	ldr	r3, [fp, #-300]	; 0xfffffed4
   11e50:	e593400c 	ldr	r4, [r3, #12]
   11e54:	e51b312c 	ldr	r3, [fp, #-300]	; 0xfffffed4
   11e58:	e5932010 	ldr	r2, [r3, #16]
   11e5c:	e59f337c 	ldr	r3, [pc, #892]	; 121e0 <get_setpoint+0x780>
   11e60:	e58d309c 	str	r3, [sp, #156]	; 0x9c
   11e64:	e59f3378 	ldr	r3, [pc, #888]	; 121e4 <get_setpoint+0x784>
   11e68:	e58d3098 	str	r3, [sp, #152]	; 0x98
   11e6c:	e28d3044 	add	r3, sp, #68	; 0x44
   11e70:	e1a01002 	mov	r1, r2
   11e74:	e3a02054 	mov	r2, #84	; 0x54
   11e78:	e1a00003 	mov	r0, r3
   11e7c:	ebfffa02 	bl	1068c <memcpy@plt>
   11e80:	e1a0000d 	mov	r0, sp
   11e84:	e2843010 	add	r3, r4, #16
   11e88:	e3a02044 	mov	r2, #68	; 0x44
   11e8c:	e1a01003 	mov	r1, r3
   11e90:	ebfff9fd 	bl	1068c <memcpy@plt>
   11e94:	e894000f 	ldm	r4, {r0, r1, r2, r3}
   11e98:	ed9f0ace 	vldr	s0, [pc, #824]	; 121d8 <get_setpoint+0x778>
   11e9c:	eb000912 	bl	142ec <side_lr_points>
   11ea0:	ea000034 	b	11f78 <get_setpoint+0x518>
   11ea4:	e59f3330 	ldr	r3, [pc, #816]	; 121dc <get_setpoint+0x77c>
   11ea8:	e5933000 	ldr	r3, [r3]
   11eac:	e2433001 	sub	r3, r3, #1
   11eb0:	e51b212c 	ldr	r2, [fp, #-300]	; 0xfffffed4
   11eb4:	e2833002 	add	r3, r3, #2
   11eb8:	e1a03103 	lsl	r3, r3, #2
   11ebc:	e0823003 	add	r3, r2, r3
   11ec0:	e5934004 	ldr	r4, [r3, #4]
   11ec4:	e59f3310 	ldr	r3, [pc, #784]	; 121dc <get_setpoint+0x77c>
   11ec8:	e5933000 	ldr	r3, [r3]
   11ecc:	e51b212c 	ldr	r2, [fp, #-300]	; 0xfffffed4
   11ed0:	e2833002 	add	r3, r3, #2
   11ed4:	e1a03103 	lsl	r3, r3, #2
   11ed8:	e0823003 	add	r3, r2, r3
   11edc:	e5935004 	ldr	r5, [r3, #4]
   11ee0:	e59f32f4 	ldr	r3, [pc, #756]	; 121dc <get_setpoint+0x77c>
   11ee4:	e5933000 	ldr	r3, [r3]
   11ee8:	e2833001 	add	r3, r3, #1
   11eec:	e51b212c 	ldr	r2, [fp, #-300]	; 0xfffffed4
   11ef0:	e2833002 	add	r3, r3, #2
   11ef4:	e1a03103 	lsl	r3, r3, #2
   11ef8:	e0823003 	add	r3, r2, r3
   11efc:	e5930004 	ldr	r0, [r3, #4]
   11f00:	e59f32d4 	ldr	r3, [pc, #724]	; 121dc <get_setpoint+0x77c>
   11f04:	e5933000 	ldr	r3, [r3]
   11f08:	e1a03183 	lsl	r3, r3, #3
   11f0c:	e59f22d0 	ldr	r2, [pc, #720]	; 121e4 <get_setpoint+0x784>
   11f10:	e0833002 	add	r3, r3, r2
   11f14:	e59f22c0 	ldr	r2, [pc, #704]	; 121dc <get_setpoint+0x77c>
   11f18:	e5922000 	ldr	r2, [r2]
   11f1c:	e1a02182 	lsl	r2, r2, #3
   11f20:	e59f12b8 	ldr	r1, [pc, #696]	; 121e0 <get_setpoint+0x780>
   11f24:	e0822001 	add	r2, r2, r1
   11f28:	e58d20f0 	str	r2, [sp, #240]	; 0xf0
   11f2c:	e58d30ec 	str	r3, [sp, #236]	; 0xec
   11f30:	e28d3098 	add	r3, sp, #152	; 0x98
   11f34:	e1a01000 	mov	r1, r0
   11f38:	e3a02054 	mov	r2, #84	; 0x54
   11f3c:	e1a00003 	mov	r0, r3
   11f40:	ebfff9d1 	bl	1068c <memcpy@plt>
   11f44:	e28d3044 	add	r3, sp, #68	; 0x44
   11f48:	e1a01005 	mov	r1, r5
   11f4c:	e3a02054 	mov	r2, #84	; 0x54
   11f50:	e1a00003 	mov	r0, r3
   11f54:	ebfff9cc 	bl	1068c <memcpy@plt>
   11f58:	e1a0000d 	mov	r0, sp
   11f5c:	e2843010 	add	r3, r4, #16
   11f60:	e3a02044 	mov	r2, #68	; 0x44
   11f64:	e1a01003 	mov	r1, r3
   11f68:	ebfff9c7 	bl	1068c <memcpy@plt>
   11f6c:	e894000f 	ldm	r4, {r0, r1, r2, r3}
   11f70:	ed9f0a98 	vldr	s0, [pc, #608]	; 121d8 <get_setpoint+0x778>
   11f74:	eb000953 	bl	144c8 <lr_points>
   11f78:	e59f325c 	ldr	r3, [pc, #604]	; 121dc <get_setpoint+0x77c>
   11f7c:	e5933000 	ldr	r3, [r3]
   11f80:	e2833001 	add	r3, r3, #1
   11f84:	e59f2250 	ldr	r2, [pc, #592]	; 121dc <get_setpoint+0x77c>
   11f88:	e5823000 	str	r3, [r2]
   11f8c:	e59f3248 	ldr	r3, [pc, #584]	; 121dc <get_setpoint+0x77c>
   11f90:	e5932000 	ldr	r2, [r3]
   11f94:	e51b3020 	ldr	r3, [fp, #-32]	; 0xffffffe0
   11f98:	e1520003 	cmp	r2, r3
   11f9c:	daffff76 	ble	11d7c <get_setpoint+0x31c>
   11fa0:	e59f3234 	ldr	r3, [pc, #564]	; 121dc <get_setpoint+0x77c>
   11fa4:	e5933000 	ldr	r3, [r3]
   11fa8:	e3530000 	cmp	r3, #0
   11fac:	da00000f 	ble	11ff0 <get_setpoint+0x590>
   11fb0:	e59f3224 	ldr	r3, [pc, #548]	; 121dc <get_setpoint+0x77c>
   11fb4:	e5931000 	ldr	r1, [r3]
   11fb8:	ed1b6a3c 	vldr	s12, [fp, #-240]	; 0xffffff10
   11fbc:	ed5b6a3b 	vldr	s13, [fp, #-236]	; 0xffffff14
   11fc0:	ed1b7a3e 	vldr	s14, [fp, #-248]	; 0xffffff08
   11fc4:	ed5b7a3d 	vldr	s15, [fp, #-244]	; 0xffffff0c
   11fc8:	e59f3210 	ldr	r3, [pc, #528]	; 121e0 <get_setpoint+0x780>
   11fcc:	e59f2210 	ldr	r2, [pc, #528]	; 121e4 <get_setpoint+0x784>
   11fd0:	e51b0024 	ldr	r0, [fp, #-36]	; 0xffffffdc
   11fd4:	eeb01a46 	vmov.f32	s2, s12
   11fd8:	eef01a66 	vmov.f32	s3, s13
   11fdc:	eeb00a47 	vmov.f32	s0, s14
   11fe0:	eef00a67 	vmov.f32	s1, s15
   11fe4:	eb000809 	bl	14010 <test_intersection_point>
   11fe8:	e1a03000 	mov	r3, r0
   11fec:	e54b3026 	strb	r3, [fp, #-38]	; 0xffffffda
   11ff0:	e15b32d6 	ldrsb	r3, [fp, #-38]	; 0xffffffda
   11ff4:	e3530000 	cmp	r3, #0
   11ff8:	1a0000a1 	bne	12284 <get_setpoint+0x824>
   11ffc:	e1a0000d 	mov	r0, sp
   12000:	e24b30d8 	sub	r3, fp, #216	; 0xd8
   12004:	e3a02044 	mov	r2, #68	; 0x44
   12008:	e1a01003 	mov	r1, r3
   1200c:	ebfff99e 	bl	1068c <memcpy@plt>
   12010:	e24b30e8 	sub	r3, fp, #232	; 0xe8
   12014:	e893000f 	ldm	r3, {r0, r1, r2, r3}
   12018:	ebfffdea 	bl	117c8 <is_mandatory>
   1201c:	e1a03000 	mov	r3, r0
   12020:	e3530000 	cmp	r3, #0
   12024:	0a000009 	beq	12050 <get_setpoint+0x5f0>
   12028:	ed1b7a3e 	vldr	s14, [fp, #-248]	; 0xffffff08
   1202c:	ed5b7a39 	vldr	s15, [fp, #-228]	; 0xffffff1c
   12030:	eeb47a67 	vcmp.f32	s14, s15
   12034:	eef1fa10 	vmrs	APSR_nzcv, fpscr
   12038:	1a00000a 	bne	12068 <get_setpoint+0x608>
   1203c:	ed1b7a3d 	vldr	s14, [fp, #-244]	; 0xffffff0c
   12040:	ed5b7a38 	vldr	s15, [fp, #-224]	; 0xffffff20
   12044:	eeb47a67 	vcmp.f32	s14, s15
   12048:	eef1fa10 	vmrs	APSR_nzcv, fpscr
   1204c:	1a000005 	bne	12068 <get_setpoint+0x608>
   12050:	e51b312c 	ldr	r3, [fp, #-300]	; 0xfffffed4
   12054:	e1d330b8 	ldrh	r3, [r3, #8]
   12058:	e2432001 	sub	r2, r3, #1
   1205c:	e51b3020 	ldr	r3, [fp, #-32]	; 0xffffffe0
   12060:	e1520003 	cmp	r2, r3
   12064:	1a000083 	bne	12278 <get_setpoint+0x818>
   12068:	e51b3020 	ldr	r3, [fp, #-32]	; 0xffffffe0
   1206c:	e3530000 	cmp	r3, #0
   12070:	0a000012 	beq	120c0 <get_setpoint+0x660>
   12074:	e51b3020 	ldr	r3, [fp, #-32]	; 0xffffffe0
   12078:	e2433001 	sub	r3, r3, #1
   1207c:	e51b212c 	ldr	r2, [fp, #-300]	; 0xfffffed4
   12080:	e2833002 	add	r3, r3, #2
   12084:	e1a03103 	lsl	r3, r3, #2
   12088:	e0823003 	add	r3, r2, r3
   1208c:	e5933004 	ldr	r3, [r3, #4]
   12090:	e5933004 	ldr	r3, [r3, #4]
   12094:	e50b3100 	str	r3, [fp, #-256]	; 0xffffff00
   12098:	e51b3020 	ldr	r3, [fp, #-32]	; 0xffffffe0
   1209c:	e2433001 	sub	r3, r3, #1
   120a0:	e51b212c 	ldr	r2, [fp, #-300]	; 0xfffffed4
   120a4:	e2833002 	add	r3, r3, #2
   120a8:	e1a03103 	lsl	r3, r3, #2
   120ac:	e0823003 	add	r3, r2, r3
   120b0:	e5933004 	ldr	r3, [r3, #4]
   120b4:	e5933008 	ldr	r3, [r3, #8]
   120b8:	e50b30fc 	str	r3, [fp, #-252]	; 0xffffff04
   120bc:	ea000003 	b	120d0 <get_setpoint+0x670>
   120c0:	e51b30f8 	ldr	r3, [fp, #-248]	; 0xffffff08
   120c4:	e50b3100 	str	r3, [fp, #-256]	; 0xffffff00
   120c8:	e51b30f4 	ldr	r3, [fp, #-244]	; 0xffffff0c
   120cc:	e50b30fc 	str	r3, [fp, #-252]	; 0xffffff04
   120d0:	e51b20e4 	ldr	r2, [fp, #-228]	; 0xffffff1c
   120d4:	e51b3130 	ldr	r3, [fp, #-304]	; 0xfffffed0
   120d8:	e5832000 	str	r2, [r3]
   120dc:	e51b20e0 	ldr	r2, [fp, #-224]	; 0xffffff20
   120e0:	e51b3130 	ldr	r3, [fp, #-304]	; 0xfffffed0
   120e4:	e5832004 	str	r2, [r3, #4]
   120e8:	ed1b7a39 	vldr	s14, [fp, #-228]	; 0xffffff1c
   120ec:	ed5b7a40 	vldr	s15, [fp, #-256]	; 0xffffff00
   120f0:	ee378a67 	vsub.f32	s16, s14, s15
   120f4:	ed1b7a40 	vldr	s14, [fp, #-256]	; 0xffffff00
   120f8:	ed5b7a39 	vldr	s15, [fp, #-228]	; 0xffffff1c
   120fc:	ee377a67 	vsub.f32	s14, s14, s15
   12100:	ed5b6a40 	vldr	s13, [fp, #-256]	; 0xffffff00
   12104:	ed5b7a39 	vldr	s15, [fp, #-228]	; 0xffffff1c
   12108:	ee767ae7 	vsub.f32	s15, s13, s15
   1210c:	ee277a27 	vmul.f32	s14, s14, s15
   12110:	ed5b6a3f 	vldr	s13, [fp, #-252]	; 0xffffff04
   12114:	ed5b7a38 	vldr	s15, [fp, #-224]	; 0xffffff20
   12118:	ee766ae7 	vsub.f32	s13, s13, s15
   1211c:	ed1b6a3f 	vldr	s12, [fp, #-252]	; 0xffffff04
   12120:	ed5b7a38 	vldr	s15, [fp, #-224]	; 0xffffff20
   12124:	ee767a67 	vsub.f32	s15, s12, s15
   12128:	ee667aa7 	vmul.f32	s15, s13, s15
   1212c:	ee777a27 	vadd.f32	s15, s14, s15
   12130:	eeb77ae7 	vcvt.f64.f32	d7, s15
   12134:	eeb00b47 	vmov.f64	d0, d7
   12138:	ebfff974 	bl	10710 <sqrt@plt>
   1213c:	eeb07b40 	vmov.f64	d7, d0
   12140:	eeb77bc7 	vcvt.f32.f64	s14, d7
   12144:	eec87a07 	vdiv.f32	s15, s16, s14
   12148:	eeb77ae7 	vcvt.f64.f32	d7, s15
   1214c:	eeb00b47 	vmov.f64	d0, d7
   12150:	ebfff959 	bl	106bc <acos@plt>
   12154:	eeb07b40 	vmov.f64	d7, d0
   12158:	eef77bc7 	vcvt.f32.f64	s15, d7
   1215c:	e51b3130 	ldr	r3, [fp, #-304]	; 0xfffffed0
   12160:	edc37a02 	vstr	s15, [r3, #8]
   12164:	ed1b7a3f 	vldr	s14, [fp, #-252]	; 0xffffff04
   12168:	ed5b7a38 	vldr	s15, [fp, #-224]	; 0xffffff20
   1216c:	eeb47ae7 	vcmpe.f32	s14, s15
   12170:	eef1fa10 	vmrs	APSR_nzcv, fpscr
   12174:	da000003 	ble	12188 <get_setpoint+0x728>
   12178:	e51b3130 	ldr	r3, [fp, #-304]	; 0xfffffed0
   1217c:	edd37a02 	vldr	s15, [r3, #8]
   12180:	eef17a67 	vneg.f32	s15, s15
   12184:	ea000001 	b	12190 <get_setpoint+0x730>
   12188:	e51b3130 	ldr	r3, [fp, #-304]	; 0xfffffed0
   1218c:	edd37a02 	vldr	s15, [r3, #8]
   12190:	e51b3130 	ldr	r3, [fp, #-304]	; 0xfffffed0
   12194:	edc37a02 	vstr	s15, [r3, #8]
   12198:	e59f2048 	ldr	r2, [pc, #72]	; 121e8 <get_setpoint+0x788>
   1219c:	e51b3020 	ldr	r3, [fp, #-32]	; 0xffffffe0
   121a0:	e5823000 	str	r3, [r2]
   121a4:	e59f3040 	ldr	r3, [pc, #64]	; 121ec <get_setpoint+0x78c>
   121a8:	e1d330d0 	ldrsb	r3, [r3]
   121ac:	e3530000 	cmp	r3, #0
   121b0:	0a00000f 	beq	121f4 <get_setpoint+0x794>
   121b4:	e59f3034 	ldr	r3, [pc, #52]	; 121f0 <get_setpoint+0x790>
   121b8:	e51b2130 	ldr	r2, [fp, #-304]	; 0xfffffed0
   121bc:	e8920007 	ldm	r2, {r0, r1, r2}
   121c0:	e8830007 	stm	r3, {r0, r1, r2}
   121c4:	e59f3020 	ldr	r3, [pc, #32]	; 121ec <get_setpoint+0x78c>
   121c8:	e3a02000 	mov	r2, #0
   121cc:	e5c32000 	strb	r2, [r3]
   121d0:	e3a03001 	mov	r3, #1
   121d4:	ea000213 	b	12a28 <get_setpoint+0xfc8>
   121d8:	3d4ccccd 	stclcc	12, cr12, [ip, #-820]	; 0xfffffccc
   121dc:	0002709c 	muleq	r2, ip, r0
   121e0:	000270a0 	andeq	r7, r2, r0, lsr #1
   121e4:	00028fe0 	andeq	r8, r2, r0, ror #31
   121e8:	0002708c 	andeq	r7, r2, ip, lsl #1
   121ec:	0002706c 	andeq	r7, r2, ip, rrx
   121f0:	00027090 	muleq	r2, r0, r0
   121f4:	e51b312c 	ldr	r3, [fp, #-300]	; 0xfffffed4
   121f8:	e1d330b8 	ldrh	r3, [r3, #8]
   121fc:	e2432001 	sub	r2, r3, #1
   12200:	e51b3020 	ldr	r3, [fp, #-32]	; 0xffffffe0
   12204:	e1520003 	cmp	r2, r3
   12208:	0a000014 	beq	12260 <get_setpoint+0x800>
   1220c:	e51b3130 	ldr	r3, [fp, #-304]	; 0xfffffed0
   12210:	ed937a00 	vldr	s14, [r3]
   12214:	e51f302c 	ldr	r3, [pc, #-44]	; 121f0 <get_setpoint+0x790>
   12218:	edd37a00 	vldr	s15, [r3]
   1221c:	eeb47a67 	vcmp.f32	s14, s15
   12220:	eef1fa10 	vmrs	APSR_nzcv, fpscr
   12224:	1a00000d 	bne	12260 <get_setpoint+0x800>
   12228:	e51b3130 	ldr	r3, [fp, #-304]	; 0xfffffed0
   1222c:	ed937a01 	vldr	s14, [r3, #4]
   12230:	e51f3048 	ldr	r3, [pc, #-72]	; 121f0 <get_setpoint+0x790>
   12234:	edd37a01 	vldr	s15, [r3, #4]
   12238:	eeb47a67 	vcmp.f32	s14, s15
   1223c:	eef1fa10 	vmrs	APSR_nzcv, fpscr
   12240:	1a000006 	bne	12260 <get_setpoint+0x800>
   12244:	e51b3130 	ldr	r3, [fp, #-304]	; 0xfffffed0
   12248:	ed937a02 	vldr	s14, [r3, #8]
   1224c:	e51f3064 	ldr	r3, [pc, #-100]	; 121f0 <get_setpoint+0x790>
   12250:	edd37a02 	vldr	s15, [r3, #8]
   12254:	eeb47a67 	vcmp.f32	s14, s15
   12258:	eef1fa10 	vmrs	APSR_nzcv, fpscr
   1225c:	0a000005 	beq	12278 <get_setpoint+0x818>
   12260:	e51f3078 	ldr	r3, [pc, #-120]	; 121f0 <get_setpoint+0x790>
   12264:	e51b2130 	ldr	r2, [fp, #-304]	; 0xfffffed0
   12268:	e8920007 	ldm	r2, {r0, r1, r2}
   1226c:	e8830007 	stm	r3, {r0, r1, r2}
   12270:	e3a03002 	mov	r3, #2
   12274:	ea0001eb 	b	12a28 <get_setpoint+0xfc8>
   12278:	e51b3020 	ldr	r3, [fp, #-32]	; 0xffffffe0
   1227c:	e2833001 	add	r3, r3, #1
   12280:	e50b3020 	str	r3, [fp, #-32]	; 0xffffffe0
   12284:	e15b32d5 	ldrsb	r3, [fp, #-37]	; 0xffffffdb
   12288:	e3530000 	cmp	r3, #0
   1228c:	1a000002 	bne	1229c <get_setpoint+0x83c>
   12290:	e15b32d6 	ldrsb	r3, [fp, #-38]	; 0xffffffda
   12294:	e3530000 	cmp	r3, #0
   12298:	0afffe6f 	beq	11c5c <get_setpoint+0x1fc>
   1229c:	e15b32d5 	ldrsb	r3, [fp, #-37]	; 0xffffffdb
   122a0:	e3530000 	cmp	r3, #0
   122a4:	0a00006d 	beq	12460 <get_setpoint+0xa00>
   122a8:	e51b212c 	ldr	r2, [fp, #-300]	; 0xfffffed4
   122ac:	e51b3020 	ldr	r3, [fp, #-32]	; 0xffffffe0
   122b0:	e2833002 	add	r3, r3, #2
   122b4:	e1a03103 	lsl	r3, r3, #2
   122b8:	e0823003 	add	r3, r2, r3
   122bc:	e5934004 	ldr	r4, [r3, #4]
   122c0:	ed5b8a3e 	vldr	s17, [fp, #-248]	; 0xffffff08
   122c4:	ed1b8a3d 	vldr	s16, [fp, #-244]	; 0xffffff0c
   122c8:	e1a0000d 	mov	r0, sp
   122cc:	e2843010 	add	r3, r4, #16
   122d0:	e3a02044 	mov	r2, #68	; 0x44
   122d4:	e1a01003 	mov	r1, r3
   122d8:	ebfff8eb 	bl	1068c <memcpy@plt>
   122dc:	e894000f 	ldm	r4, {r0, r1, r2, r3}
   122e0:	ed1b1a0d 	vldr	s2, [fp, #-52]	; 0xffffffcc
   122e4:	eeb00a68 	vmov.f32	s0, s17
   122e8:	eef00a48 	vmov.f32	s1, s16
   122ec:	eb00094e 	bl	1482c <segPoint_point_node>
   122f0:	eef06a40 	vmov.f32	s13, s0
   122f4:	eeb07a60 	vmov.f32	s14, s1
   122f8:	eef07a41 	vmov.f32	s15, s2
   122fc:	e51b3130 	ldr	r3, [fp, #-304]	; 0xfffffed0
   12300:	edc36a00 	vstr	s13, [r3]
   12304:	ed837a01 	vstr	s14, [r3, #4]
   12308:	edc37a02 	vstr	s15, [r3, #8]
   1230c:	e51f3138 	ldr	r3, [pc, #-312]	; 121dc <get_setpoint+0x77c>
   12310:	e5931000 	ldr	r1, [r3]
   12314:	e51b3130 	ldr	r3, [fp, #-304]	; 0xfffffed0
   12318:	edd35a00 	vldr	s11, [r3]
   1231c:	ed936a01 	vldr	s12, [r3, #4]
   12320:	edd36a02 	vldr	s13, [r3, #8]
   12324:	ed1b7a3e 	vldr	s14, [fp, #-248]	; 0xffffff08
   12328:	ed5b7a3d 	vldr	s15, [fp, #-244]	; 0xffffff0c
   1232c:	e51f3154 	ldr	r3, [pc, #-340]	; 121e0 <get_setpoint+0x780>
   12330:	e51f2154 	ldr	r2, [pc, #-340]	; 121e4 <get_setpoint+0x784>
   12334:	e51b0024 	ldr	r0, [fp, #-36]	; 0xffffffdc
   12338:	eeb01a65 	vmov.f32	s2, s11
   1233c:	eef01a46 	vmov.f32	s3, s12
   12340:	eeb02a66 	vmov.f32	s4, s13
   12344:	eeb00a47 	vmov.f32	s0, s14
   12348:	eef00a67 	vmov.f32	s1, s15
   1234c:	eb0007c0 	bl	14254 <test_intersection_pos>
   12350:	e1a03000 	mov	r3, r0
   12354:	e54b3026 	strb	r3, [fp, #-38]	; 0xffffffda
   12358:	e15b32d6 	ldrsb	r3, [fp, #-38]	; 0xffffffda
   1235c:	e3530000 	cmp	r3, #0
   12360:	1a00003e 	bne	12460 <get_setpoint+0xa00>
   12364:	e51b3020 	ldr	r3, [fp, #-32]	; 0xffffffe0
   12368:	e3530000 	cmp	r3, #0
   1236c:	da00001c 	ble	123e4 <get_setpoint+0x984>
   12370:	e51b3020 	ldr	r3, [fp, #-32]	; 0xffffffe0
   12374:	e2433001 	sub	r3, r3, #1
   12378:	e51b212c 	ldr	r2, [fp, #-300]	; 0xfffffed4
   1237c:	e2833002 	add	r3, r3, #2
   12380:	e1a03103 	lsl	r3, r3, #2
   12384:	e0823003 	add	r3, r2, r3
   12388:	e5934004 	ldr	r4, [r3, #4]
   1238c:	e51b212c 	ldr	r2, [fp, #-300]	; 0xfffffed4
   12390:	e51b3020 	ldr	r3, [fp, #-32]	; 0xffffffe0
   12394:	e2833002 	add	r3, r3, #2
   12398:	e1a03103 	lsl	r3, r3, #2
   1239c:	e0823003 	add	r3, r2, r3
   123a0:	e5933004 	ldr	r3, [r3, #4]
   123a4:	e28d0044 	add	r0, sp, #68	; 0x44
   123a8:	e1a01003 	mov	r1, r3
   123ac:	e3a03054 	mov	r3, #84	; 0x54
   123b0:	e1a02003 	mov	r2, r3
   123b4:	ebfff8b4 	bl	1068c <memcpy@plt>
   123b8:	e1a0000d 	mov	r0, sp
   123bc:	e2843010 	add	r3, r4, #16
   123c0:	e3a02044 	mov	r2, #68	; 0x44
   123c4:	e1a01003 	mov	r1, r3
   123c8:	ebfff8af 	bl	1068c <memcpy@plt>
   123cc:	e894000f 	ldm	r4, {r0, r1, r2, r3}
   123d0:	eb0009df 	bl	14b54 <compute_theta>
   123d4:	eef07a40 	vmov.f32	s15, s0
   123d8:	e51b3130 	ldr	r3, [fp, #-304]	; 0xfffffed0
   123dc:	edc37a02 	vstr	s15, [r3, #8]
   123e0:	ea000012 	b	12430 <get_setpoint+0x9d0>
   123e4:	e51b312c 	ldr	r3, [fp, #-300]	; 0xfffffed4
   123e8:	e593400c 	ldr	r4, [r3, #12]
   123ec:	e51b312c 	ldr	r3, [fp, #-300]	; 0xfffffed4
   123f0:	e5933010 	ldr	r3, [r3, #16]
   123f4:	e28d0044 	add	r0, sp, #68	; 0x44
   123f8:	e1a01003 	mov	r1, r3
   123fc:	e3a03054 	mov	r3, #84	; 0x54
   12400:	e1a02003 	mov	r2, r3
   12404:	ebfff8a0 	bl	1068c <memcpy@plt>
   12408:	e1a0000d 	mov	r0, sp
   1240c:	e2843010 	add	r3, r4, #16
   12410:	e3a02044 	mov	r2, #68	; 0x44
   12414:	e1a01003 	mov	r1, r3
   12418:	ebfff89b 	bl	1068c <memcpy@plt>
   1241c:	e894000f 	ldm	r4, {r0, r1, r2, r3}
   12420:	eb0009cb 	bl	14b54 <compute_theta>
   12424:	eef07a40 	vmov.f32	s15, s0
   12428:	e51b3130 	ldr	r3, [fp, #-304]	; 0xfffffed0
   1242c:	edc37a02 	vstr	s15, [r3, #8]
   12430:	e51f2250 	ldr	r2, [pc, #-592]	; 121e8 <get_setpoint+0x788>
   12434:	e51b3020 	ldr	r3, [fp, #-32]	; 0xffffffe0
   12438:	e5823000 	str	r3, [r2]
   1243c:	e51f3258 	ldr	r3, [pc, #-600]	; 121ec <get_setpoint+0x78c>
   12440:	e3a02000 	mov	r2, #0
   12444:	e5c32000 	strb	r2, [r3]
   12448:	e51f3260 	ldr	r3, [pc, #-608]	; 121f0 <get_setpoint+0x790>
   1244c:	e51b2130 	ldr	r2, [fp, #-304]	; 0xfffffed0
   12450:	e8920007 	ldm	r2, {r0, r1, r2}
   12454:	e8830007 	stm	r3, {r0, r1, r2}
   12458:	e3a03003 	mov	r3, #3
   1245c:	ea000171 	b	12a28 <get_setpoint+0xfc8>
   12460:	e15b32d6 	ldrsb	r3, [fp, #-38]	; 0xffffffda
   12464:	e3530000 	cmp	r3, #0
   12468:	0a00016d 	beq	12a24 <get_setpoint+0xfc4>
   1246c:	e51b30f8 	ldr	r3, [fp, #-248]	; 0xffffff08
   12470:	e50b310c 	str	r3, [fp, #-268]	; 0xfffffef4
   12474:	e51b30f4 	ldr	r3, [fp, #-244]	; 0xffffff0c
   12478:	e50b3108 	str	r3, [fp, #-264]	; 0xfffffef8
   1247c:	e51b212c 	ldr	r2, [fp, #-300]	; 0xfffffed4
   12480:	e51b3020 	ldr	r3, [fp, #-32]	; 0xffffffe0
   12484:	e2833002 	add	r3, r3, #2
   12488:	e1a03103 	lsl	r3, r3, #2
   1248c:	e0823003 	add	r3, r2, r3
   12490:	e5933004 	ldr	r3, [r3, #4]
   12494:	ed937a01 	vldr	s14, [r3, #4]
   12498:	ed5b7a3e 	vldr	s15, [fp, #-248]	; 0xffffff08
   1249c:	ee378a67 	vsub.f32	s16, s14, s15
   124a0:	ed1b7a3e 	vldr	s14, [fp, #-248]	; 0xffffff08
   124a4:	e51b212c 	ldr	r2, [fp, #-300]	; 0xfffffed4
   124a8:	e51b3020 	ldr	r3, [fp, #-32]	; 0xffffffe0
   124ac:	e2833002 	add	r3, r3, #2
   124b0:	e1a03103 	lsl	r3, r3, #2
   124b4:	e0823003 	add	r3, r2, r3
   124b8:	e5933004 	ldr	r3, [r3, #4]
   124bc:	edd37a01 	vldr	s15, [r3, #4]
   124c0:	ee377a67 	vsub.f32	s14, s14, s15
   124c4:	ed5b6a3e 	vldr	s13, [fp, #-248]	; 0xffffff08
   124c8:	e51b212c 	ldr	r2, [fp, #-300]	; 0xfffffed4
   124cc:	e51b3020 	ldr	r3, [fp, #-32]	; 0xffffffe0
   124d0:	e2833002 	add	r3, r3, #2
   124d4:	e1a03103 	lsl	r3, r3, #2
   124d8:	e0823003 	add	r3, r2, r3
   124dc:	e5933004 	ldr	r3, [r3, #4]
   124e0:	edd37a01 	vldr	s15, [r3, #4]
   124e4:	ee767ae7 	vsub.f32	s15, s13, s15
   124e8:	ee277a27 	vmul.f32	s14, s14, s15
   124ec:	ed5b6a3d 	vldr	s13, [fp, #-244]	; 0xffffff0c
   124f0:	e51b212c 	ldr	r2, [fp, #-300]	; 0xfffffed4
   124f4:	e51b3020 	ldr	r3, [fp, #-32]	; 0xffffffe0
   124f8:	e2833002 	add	r3, r3, #2
   124fc:	e1a03103 	lsl	r3, r3, #2
   12500:	e0823003 	add	r3, r2, r3
   12504:	e5933004 	ldr	r3, [r3, #4]
   12508:	edd37a02 	vldr	s15, [r3, #8]
   1250c:	ee766ae7 	vsub.f32	s13, s13, s15
   12510:	ed1b6a3d 	vldr	s12, [fp, #-244]	; 0xffffff0c
   12514:	e51b212c 	ldr	r2, [fp, #-300]	; 0xfffffed4
   12518:	e51b3020 	ldr	r3, [fp, #-32]	; 0xffffffe0
   1251c:	e2833002 	add	r3, r3, #2
   12520:	e1a03103 	lsl	r3, r3, #2
   12524:	e0823003 	add	r3, r2, r3
   12528:	e5933004 	ldr	r3, [r3, #4]
   1252c:	edd37a02 	vldr	s15, [r3, #8]
   12530:	ee767a67 	vsub.f32	s15, s12, s15
   12534:	ee667aa7 	vmul.f32	s15, s13, s15
   12538:	ee777a27 	vadd.f32	s15, s14, s15
   1253c:	eeb77ae7 	vcvt.f64.f32	d7, s15
   12540:	eeb00b47 	vmov.f64	d0, d7
   12544:	ebfff871 	bl	10710 <sqrt@plt>
   12548:	eeb07b40 	vmov.f64	d7, d0
   1254c:	eeb77bc7 	vcvt.f32.f64	s14, d7
   12550:	eec87a07 	vdiv.f32	s15, s16, s14
   12554:	eeb77ae7 	vcvt.f64.f32	d7, s15
   12558:	eeb00b47 	vmov.f64	d0, d7
   1255c:	ebfff856 	bl	106bc <acos@plt>
   12560:	eeb07b40 	vmov.f64	d7, d0
   12564:	eef77bc7 	vcvt.f32.f64	s15, d7
   12568:	ed4b7a41 	vstr	s15, [fp, #-260]	; 0xfffffefc
   1256c:	ed1b7a3d 	vldr	s14, [fp, #-244]	; 0xffffff0c
   12570:	e51b212c 	ldr	r2, [fp, #-300]	; 0xfffffed4
   12574:	e51b3020 	ldr	r3, [fp, #-32]	; 0xffffffe0
   12578:	e2833002 	add	r3, r3, #2
   1257c:	e1a03103 	lsl	r3, r3, #2
   12580:	e0823003 	add	r3, r2, r3
   12584:	e5933004 	ldr	r3, [r3, #4]
   12588:	edd37a02 	vldr	s15, [r3, #8]
   1258c:	eeb47ae7 	vcmpe.f32	s14, s15
   12590:	eef1fa10 	vmrs	APSR_nzcv, fpscr
   12594:	da000002 	ble	125a4 <get_setpoint+0xb44>
   12598:	ed5b7a41 	vldr	s15, [fp, #-260]	; 0xfffffefc
   1259c:	eef17a67 	vneg.f32	s15, s15
   125a0:	ed4b7a41 	vstr	s15, [fp, #-260]	; 0xfffffefc
   125a4:	e51b212c 	ldr	r2, [fp, #-300]	; 0xfffffed4
   125a8:	e51b3020 	ldr	r3, [fp, #-32]	; 0xffffffe0
   125ac:	e2833002 	add	r3, r3, #2
   125b0:	e1a03103 	lsl	r3, r3, #2
   125b4:	e0823003 	add	r3, r2, r3
   125b8:	e5934004 	ldr	r4, [r3, #4]
   125bc:	ed1b9a43 	vldr	s18, [fp, #-268]	; 0xfffffef4
   125c0:	ed5b8a42 	vldr	s17, [fp, #-264]	; 0xfffffef8
   125c4:	ed1b8a41 	vldr	s16, [fp, #-260]	; 0xfffffefc
   125c8:	e1a0000d 	mov	r0, sp
   125cc:	e2843010 	add	r3, r4, #16
   125d0:	e3a02044 	mov	r2, #68	; 0x44
   125d4:	e1a01003 	mov	r1, r3
   125d8:	ebfff82b 	bl	1068c <memcpy@plt>
   125dc:	e894000f 	ldm	r4, {r0, r1, r2, r3}
   125e0:	eeb00a49 	vmov.f32	s0, s18
   125e4:	eef00a68 	vmov.f32	s1, s17
   125e8:	eeb01a48 	vmov.f32	s2, s16
   125ec:	eb0008f8 	bl	149d4 <is_collision_right>
   125f0:	e1a03000 	mov	r3, r0
   125f4:	e3530000 	cmp	r3, #0
   125f8:	0a000002 	beq	12608 <get_setpoint+0xba8>
   125fc:	e51f3424 	ldr	r3, [pc, #-1060]	; 121e0 <get_setpoint+0x780>
   12600:	e50b302c 	str	r3, [fp, #-44]	; 0xffffffd4
   12604:	ea000001 	b	12610 <get_setpoint+0xbb0>
   12608:	e51f342c 	ldr	r3, [pc, #-1068]	; 121e4 <get_setpoint+0x784>
   1260c:	e50b302c 	str	r3, [fp, #-44]	; 0xffffffd4
   12610:	e51b3020 	ldr	r3, [fp, #-32]	; 0xffffffe0
   12614:	e3530000 	cmp	r3, #0
   12618:	da00005f 	ble	1279c <get_setpoint+0xd3c>
   1261c:	e51b3020 	ldr	r3, [fp, #-32]	; 0xffffffe0
   12620:	e243321e 	sub	r3, r3, #-536870911	; 0xe0000001
   12624:	e1a03183 	lsl	r3, r3, #3
   12628:	e51b202c 	ldr	r2, [fp, #-44]	; 0xffffffd4
   1262c:	e0823003 	add	r3, r2, r3
   12630:	ed936a00 	vldr	s12, [r3]
   12634:	edd36a01 	vldr	s13, [r3, #4]
   12638:	ed1b7a3e 	vldr	s14, [fp, #-248]	; 0xffffff08
   1263c:	ed5b7a3d 	vldr	s15, [fp, #-244]	; 0xffffff0c
   12640:	eeb01a46 	vmov.f32	s2, s12
   12644:	eef01a66 	vmov.f32	s3, s13
   12648:	eeb00a47 	vmov.f32	s0, s14
   1264c:	eef00a67 	vmov.f32	s1, s15
   12650:	eb0003dc 	bl	135c8 <segment>
   12654:	eeb06a40 	vmov.f32	s12, s0
   12658:	eef06a60 	vmov.f32	s13, s1
   1265c:	eeb07a41 	vmov.f32	s14, s2
   12660:	eef07a61 	vmov.f32	s15, s3
   12664:	ed0b6a25 	vstr	s12, [fp, #-148]	; 0xffffff6c
   12668:	ed4b6a24 	vstr	s13, [fp, #-144]	; 0xffffff70
   1266c:	ed0b7a23 	vstr	s14, [fp, #-140]	; 0xffffff74
   12670:	ed4b7a22 	vstr	s15, [fp, #-136]	; 0xffffff78
   12674:	e51b3020 	ldr	r3, [fp, #-32]	; 0xffffffe0
   12678:	e2433001 	sub	r3, r3, #1
   1267c:	e51b212c 	ldr	r2, [fp, #-300]	; 0xfffffed4
   12680:	e2833002 	add	r3, r3, #2
   12684:	e1a03103 	lsl	r3, r3, #2
   12688:	e0823003 	add	r3, r2, r3
   1268c:	e5934004 	ldr	r4, [r3, #4]
   12690:	e1a0000d 	mov	r0, sp
   12694:	e2843010 	add	r3, r4, #16
   12698:	e3a02044 	mov	r2, #68	; 0x44
   1269c:	e1a01003 	mov	r1, r3
   126a0:	ebfff7f9 	bl	1068c <memcpy@plt>
   126a4:	e894000f 	ldm	r4, {r0, r1, r2, r3}
   126a8:	eb000911 	bl	14af4 <node_to_point>
   126ac:	eeb07a40 	vmov.f32	s14, s0
   126b0:	eef07a60 	vmov.f32	s15, s1
   126b4:	ed0b7a21 	vstr	s14, [fp, #-132]	; 0xffffff7c
   126b8:	ed4b7a20 	vstr	s15, [fp, #-128]	; 0xffffff80
   126bc:	e51b212c 	ldr	r2, [fp, #-300]	; 0xfffffed4
   126c0:	e51b3020 	ldr	r3, [fp, #-32]	; 0xffffffe0
   126c4:	e2833002 	add	r3, r3, #2
   126c8:	e1a03103 	lsl	r3, r3, #2
   126cc:	e0823003 	add	r3, r2, r3
   126d0:	e5934004 	ldr	r4, [r3, #4]
   126d4:	e1a0000d 	mov	r0, sp
   126d8:	e2843010 	add	r3, r4, #16
   126dc:	e3a02044 	mov	r2, #68	; 0x44
   126e0:	e1a01003 	mov	r1, r3
   126e4:	ebfff7e8 	bl	1068c <memcpy@plt>
   126e8:	e894000f 	ldm	r4, {r0, r1, r2, r3}
   126ec:	eb000900 	bl	14af4 <node_to_point>
   126f0:	eeb07a40 	vmov.f32	s14, s0
   126f4:	eef07a60 	vmov.f32	s15, s1
   126f8:	ed0b7a1f 	vstr	s14, [fp, #-124]	; 0xffffff84
   126fc:	ed4b7a1e 	vstr	s15, [fp, #-120]	; 0xffffff88
   12700:	ed1b6a1f 	vldr	s12, [fp, #-124]	; 0xffffff84
   12704:	ed5b6a1e 	vldr	s13, [fp, #-120]	; 0xffffff88
   12708:	ed1b7a21 	vldr	s14, [fp, #-132]	; 0xffffff7c
   1270c:	ed5b7a20 	vldr	s15, [fp, #-128]	; 0xffffff80
   12710:	eeb01a46 	vmov.f32	s2, s12
   12714:	eef01a66 	vmov.f32	s3, s13
   12718:	eeb00a47 	vmov.f32	s0, s14
   1271c:	eef00a67 	vmov.f32	s1, s15
   12720:	eb0003a8 	bl	135c8 <segment>
   12724:	eeb06a40 	vmov.f32	s12, s0
   12728:	eef06a60 	vmov.f32	s13, s1
   1272c:	eeb07a41 	vmov.f32	s14, s2
   12730:	eef07a61 	vmov.f32	s15, s3
   12734:	ed0b6a1d 	vstr	s12, [fp, #-116]	; 0xffffff8c
   12738:	ed4b6a1c 	vstr	s13, [fp, #-112]	; 0xffffff90
   1273c:	ed0b7a1b 	vstr	s14, [fp, #-108]	; 0xffffff94
   12740:	ed4b7a1a 	vstr	s15, [fp, #-104]	; 0xffffff98
   12744:	e24b2f46 	sub	r2, fp, #280	; 0x118
   12748:	e24b3f45 	sub	r3, fp, #276	; 0x114
   1274c:	ed1b4a1d 	vldr	s8, [fp, #-116]	; 0xffffff8c
   12750:	ed5b4a1c 	vldr	s9, [fp, #-112]	; 0xffffff90
   12754:	ed1b5a1b 	vldr	s10, [fp, #-108]	; 0xffffff94
   12758:	ed5b5a1a 	vldr	s11, [fp, #-104]	; 0xffffff98
   1275c:	ed1b6a25 	vldr	s12, [fp, #-148]	; 0xffffff6c
   12760:	ed5b6a24 	vldr	s13, [fp, #-144]	; 0xffffff70
   12764:	ed1b7a23 	vldr	s14, [fp, #-140]	; 0xffffff74
   12768:	ed5b7a22 	vldr	s15, [fp, #-136]	; 0xffffff78
   1276c:	e1a01002 	mov	r1, r2
   12770:	e1a00003 	mov	r0, r3
   12774:	eeb02a44 	vmov.f32	s4, s8
   12778:	eef02a64 	vmov.f32	s5, s9
   1277c:	eeb03a45 	vmov.f32	s6, s10
   12780:	eef03a65 	vmov.f32	s7, s11
   12784:	eeb00a46 	vmov.f32	s0, s12
   12788:	eef00a66 	vmov.f32	s1, s13
   1278c:	eeb01a47 	vmov.f32	s2, s14
   12790:	eef01a67 	vmov.f32	s3, s15
   12794:	eb0004d4 	bl	13aec <get_intersection>
   12798:	ea000055 	b	128f4 <get_setpoint+0xe94>
   1279c:	e51b302c 	ldr	r3, [fp, #-44]	; 0xffffffd4
   127a0:	ed936a00 	vldr	s12, [r3]
   127a4:	edd36a01 	vldr	s13, [r3, #4]
   127a8:	ed1b7a3e 	vldr	s14, [fp, #-248]	; 0xffffff08
   127ac:	ed5b7a3d 	vldr	s15, [fp, #-244]	; 0xffffff0c
   127b0:	eeb01a46 	vmov.f32	s2, s12
   127b4:	eef01a66 	vmov.f32	s3, s13
   127b8:	eeb00a47 	vmov.f32	s0, s14
   127bc:	eef00a67 	vmov.f32	s1, s15
   127c0:	eb000380 	bl	135c8 <segment>
   127c4:	eeb06a40 	vmov.f32	s12, s0
   127c8:	eef06a60 	vmov.f32	s13, s1
   127cc:	eeb07a41 	vmov.f32	s14, s2
   127d0:	eef07a61 	vmov.f32	s15, s3
   127d4:	ed0b6a19 	vstr	s12, [fp, #-100]	; 0xffffff9c
   127d8:	ed4b6a18 	vstr	s13, [fp, #-96]	; 0xffffffa0
   127dc:	ed0b7a17 	vstr	s14, [fp, #-92]	; 0xffffffa4
   127e0:	ed4b7a16 	vstr	s15, [fp, #-88]	; 0xffffffa8
   127e4:	e51b312c 	ldr	r3, [fp, #-300]	; 0xfffffed4
   127e8:	e593400c 	ldr	r4, [r3, #12]
   127ec:	e1a0000d 	mov	r0, sp
   127f0:	e2843010 	add	r3, r4, #16
   127f4:	e3a02044 	mov	r2, #68	; 0x44
   127f8:	e1a01003 	mov	r1, r3
   127fc:	ebfff7a2 	bl	1068c <memcpy@plt>
   12800:	e894000f 	ldm	r4, {r0, r1, r2, r3}
   12804:	eb0008ba 	bl	14af4 <node_to_point>
   12808:	eeb07a40 	vmov.f32	s14, s0
   1280c:	eef07a60 	vmov.f32	s15, s1
   12810:	ed0b7a15 	vstr	s14, [fp, #-84]	; 0xffffffac
   12814:	ed4b7a14 	vstr	s15, [fp, #-80]	; 0xffffffb0
   12818:	e51b212c 	ldr	r2, [fp, #-300]	; 0xfffffed4
   1281c:	e51b3020 	ldr	r3, [fp, #-32]	; 0xffffffe0
   12820:	e2833002 	add	r3, r3, #2
   12824:	e1a03103 	lsl	r3, r3, #2
   12828:	e0823003 	add	r3, r2, r3
   1282c:	e5934004 	ldr	r4, [r3, #4]
   12830:	e1a0000d 	mov	r0, sp
   12834:	e2843010 	add	r3, r4, #16
   12838:	e3a02044 	mov	r2, #68	; 0x44
   1283c:	e1a01003 	mov	r1, r3
   12840:	ebfff791 	bl	1068c <memcpy@plt>
   12844:	e894000f 	ldm	r4, {r0, r1, r2, r3}
   12848:	eb0008a9 	bl	14af4 <node_to_point>
   1284c:	eeb07a40 	vmov.f32	s14, s0
   12850:	eef07a60 	vmov.f32	s15, s1
   12854:	ed0b7a13 	vstr	s14, [fp, #-76]	; 0xffffffb4
   12858:	ed4b7a12 	vstr	s15, [fp, #-72]	; 0xffffffb8
   1285c:	ed1b6a13 	vldr	s12, [fp, #-76]	; 0xffffffb4
   12860:	ed5b6a12 	vldr	s13, [fp, #-72]	; 0xffffffb8
   12864:	ed1b7a15 	vldr	s14, [fp, #-84]	; 0xffffffac
   12868:	ed5b7a14 	vldr	s15, [fp, #-80]	; 0xffffffb0
   1286c:	eeb01a46 	vmov.f32	s2, s12
   12870:	eef01a66 	vmov.f32	s3, s13
   12874:	eeb00a47 	vmov.f32	s0, s14
   12878:	eef00a67 	vmov.f32	s1, s15
   1287c:	eb000351 	bl	135c8 <segment>
   12880:	eeb06a40 	vmov.f32	s12, s0
   12884:	eef06a60 	vmov.f32	s13, s1
   12888:	eeb07a41 	vmov.f32	s14, s2
   1288c:	eef07a61 	vmov.f32	s15, s3
   12890:	ed0b6a11 	vstr	s12, [fp, #-68]	; 0xffffffbc
   12894:	ed4b6a10 	vstr	s13, [fp, #-64]	; 0xffffffc0
   12898:	ed0b7a0f 	vstr	s14, [fp, #-60]	; 0xffffffc4
   1289c:	ed4b7a0e 	vstr	s15, [fp, #-56]	; 0xffffffc8
   128a0:	e24b2f46 	sub	r2, fp, #280	; 0x118
   128a4:	e24b3f45 	sub	r3, fp, #276	; 0x114
   128a8:	ed1b4a11 	vldr	s8, [fp, #-68]	; 0xffffffbc
   128ac:	ed5b4a10 	vldr	s9, [fp, #-64]	; 0xffffffc0
   128b0:	ed1b5a0f 	vldr	s10, [fp, #-60]	; 0xffffffc4
   128b4:	ed5b5a0e 	vldr	s11, [fp, #-56]	; 0xffffffc8
   128b8:	ed1b6a19 	vldr	s12, [fp, #-100]	; 0xffffff9c
   128bc:	ed5b6a18 	vldr	s13, [fp, #-96]	; 0xffffffa0
   128c0:	ed1b7a17 	vldr	s14, [fp, #-92]	; 0xffffffa4
   128c4:	ed5b7a16 	vldr	s15, [fp, #-88]	; 0xffffffa8
   128c8:	e1a01002 	mov	r1, r2
   128cc:	e1a00003 	mov	r0, r3
   128d0:	eeb02a44 	vmov.f32	s4, s8
   128d4:	eef02a64 	vmov.f32	s5, s9
   128d8:	eeb03a45 	vmov.f32	s6, s10
   128dc:	eef03a65 	vmov.f32	s7, s11
   128e0:	eeb00a46 	vmov.f32	s0, s12
   128e4:	eef00a66 	vmov.f32	s1, s13
   128e8:	eeb01a47 	vmov.f32	s2, s14
   128ec:	eef01a67 	vmov.f32	s3, s15
   128f0:	eb00047d 	bl	13aec <get_intersection>
   128f4:	e24b3f46 	sub	r3, fp, #280	; 0x118
   128f8:	e1d330d0 	ldrsb	r3, [r3]
   128fc:	e3530000 	cmp	r3, #0
   12900:	1a000004 	bne	12918 <get_setpoint+0xeb8>
   12904:	e24b3f45 	sub	r3, fp, #276	; 0x114
   12908:	e2433003 	sub	r3, r3, #3
   1290c:	e1d330d0 	ldrsb	r3, [r3]
   12910:	e3530000 	cmp	r3, #0
   12914:	1a000042 	bne	12a24 <get_setpoint+0xfc4>
   12918:	e51b2114 	ldr	r2, [fp, #-276]	; 0xfffffeec
   1291c:	e51b3130 	ldr	r3, [fp, #-304]	; 0xfffffed0
   12920:	e5832000 	str	r2, [r3]
   12924:	e51b2110 	ldr	r2, [fp, #-272]	; 0xfffffef0
   12928:	e51b3130 	ldr	r3, [fp, #-304]	; 0xfffffed0
   1292c:	e5832004 	str	r2, [r3, #4]
   12930:	e51b3020 	ldr	r3, [fp, #-32]	; 0xffffffe0
   12934:	e3530000 	cmp	r3, #0
   12938:	da00001a 	ble	129a8 <get_setpoint+0xf48>
   1293c:	e51b3020 	ldr	r3, [fp, #-32]	; 0xffffffe0
   12940:	e2433001 	sub	r3, r3, #1
   12944:	e51b212c 	ldr	r2, [fp, #-300]	; 0xfffffed4
   12948:	e2833002 	add	r3, r3, #2
   1294c:	e1a03103 	lsl	r3, r3, #2
   12950:	e0823003 	add	r3, r2, r3
   12954:	e5934004 	ldr	r4, [r3, #4]
   12958:	e51b212c 	ldr	r2, [fp, #-300]	; 0xfffffed4
   1295c:	e51b3020 	ldr	r3, [fp, #-32]	; 0xffffffe0
   12960:	e2833002 	add	r3, r3, #2
   12964:	e1a03103 	lsl	r3, r3, #2
   12968:	e0823003 	add	r3, r2, r3
   1296c:	e5933004 	ldr	r3, [r3, #4]
   12970:	e28d0044 	add	r0, sp, #68	; 0x44
   12974:	e1a01003 	mov	r1, r3
   12978:	e3a03054 	mov	r3, #84	; 0x54
   1297c:	e1a02003 	mov	r2, r3
   12980:	ebfff741 	bl	1068c <memcpy@plt>
   12984:	e1a0000d 	mov	r0, sp
   12988:	e2843010 	add	r3, r4, #16
   1298c:	e3a02044 	mov	r2, #68	; 0x44
   12990:	e1a01003 	mov	r1, r3
   12994:	ebfff73c 	bl	1068c <memcpy@plt>
   12998:	e894000f 	ldm	r4, {r0, r1, r2, r3}
   1299c:	eb00086c 	bl	14b54 <compute_theta>
   129a0:	eef07a40 	vmov.f32	s15, s0
   129a4:	ea000010 	b	129ec <get_setpoint+0xf8c>
   129a8:	e51b312c 	ldr	r3, [fp, #-300]	; 0xfffffed4
   129ac:	e593400c 	ldr	r4, [r3, #12]
   129b0:	e51b312c 	ldr	r3, [fp, #-300]	; 0xfffffed4
   129b4:	e5933010 	ldr	r3, [r3, #16]
   129b8:	e28d0044 	add	r0, sp, #68	; 0x44
   129bc:	e1a01003 	mov	r1, r3
   129c0:	e3a03054 	mov	r3, #84	; 0x54
   129c4:	e1a02003 	mov	r2, r3
   129c8:	ebfff72f 	bl	1068c <memcpy@plt>
   129cc:	e1a0000d 	mov	r0, sp
   129d0:	e2843010 	add	r3, r4, #16
   129d4:	e3a02044 	mov	r2, #68	; 0x44
   129d8:	e1a01003 	mov	r1, r3
   129dc:	ebfff72a 	bl	1068c <memcpy@plt>
   129e0:	e894000f 	ldm	r4, {r0, r1, r2, r3}
   129e4:	eb00085a 	bl	14b54 <compute_theta>
   129e8:	eef07a40 	vmov.f32	s15, s0
   129ec:	e51b3130 	ldr	r3, [fp, #-304]	; 0xfffffed0
   129f0:	edc37a02 	vstr	s15, [r3, #8]
   129f4:	e51f2814 	ldr	r2, [pc, #-2068]	; 121e8 <get_setpoint+0x788>
   129f8:	e51b3020 	ldr	r3, [fp, #-32]	; 0xffffffe0
   129fc:	e5823000 	str	r3, [r2]
   12a00:	e51f381c 	ldr	r3, [pc, #-2076]	; 121ec <get_setpoint+0x78c>
   12a04:	e3a02000 	mov	r2, #0
   12a08:	e5c32000 	strb	r2, [r3]
   12a0c:	e51f3824 	ldr	r3, [pc, #-2084]	; 121f0 <get_setpoint+0x790>
   12a10:	e51b2130 	ldr	r2, [fp, #-304]	; 0xfffffed0
   12a14:	e8920007 	ldm	r2, {r0, r1, r2}
   12a18:	e8830007 	stm	r3, {r0, r1, r2}
   12a1c:	e3a03004 	mov	r3, #4
   12a20:	ea000000 	b	12a28 <get_setpoint+0xfc8>
   12a24:	e3e03000 	mvn	r3, #0
   12a28:	e1a00003 	mov	r0, r3
   12a2c:	e24bd01c 	sub	sp, fp, #28
   12a30:	ecbd8b04 	vpop	{d8-d9}
   12a34:	e8bd8830 	pop	{r4, r5, fp, pc}

00012a38 <clamp_v_to_sp>:
   12a38:	e92d4800 	push	{fp, lr}
   12a3c:	e28db004 	add	fp, sp, #4
   12a40:	e24dd028 	sub	sp, sp, #40	; 0x28
   12a44:	eeb05a40 	vmov.f32	s10, s0
   12a48:	eef05a60 	vmov.f32	s11, s1
   12a4c:	eeb06a41 	vmov.f32	s12, s2
   12a50:	eef06a61 	vmov.f32	s13, s3
   12a54:	eeb07a42 	vmov.f32	s14, s4
   12a58:	eef07a62 	vmov.f32	s15, s5
   12a5c:	e50b0028 	str	r0, [fp, #-40]	; 0xffffffd8
   12a60:	ed0b5a06 	vstr	s10, [fp, #-24]	; 0xffffffe8
   12a64:	ed4b5a05 	vstr	s11, [fp, #-20]	; 0xffffffec
   12a68:	ed0b6a04 	vstr	s12, [fp, #-16]
   12a6c:	ed4b6a09 	vstr	s13, [fp, #-36]	; 0xffffffdc
   12a70:	ed0b7a08 	vstr	s14, [fp, #-32]	; 0xffffffe0
   12a74:	ed4b7a07 	vstr	s15, [fp, #-28]	; 0xffffffe4
   12a78:	ed1b7a06 	vldr	s14, [fp, #-24]	; 0xffffffe8
   12a7c:	ed5b7a09 	vldr	s15, [fp, #-36]	; 0xffffffdc
   12a80:	ee377a67 	vsub.f32	s14, s14, s15
   12a84:	ed5b6a06 	vldr	s13, [fp, #-24]	; 0xffffffe8
   12a88:	ed5b7a09 	vldr	s15, [fp, #-36]	; 0xffffffdc
   12a8c:	ee767ae7 	vsub.f32	s15, s13, s15
   12a90:	ee277a27 	vmul.f32	s14, s14, s15
   12a94:	ed5b6a05 	vldr	s13, [fp, #-20]	; 0xffffffec
   12a98:	ed5b7a08 	vldr	s15, [fp, #-32]	; 0xffffffe0
   12a9c:	ee766ae7 	vsub.f32	s13, s13, s15
   12aa0:	ed1b6a05 	vldr	s12, [fp, #-20]	; 0xffffffec
   12aa4:	ed5b7a08 	vldr	s15, [fp, #-32]	; 0xffffffe0
   12aa8:	ee767a67 	vsub.f32	s15, s12, s15
   12aac:	ee667aa7 	vmul.f32	s15, s13, s15
   12ab0:	ee777a27 	vadd.f32	s15, s14, s15
   12ab4:	eeb77ae7 	vcvt.f64.f32	d7, s15
   12ab8:	eeb00b47 	vmov.f64	d0, d7
   12abc:	ebfff713 	bl	10710 <sqrt@plt>
   12ac0:	eeb07b40 	vmov.f64	d7, d0
   12ac4:	eef77bc7 	vcvt.f32.f64	s15, d7
   12ac8:	ed4b7a02 	vstr	s15, [fp, #-8]
   12acc:	e51b3028 	ldr	r3, [fp, #-40]	; 0xffffffd8
   12ad0:	ed937a00 	vldr	s14, [r3]
   12ad4:	ed5b7a02 	vldr	s15, [fp, #-8]
   12ad8:	eddf6a10 	vldr	s13, [pc, #64]	; 12b20 <clamp_v_to_sp+0xe8>
   12adc:	ee676aa6 	vmul.f32	s13, s15, s13
   12ae0:	ed9f6a0f 	vldr	s12, [pc, #60]	; 12b24 <clamp_v_to_sp+0xec>
   12ae4:	eec67a86 	vdiv.f32	s15, s13, s12
   12ae8:	eeb47ae7 	vcmpe.f32	s14, s15
   12aec:	eef1fa10 	vmrs	APSR_nzcv, fpscr
   12af0:	ca000000 	bgt	12af8 <clamp_v_to_sp+0xc0>
   12af4:	ea000006 	b	12b14 <clamp_v_to_sp+0xdc>
   12af8:	ed5b7a02 	vldr	s15, [fp, #-8]
   12afc:	ed9f7a07 	vldr	s14, [pc, #28]	; 12b20 <clamp_v_to_sp+0xe8>
   12b00:	ee277a87 	vmul.f32	s14, s15, s14
   12b04:	eddf6a06 	vldr	s13, [pc, #24]	; 12b24 <clamp_v_to_sp+0xec>
   12b08:	eec77a26 	vdiv.f32	s15, s14, s13
   12b0c:	e51b3028 	ldr	r3, [fp, #-40]	; 0xffffffd8
   12b10:	edc37a00 	vstr	s15, [r3]
   12b14:	e1a00000 	nop			; (mov r0, r0)
   12b18:	e24bd004 	sub	sp, fp, #4
   12b1c:	e8bd8800 	pop	{fp, pc}
   12b20:	447a0000 	ldrbtmi	r0, [sl], #-0
   12b24:	42c80000 	sbcmi	r0, r8, #0

00012b28 <com_tracking>:
   12b28:	e92d4800 	push	{fp, lr}
   12b2c:	e28db004 	add	fp, sp, #4
   12b30:	e24dd030 	sub	sp, sp, #48	; 0x30
   12b34:	eeb05a40 	vmov.f32	s10, s0
   12b38:	eef05a60 	vmov.f32	s11, s1
   12b3c:	eeb06a41 	vmov.f32	s12, s2
   12b40:	eef06a61 	vmov.f32	s13, s3
   12b44:	eeb07a42 	vmov.f32	s14, s4
   12b48:	eef07a62 	vmov.f32	s15, s5
   12b4c:	e50b0030 	str	r0, [fp, #-48]	; 0xffffffd0
   12b50:	e50b1034 	str	r1, [fp, #-52]	; 0xffffffcc
   12b54:	ed0b5a08 	vstr	s10, [fp, #-32]	; 0xffffffe0
   12b58:	ed4b5a07 	vstr	s11, [fp, #-28]	; 0xffffffe4
   12b5c:	ed0b6a06 	vstr	s12, [fp, #-24]	; 0xffffffe8
   12b60:	ed4b6a0b 	vstr	s13, [fp, #-44]	; 0xffffffd4
   12b64:	ed0b7a0a 	vstr	s14, [fp, #-40]	; 0xffffffd8
   12b68:	ed4b7a09 	vstr	s15, [fp, #-36]	; 0xffffffdc
   12b6c:	e59f3144 	ldr	r3, [pc, #324]	; 12cb8 <com_tracking+0x190>
   12b70:	e1d330d0 	ldrsb	r3, [r3]
   12b74:	e3530000 	cmp	r3, #0
   12b78:	0a000007 	beq	12b9c <com_tracking+0x74>
   12b7c:	e59f3138 	ldr	r3, [pc, #312]	; 12cbc <com_tracking+0x194>
   12b80:	e1a0c003 	mov	ip, r3
   12b84:	e24b3020 	sub	r3, fp, #32
   12b88:	e8930007 	ldm	r3, {r0, r1, r2}
   12b8c:	e88c0007 	stm	ip, {r0, r1, r2}
   12b90:	e59f3120 	ldr	r3, [pc, #288]	; 12cb8 <com_tracking+0x190>
   12b94:	e3a02000 	mov	r2, #0
   12b98:	e5c32000 	strb	r2, [r3]
   12b9c:	e24b3010 	sub	r3, fp, #16
   12ba0:	ed1b5a0b 	vldr	s10, [fp, #-44]	; 0xffffffd4
   12ba4:	ed5b5a0a 	vldr	s11, [fp, #-40]	; 0xffffffd8
   12ba8:	ed1b6a09 	vldr	s12, [fp, #-36]	; 0xffffffdc
   12bac:	ed5b6a08 	vldr	s13, [fp, #-32]	; 0xffffffe0
   12bb0:	ed1b7a07 	vldr	s14, [fp, #-28]	; 0xffffffe4
   12bb4:	ed5b7a06 	vldr	s15, [fp, #-24]	; 0xffffffe8
   12bb8:	e1a00003 	mov	r0, r3
   12bbc:	eef01a45 	vmov.f32	s3, s10
   12bc0:	eeb02a65 	vmov.f32	s4, s11
   12bc4:	eef02a46 	vmov.f32	s5, s12
   12bc8:	eeb00a66 	vmov.f32	s0, s13
   12bcc:	eef00a47 	vmov.f32	s1, s14
   12bd0:	eeb01a67 	vmov.f32	s2, s15
   12bd4:	ebfff788 	bl	109fc <get_error_vector>
   12bd8:	e59f30dc 	ldr	r3, [pc, #220]	; 12cbc <com_tracking+0x194>
   12bdc:	ed935a00 	vldr	s10, [r3]
   12be0:	edd35a01 	vldr	s11, [r3, #4]
   12be4:	ed936a02 	vldr	s12, [r3, #8]
   12be8:	ed5b6a0b 	vldr	s13, [fp, #-44]	; 0xffffffd4
   12bec:	ed1b7a0a 	vldr	s14, [fp, #-40]	; 0xffffffd8
   12bf0:	ed5b7a09 	vldr	s15, [fp, #-36]	; 0xffffffdc
   12bf4:	e59f10c4 	ldr	r1, [pc, #196]	; 12cc0 <com_tracking+0x198>
   12bf8:	e59f00c4 	ldr	r0, [pc, #196]	; 12cc4 <com_tracking+0x19c>
   12bfc:	eef01a45 	vmov.f32	s3, s10
   12c00:	eeb02a65 	vmov.f32	s4, s11
   12c04:	eef02a46 	vmov.f32	s5, s12
   12c08:	eeb00a66 	vmov.f32	s0, s13
   12c0c:	eef00a47 	vmov.f32	s1, s14
   12c10:	eeb01a67 	vmov.f32	s2, s15
   12c14:	ebfff7c5 	bl	10b30 <get_ref_speed>
   12c18:	ed1b5a0b 	vldr	s10, [fp, #-44]	; 0xffffffd4
   12c1c:	ed5b5a0a 	vldr	s11, [fp, #-40]	; 0xffffffd8
   12c20:	ed1b6a09 	vldr	s12, [fp, #-36]	; 0xffffffdc
   12c24:	ed5b6a08 	vldr	s13, [fp, #-32]	; 0xffffffe0
   12c28:	ed1b7a07 	vldr	s14, [fp, #-28]	; 0xffffffe4
   12c2c:	ed5b7a06 	vldr	s15, [fp, #-24]	; 0xffffffe8
   12c30:	e59f008c 	ldr	r0, [pc, #140]	; 12cc4 <com_tracking+0x19c>
   12c34:	eef01a45 	vmov.f32	s3, s10
   12c38:	eeb02a65 	vmov.f32	s4, s11
   12c3c:	eef02a46 	vmov.f32	s5, s12
   12c40:	eeb00a66 	vmov.f32	s0, s13
   12c44:	eef00a47 	vmov.f32	s1, s14
   12c48:	eeb01a67 	vmov.f32	s2, s15
   12c4c:	ebffff79 	bl	12a38 <clamp_v_to_sp>
   12c50:	e59f306c 	ldr	r3, [pc, #108]	; 12cc4 <com_tracking+0x19c>
   12c54:	edd37a00 	vldr	s15, [r3]
   12c58:	e59f3060 	ldr	r3, [pc, #96]	; 12cc0 <com_tracking+0x198>
   12c5c:	ed937a00 	vldr	s14, [r3]
   12c60:	e51b2034 	ldr	r2, [fp, #-52]	; 0xffffffcc
   12c64:	e51b3034 	ldr	r3, [fp, #-52]	; 0xffffffcc
   12c68:	e2833004 	add	r3, r3, #4
   12c6c:	ed5b5a04 	vldr	s11, [fp, #-16]
   12c70:	ed1b6a03 	vldr	s12, [fp, #-12]
   12c74:	ed5b6a02 	vldr	s13, [fp, #-8]
   12c78:	e1a01003 	mov	r1, r3
   12c7c:	e1a00002 	mov	r0, r2
   12c80:	eeb01a65 	vmov.f32	s2, s11
   12c84:	eef01a46 	vmov.f32	s3, s12
   12c88:	eeb02a66 	vmov.f32	s4, s13
   12c8c:	eef00a47 	vmov.f32	s1, s14
   12c90:	eeb00a67 	vmov.f32	s0, s15
   12c94:	ebfff813 	bl	10ce8 <kanayama>
   12c98:	e59f301c 	ldr	r3, [pc, #28]	; 12cbc <com_tracking+0x194>
   12c9c:	e1a0c003 	mov	ip, r3
   12ca0:	e24b302c 	sub	r3, fp, #44	; 0x2c
   12ca4:	e8930007 	ldm	r3, {r0, r1, r2}
   12ca8:	e88c0007 	stm	ip, {r0, r1, r2}
   12cac:	e1a00000 	nop			; (mov r0, r0)
   12cb0:	e24bd004 	sub	sp, fp, #4
   12cb4:	e8bd8800 	pop	{fp, pc}
   12cb8:	0002706d 	andeq	r7, r2, sp, rrx
   12cbc:	0002af20 	andeq	sl, r2, r0, lsr #30
   12cc0:	0002af30 	andeq	sl, r2, r0, lsr pc
   12cc4:	0002af2c 	andeq	sl, r2, ip, lsr #30

00012cc8 <com_generation>:
   12cc8:	e92d4800 	push	{fp, lr}
   12ccc:	e28db004 	add	fp, sp, #4
   12cd0:	e24dd018 	sub	sp, sp, #24
   12cd4:	eef06a40 	vmov.f32	s13, s0
   12cd8:	eeb07a60 	vmov.f32	s14, s1
   12cdc:	eef07a41 	vmov.f32	s15, s2
   12ce0:	e50b0014 	str	r0, [fp, #-20]	; 0xffffffec
   12ce4:	e50b1018 	str	r1, [fp, #-24]	; 0xffffffe8
   12ce8:	ed4b6a04 	vstr	s13, [fp, #-16]
   12cec:	ed0b7a03 	vstr	s14, [fp, #-12]
   12cf0:	ed4b7a02 	vstr	s15, [fp, #-8]
   12cf4:	ed5b6a04 	vldr	s13, [fp, #-16]
   12cf8:	ed1b7a03 	vldr	s14, [fp, #-12]
   12cfc:	ed5b7a02 	vldr	s15, [fp, #-8]
   12d00:	e51b1018 	ldr	r1, [fp, #-24]	; 0xffffffe8
   12d04:	e51b0014 	ldr	r0, [fp, #-20]	; 0xffffffec
   12d08:	eeb00a66 	vmov.f32	s0, s13
   12d0c:	eef00a47 	vmov.f32	s1, s14
   12d10:	eeb01a67 	vmov.f32	s2, s15
   12d14:	ebfffb51 	bl	11a60 <get_setpoint>
   12d18:	e1a00000 	nop			; (mov r0, r0)
   12d1c:	e24bd004 	sub	sp, fp, #4
   12d20:	e8bd8800 	pop	{fp, pc}
   12d24:	00000000 	andeq	r0, r0, r0

00012d28 <sendMsg_CPU2>:
   12d28:	e92d4800 	push	{fp, lr}
   12d2c:	e28db004 	add	fp, sp, #4
   12d30:	e24dd008 	sub	sp, sp, #8
   12d34:	e50b0008 	str	r0, [fp, #-8]
   12d38:	e51b1008 	ldr	r1, [fp, #-8]
   12d3c:	e59f000c 	ldr	r0, [pc, #12]	; 12d50 <sendMsg_CPU2+0x28>
   12d40:	ebfff64b 	bl	10674 <printf@plt>
   12d44:	e1a00000 	nop			; (mov r0, r0)
   12d48:	e24bd004 	sub	sp, fp, #4
   12d4c:	e8bd8800 	pop	{fp, pc}
   12d50:	000165a8 	andeq	r6, r1, r8, lsr #11

00012d54 <init_random>:
   12d54:	e92d4800 	push	{fp, lr}
   12d58:	e28db004 	add	fp, sp, #4
   12d5c:	e3a00000 	mov	r0, #0
   12d60:	ebfff64c 	bl	10698 <time@plt>
   12d64:	e1a03000 	mov	r3, r0
   12d68:	e1a00003 	mov	r0, r3
   12d6c:	ebfff664 	bl	10704 <srand@plt>
   12d70:	e1a00000 	nop			; (mov r0, r0)
   12d74:	e8bd8800 	pop	{fp, pc}

00012d78 <random_int>:
   12d78:	e92d4800 	push	{fp, lr}
   12d7c:	e28db004 	add	fp, sp, #4
   12d80:	e24dd018 	sub	sp, sp, #24
   12d84:	e50b0018 	str	r0, [fp, #-24]	; 0xffffffe8
   12d88:	e50b101c 	str	r1, [fp, #-28]	; 0xffffffe4
   12d8c:	e51b201c 	ldr	r2, [fp, #-28]	; 0xffffffe4
   12d90:	e51b3018 	ldr	r3, [fp, #-24]	; 0xffffffe8
   12d94:	e0423003 	sub	r3, r2, r3
   12d98:	e2833001 	add	r3, r3, #1
   12d9c:	e50b3008 	str	r3, [fp, #-8]
   12da0:	e3e03102 	mvn	r3, #-2147483648	; 0x80000000
   12da4:	e51b1008 	ldr	r1, [fp, #-8]
   12da8:	e1a00003 	mov	r0, r3
   12dac:	eb000dc1 	bl	164b8 <__aeabi_idivmod>
   12db0:	e1a03001 	mov	r3, r1
   12db4:	e50b300c 	str	r3, [fp, #-12]
   12db8:	ebfff65a 	bl	10728 <rand@plt>
   12dbc:	e50b0010 	str	r0, [fp, #-16]
   12dc0:	e51b200c 	ldr	r2, [fp, #-12]
   12dc4:	e3e03102 	mvn	r3, #-2147483648	; 0x80000000
   12dc8:	e0433002 	sub	r3, r3, r2
   12dcc:	e51b2010 	ldr	r2, [fp, #-16]
   12dd0:	e1530002 	cmp	r3, r2
   12dd4:	dafffff7 	ble	12db8 <random_int+0x40>
   12dd8:	e51b3010 	ldr	r3, [fp, #-16]
   12ddc:	e51b1008 	ldr	r1, [fp, #-8]
   12de0:	e1a00003 	mov	r0, r3
   12de4:	eb000db3 	bl	164b8 <__aeabi_idivmod>
   12de8:	e1a03001 	mov	r3, r1
   12dec:	e1a02003 	mov	r2, r3
   12df0:	e51b3018 	ldr	r3, [fp, #-24]	; 0xffffffe8
   12df4:	e0823003 	add	r3, r2, r3
   12df8:	e1a00003 	mov	r0, r3
   12dfc:	e24bd004 	sub	sp, fp, #4
   12e00:	e8bd8800 	pop	{fp, pc}

00012e04 <random_gps>:
   12e04:	e92d4800 	push	{fp, lr}
   12e08:	ed2d8b02 	vpush	{d8}
   12e0c:	e28db00c 	add	fp, sp, #12
   12e10:	e24dd020 	sub	sp, sp, #32
   12e14:	e50b0020 	str	r0, [fp, #-32]	; 0xffffffe0
   12e18:	ed0b0a09 	vstr	s0, [fp, #-36]	; 0xffffffdc
   12e1c:	ed4b0a0a 	vstr	s1, [fp, #-40]	; 0xffffffd8
   12e20:	ed0b1a0b 	vstr	s2, [fp, #-44]	; 0xffffffd4
   12e24:	ed5b7a09 	vldr	s15, [fp, #-36]	; 0xffffffdc
   12e28:	ed9f7a82 	vldr	s14, [pc, #520]	; 13038 <random_gps+0x234>
   12e2c:	eef47ac7 	vcmpe.f32	s15, s14
   12e30:	eef1fa10 	vmrs	APSR_nzcv, fpscr
   12e34:	ca000003 	bgt	12e48 <random_gps+0x44>
   12e38:	ed5b7a09 	vldr	s15, [fp, #-36]	; 0xffffffdc
   12e3c:	eef57ac0 	vcmpe.f32	s15, #0.0
   12e40:	eef1fa10 	vmrs	APSR_nzcv, fpscr
   12e44:	5a000002 	bpl	12e54 <random_gps+0x50>
   12e48:	e59f01f4 	ldr	r0, [pc, #500]	; 13044 <random_gps+0x240>
   12e4c:	ebffffb5 	bl	12d28 <sendMsg_CPU2>
   12e50:	ea000071 	b	1301c <random_gps+0x218>
   12e54:	ed5b7a09 	vldr	s15, [fp, #-36]	; 0xffffffdc
   12e58:	ed9f7a77 	vldr	s14, [pc, #476]	; 1303c <random_gps+0x238>
   12e5c:	ee677a87 	vmul.f32	s15, s15, s14
   12e60:	eeb77ae7 	vcvt.f64.f32	d7, s15
   12e64:	ed9f6b6f 	vldr	d6, [pc, #444]	; 13028 <random_gps+0x224>
   12e68:	ee377b06 	vadd.f64	d7, d7, d6
   12e6c:	eefd7bc7 	vcvt.s32.f64	s15, d7
   12e70:	ee173a90 	vmov	r3, s15
   12e74:	e50b3010 	str	r3, [fp, #-16]
   12e78:	e3a0100a 	mov	r1, #10
   12e7c:	e3a00000 	mov	r0, #0
   12e80:	ebffffbc 	bl	12d78 <random_int>
   12e84:	e50b0014 	str	r0, [fp, #-20]	; 0xffffffec
   12e88:	e51b1014 	ldr	r1, [fp, #-20]	; 0xffffffec
   12e8c:	e59f31b4 	ldr	r3, [pc, #436]	; 13048 <random_gps+0x244>
   12e90:	e0c32193 	smull	r2, r3, r3, r1
   12e94:	e1a02143 	asr	r2, r3, #2
   12e98:	e1a03fc1 	asr	r3, r1, #31
   12e9c:	e0422003 	sub	r2, r2, r3
   12ea0:	e1a03002 	mov	r3, r2
   12ea4:	e1a03103 	lsl	r3, r3, #2
   12ea8:	e0833002 	add	r3, r3, r2
   12eac:	e1a03083 	lsl	r3, r3, #1
   12eb0:	e0412003 	sub	r2, r1, r3
   12eb4:	e51b3010 	ldr	r3, [fp, #-16]
   12eb8:	e1520003 	cmp	r2, r3
   12ebc:	aa000003 	bge	12ed0 <random_gps+0xcc>
   12ec0:	e51b3020 	ldr	r3, [fp, #-32]	; 0xffffffe0
   12ec4:	e3a02000 	mov	r2, #0
   12ec8:	e5c32010 	strb	r2, [r3, #16]
   12ecc:	ea000002 	b	12edc <random_gps+0xd8>
   12ed0:	e51b3020 	ldr	r3, [fp, #-32]	; 0xffffffe0
   12ed4:	e3a02001 	mov	r2, #1
   12ed8:	e5c32010 	strb	r2, [r3, #16]
   12edc:	ed5b7a0b 	vldr	s15, [fp, #-44]	; 0xffffffd4
   12ee0:	ed9f7a54 	vldr	s14, [pc, #336]	; 13038 <random_gps+0x234>
   12ee4:	eef47ac7 	vcmpe.f32	s15, s14
   12ee8:	eef1fa10 	vmrs	APSR_nzcv, fpscr
   12eec:	ca000007 	bgt	12f10 <random_gps+0x10c>
   12ef0:	ed5b7a0b 	vldr	s15, [fp, #-44]	; 0xffffffd4
   12ef4:	eef57ac0 	vcmpe.f32	s15, #0.0
   12ef8:	eef1fa10 	vmrs	APSR_nzcv, fpscr
   12efc:	4a000003 	bmi	12f10 <random_gps+0x10c>
   12f00:	ed5b7a0a 	vldr	s15, [fp, #-40]	; 0xffffffd8
   12f04:	eef57ac0 	vcmpe.f32	s15, #0.0
   12f08:	eef1fa10 	vmrs	APSR_nzcv, fpscr
   12f0c:	5a000002 	bpl	12f1c <random_gps+0x118>
   12f10:	e59f0134 	ldr	r0, [pc, #308]	; 1304c <random_gps+0x248>
   12f14:	ebffff83 	bl	12d28 <sendMsg_CPU2>
   12f18:	ea00003f 	b	1301c <random_gps+0x218>
   12f1c:	ed5b7a0b 	vldr	s15, [fp, #-44]	; 0xffffffd4
   12f20:	ed9f7a45 	vldr	s14, [pc, #276]	; 1303c <random_gps+0x238>
   12f24:	ee677a87 	vmul.f32	s15, s15, s14
   12f28:	eeb77ae7 	vcvt.f64.f32	d7, s15
   12f2c:	ed9f6b3d 	vldr	d6, [pc, #244]	; 13028 <random_gps+0x224>
   12f30:	ee377b06 	vadd.f64	d7, d7, d6
   12f34:	eefd7bc7 	vcvt.s32.f64	s15, d7
   12f38:	ee173a90 	vmov	r3, s15
   12f3c:	e50b3018 	str	r3, [fp, #-24]	; 0xffffffe8
   12f40:	ed5b7a0a 	vldr	s15, [fp, #-40]	; 0xffffffd8
   12f44:	ed9f7a3d 	vldr	s14, [pc, #244]	; 13040 <random_gps+0x23c>
   12f48:	ee677a87 	vmul.f32	s15, s15, s14
   12f4c:	eeb77ae7 	vcvt.f64.f32	d7, s15
   12f50:	ed9f6b34 	vldr	d6, [pc, #208]	; 13028 <random_gps+0x224>
   12f54:	ee377b06 	vadd.f64	d7, d7, d6
   12f58:	eefd7bc7 	vcvt.s32.f64	s15, d7
   12f5c:	ee173a90 	vmov	r3, s15
   12f60:	e50b301c 	str	r3, [fp, #-28]	; 0xffffffe4
   12f64:	e3a0100a 	mov	r1, #10
   12f68:	e3a00000 	mov	r0, #0
   12f6c:	ebffff81 	bl	12d78 <random_int>
   12f70:	e50b0014 	str	r0, [fp, #-20]	; 0xffffffec
   12f74:	e51b1014 	ldr	r1, [fp, #-20]	; 0xffffffec
   12f78:	e59f30c8 	ldr	r3, [pc, #200]	; 13048 <random_gps+0x244>
   12f7c:	e0c32193 	smull	r2, r3, r3, r1
   12f80:	e1a02143 	asr	r2, r3, #2
   12f84:	e1a03fc1 	asr	r3, r1, #31
   12f88:	e0422003 	sub	r2, r2, r3
   12f8c:	e1a03002 	mov	r3, r2
   12f90:	e1a03103 	lsl	r3, r3, #2
   12f94:	e0833002 	add	r3, r3, r2
   12f98:	e1a03083 	lsl	r3, r3, #1
   12f9c:	e0412003 	sub	r2, r1, r3
   12fa0:	e51b3018 	ldr	r3, [fp, #-24]	; 0xffffffe8
   12fa4:	e1520003 	cmp	r2, r3
   12fa8:	aa00001b 	bge	1301c <random_gps+0x218>
   12fac:	e51b3020 	ldr	r3, [fp, #-32]	; 0xffffffe0
   12fb0:	ed938b00 	vldr	d8, [r3]
   12fb4:	e51b301c 	ldr	r3, [fp, #-28]	; 0xffffffe4
   12fb8:	e2633000 	rsb	r3, r3, #0
   12fbc:	e51b101c 	ldr	r1, [fp, #-28]	; 0xffffffe4
   12fc0:	e1a00003 	mov	r0, r3
   12fc4:	ebffff6b 	bl	12d78 <random_int>
   12fc8:	ee070a90 	vmov	s15, r0
   12fcc:	eeb86be7 	vcvt.f64.s32	d6, s15
   12fd0:	ed9f5b16 	vldr	d5, [pc, #88]	; 13030 <random_gps+0x22c>
   12fd4:	ee867b05 	vdiv.f64	d7, d6, d5
   12fd8:	ee387b07 	vadd.f64	d7, d8, d7
   12fdc:	e51b3020 	ldr	r3, [fp, #-32]	; 0xffffffe0
   12fe0:	ed837b00 	vstr	d7, [r3]
   12fe4:	e51b3020 	ldr	r3, [fp, #-32]	; 0xffffffe0
   12fe8:	ed938b02 	vldr	d8, [r3, #8]
   12fec:	e51b301c 	ldr	r3, [fp, #-28]	; 0xffffffe4
   12ff0:	e2633000 	rsb	r3, r3, #0
   12ff4:	e51b101c 	ldr	r1, [fp, #-28]	; 0xffffffe4
   12ff8:	e1a00003 	mov	r0, r3
   12ffc:	ebffff5d 	bl	12d78 <random_int>
   13000:	ee070a90 	vmov	s15, r0
   13004:	eeb86be7 	vcvt.f64.s32	d6, s15
   13008:	ed9f5b08 	vldr	d5, [pc, #32]	; 13030 <random_gps+0x22c>
   1300c:	ee867b05 	vdiv.f64	d7, d6, d5
   13010:	ee387b07 	vadd.f64	d7, d8, d7
   13014:	e51b3020 	ldr	r3, [fp, #-32]	; 0xffffffe0
   13018:	ed837b02 	vstr	d7, [r3, #8]
   1301c:	e24bd00c 	sub	sp, fp, #12
   13020:	ecbd8b02 	vpop	{d8}
   13024:	e8bd8800 	pop	{fp, pc}
   13028:	00000000 	andeq	r0, r0, r0
   1302c:	3fe00000 	svccc	0x00e00000
   13030:	00000000 	andeq	r0, r0, r0
   13034:	40590000 	subsmi	r0, r9, r0
   13038:	3f800000 	svccc	0x00800000
   1303c:	41200000 			; <UNDEFINED> instruction: 0x41200000
   13040:	42c80000 	sbcmi	r0, r8, #0
   13044:	000165ac 	andeq	r6, r1, ip, lsr #11
   13048:	66666667 	strbtvs	r6, [r6], -r7, ror #12
   1304c:	000165e8 	andeq	r6, r1, r8, ror #11

00013050 <random_compass>:
   13050:	e92d4800 	push	{fp, lr}
   13054:	ed2d8b02 	vpush	{d8}
   13058:	e28db00c 	add	fp, sp, #12
   1305c:	e24dd028 	sub	sp, sp, #40	; 0x28
   13060:	e50b0028 	str	r0, [fp, #-40]	; 0xffffffd8
   13064:	ed0b0a0b 	vstr	s0, [fp, #-44]	; 0xffffffd4
   13068:	ed4b0a0c 	vstr	s1, [fp, #-48]	; 0xffffffd0
   1306c:	ed0b1a0d 	vstr	s2, [fp, #-52]	; 0xffffffcc
   13070:	ed5b7a0b 	vldr	s15, [fp, #-44]	; 0xffffffd4
   13074:	ed9f7a7f 	vldr	s14, [pc, #508]	; 13278 <random_compass+0x228>
   13078:	eef47ac7 	vcmpe.f32	s15, s14
   1307c:	eef1fa10 	vmrs	APSR_nzcv, fpscr
   13080:	ca000003 	bgt	13094 <random_compass+0x44>
   13084:	ed5b7a0b 	vldr	s15, [fp, #-44]	; 0xffffffd4
   13088:	eef57ac0 	vcmpe.f32	s15, #0.0
   1308c:	eef1fa10 	vmrs	APSR_nzcv, fpscr
   13090:	5a000002 	bpl	130a0 <random_compass+0x50>
   13094:	e59f01f4 	ldr	r0, [pc, #500]	; 13290 <random_compass+0x240>
   13098:	ebffff22 	bl	12d28 <sendMsg_CPU2>
   1309c:	ea00006e 	b	1325c <random_compass+0x20c>
   130a0:	ed5b7a0b 	vldr	s15, [fp, #-44]	; 0xffffffd4
   130a4:	ed9f7a74 	vldr	s14, [pc, #464]	; 1327c <random_compass+0x22c>
   130a8:	ee677a87 	vmul.f32	s15, s15, s14
   130ac:	eeb77ae7 	vcvt.f64.f32	d7, s15
   130b0:	ed9f6b6c 	vldr	d6, [pc, #432]	; 13268 <random_compass+0x218>
   130b4:	ee377b06 	vadd.f64	d7, d7, d6
   130b8:	eefd7bc7 	vcvt.s32.f64	s15, d7
   130bc:	ee173a90 	vmov	r3, s15
   130c0:	e50b3010 	str	r3, [fp, #-16]
   130c4:	e3a0100a 	mov	r1, #10
   130c8:	e3a00000 	mov	r0, #0
   130cc:	ebffff29 	bl	12d78 <random_int>
   130d0:	e50b0014 	str	r0, [fp, #-20]	; 0xffffffec
   130d4:	e51b1014 	ldr	r1, [fp, #-20]	; 0xffffffec
   130d8:	e59f31b4 	ldr	r3, [pc, #436]	; 13294 <random_compass+0x244>
   130dc:	e0c32193 	smull	r2, r3, r3, r1
   130e0:	e1a02143 	asr	r2, r3, #2
   130e4:	e1a03fc1 	asr	r3, r1, #31
   130e8:	e0422003 	sub	r2, r2, r3
   130ec:	e1a03002 	mov	r3, r2
   130f0:	e1a03103 	lsl	r3, r3, #2
   130f4:	e0833002 	add	r3, r3, r2
   130f8:	e1a03083 	lsl	r3, r3, #1
   130fc:	e0412003 	sub	r2, r1, r3
   13100:	e51b3010 	ldr	r3, [fp, #-16]
   13104:	e1520003 	cmp	r2, r3
   13108:	aa000003 	bge	1311c <random_compass+0xcc>
   1310c:	e51b3028 	ldr	r3, [fp, #-40]	; 0xffffffd8
   13110:	e3a02000 	mov	r2, #0
   13114:	e5c32008 	strb	r2, [r3, #8]
   13118:	ea000002 	b	13128 <random_compass+0xd8>
   1311c:	e51b3028 	ldr	r3, [fp, #-40]	; 0xffffffd8
   13120:	e3a02001 	mov	r2, #1
   13124:	e5c32008 	strb	r2, [r3, #8]
   13128:	ed5b7a0d 	vldr	s15, [fp, #-52]	; 0xffffffcc
   1312c:	ed9f7a51 	vldr	s14, [pc, #324]	; 13278 <random_compass+0x228>
   13130:	eef47ac7 	vcmpe.f32	s15, s14
   13134:	eef1fa10 	vmrs	APSR_nzcv, fpscr
   13138:	ca00000c 	bgt	13170 <random_compass+0x120>
   1313c:	ed5b7a0d 	vldr	s15, [fp, #-52]	; 0xffffffcc
   13140:	eef57ac0 	vcmpe.f32	s15, #0.0
   13144:	eef1fa10 	vmrs	APSR_nzcv, fpscr
   13148:	4a000008 	bmi	13170 <random_compass+0x120>
   1314c:	ed5b7a0c 	vldr	s15, [fp, #-48]	; 0xffffffd0
   13150:	eef57ac0 	vcmpe.f32	s15, #0.0
   13154:	eef1fa10 	vmrs	APSR_nzcv, fpscr
   13158:	4a000004 	bmi	13170 <random_compass+0x120>
   1315c:	ed5b7a0c 	vldr	s15, [fp, #-48]	; 0xffffffd0
   13160:	ed9f7a46 	vldr	s14, [pc, #280]	; 13280 <random_compass+0x230>
   13164:	eef47ac7 	vcmpe.f32	s15, s14
   13168:	eef1fa10 	vmrs	APSR_nzcv, fpscr
   1316c:	ba000002 	blt	1317c <random_compass+0x12c>
   13170:	e59f0120 	ldr	r0, [pc, #288]	; 13298 <random_compass+0x248>
   13174:	ebfffeeb 	bl	12d28 <sendMsg_CPU2>
   13178:	ea000037 	b	1325c <random_compass+0x20c>
   1317c:	ed5b7a0c 	vldr	s15, [fp, #-48]	; 0xffffffd0
   13180:	ed9f7a3f 	vldr	s14, [pc, #252]	; 13284 <random_compass+0x234>
   13184:	ee277a87 	vmul.f32	s14, s15, s14
   13188:	eddf6a3e 	vldr	s13, [pc, #248]	; 13288 <random_compass+0x238>
   1318c:	eec77a26 	vdiv.f32	s15, s14, s13
   13190:	ed4b7a06 	vstr	s15, [fp, #-24]	; 0xffffffe8
   13194:	ed5b7a0d 	vldr	s15, [fp, #-52]	; 0xffffffcc
   13198:	ed9f7a37 	vldr	s14, [pc, #220]	; 1327c <random_compass+0x22c>
   1319c:	ee677a87 	vmul.f32	s15, s15, s14
   131a0:	eeb77ae7 	vcvt.f64.f32	d7, s15
   131a4:	ed9f6b2f 	vldr	d6, [pc, #188]	; 13268 <random_compass+0x218>
   131a8:	ee377b06 	vadd.f64	d7, d7, d6
   131ac:	eefd7bc7 	vcvt.s32.f64	s15, d7
   131b0:	ee173a90 	vmov	r3, s15
   131b4:	e50b301c 	str	r3, [fp, #-28]	; 0xffffffe4
   131b8:	ed5b7a06 	vldr	s15, [fp, #-24]	; 0xffffffe8
   131bc:	ed9f7a32 	vldr	s14, [pc, #200]	; 1328c <random_compass+0x23c>
   131c0:	ee677a87 	vmul.f32	s15, s15, s14
   131c4:	eeb77ae7 	vcvt.f64.f32	d7, s15
   131c8:	ed9f6b26 	vldr	d6, [pc, #152]	; 13268 <random_compass+0x218>
   131cc:	ee377b06 	vadd.f64	d7, d7, d6
   131d0:	eefd7bc7 	vcvt.s32.f64	s15, d7
   131d4:	ee173a90 	vmov	r3, s15
   131d8:	e50b3020 	str	r3, [fp, #-32]	; 0xffffffe0
   131dc:	e3a0100a 	mov	r1, #10
   131e0:	e3a00000 	mov	r0, #0
   131e4:	ebfffee3 	bl	12d78 <random_int>
   131e8:	e50b0014 	str	r0, [fp, #-20]	; 0xffffffec
   131ec:	e51b1014 	ldr	r1, [fp, #-20]	; 0xffffffec
   131f0:	e59f309c 	ldr	r3, [pc, #156]	; 13294 <random_compass+0x244>
   131f4:	e0c32193 	smull	r2, r3, r3, r1
   131f8:	e1a02143 	asr	r2, r3, #2
   131fc:	e1a03fc1 	asr	r3, r1, #31
   13200:	e0422003 	sub	r2, r2, r3
   13204:	e1a03002 	mov	r3, r2
   13208:	e1a03103 	lsl	r3, r3, #2
   1320c:	e0833002 	add	r3, r3, r2
   13210:	e1a03083 	lsl	r3, r3, #1
   13214:	e0412003 	sub	r2, r1, r3
   13218:	e51b301c 	ldr	r3, [fp, #-28]	; 0xffffffe4
   1321c:	e1520003 	cmp	r2, r3
   13220:	aa00000d 	bge	1325c <random_compass+0x20c>
   13224:	e51b3028 	ldr	r3, [fp, #-40]	; 0xffffffd8
   13228:	ed938b00 	vldr	d8, [r3]
   1322c:	e51b3020 	ldr	r3, [fp, #-32]	; 0xffffffe0
   13230:	e2633000 	rsb	r3, r3, #0
   13234:	e51b1020 	ldr	r1, [fp, #-32]	; 0xffffffe0
   13238:	e1a00003 	mov	r0, r3
   1323c:	ebfffecd 	bl	12d78 <random_int>
   13240:	ee070a90 	vmov	s15, r0
   13244:	eeb86be7 	vcvt.f64.s32	d6, s15
   13248:	ed9f5b08 	vldr	d5, [pc, #32]	; 13270 <random_compass+0x220>
   1324c:	ee867b05 	vdiv.f64	d7, d6, d5
   13250:	ee387b07 	vadd.f64	d7, d8, d7
   13254:	e51b3028 	ldr	r3, [fp, #-40]	; 0xffffffd8
   13258:	ed837b00 	vstr	d7, [r3]
   1325c:	e24bd00c 	sub	sp, fp, #12
   13260:	ecbd8b02 	vpop	{d8}
   13264:	e8bd8800 	pop	{fp, pc}
   13268:	00000000 	andeq	r0, r0, r0
   1326c:	3fe00000 	svccc	0x00e00000
   13270:	00000000 	andeq	r0, r0, r0
   13274:	40590000 	subsmi	r0, r9, r0
   13278:	3f800000 	svccc	0x00800000
   1327c:	41200000 			; <UNDEFINED> instruction: 0x41200000
   13280:	43b40000 			; <UNDEFINED> instruction: 0x43b40000
   13284:	40490fdb 	ldrdmi	r0, [r9], #-251	; 0xffffff05
   13288:	43340000 	teqmi	r4, #0
   1328c:	42c80000 	sbcmi	r0, r8, #0
   13290:	00016640 	andeq	r6, r1, r0, asr #12
   13294:	66666667 	strbtvs	r6, [r6], -r7, ror #12
   13298:	00016680 	andeq	r6, r1, r0, lsl #13

0001329c <random_odometry>:
   1329c:	e92d4800 	push	{fp, lr}
   132a0:	ed2d8b02 	vpush	{d8}
   132a4:	e28db00c 	add	fp, sp, #12
   132a8:	e24dd020 	sub	sp, sp, #32
   132ac:	e50b0020 	str	r0, [fp, #-32]	; 0xffffffe0
   132b0:	ed0b0a09 	vstr	s0, [fp, #-36]	; 0xffffffdc
   132b4:	ed4b0a0a 	vstr	s1, [fp, #-40]	; 0xffffffd8
   132b8:	ed0b1a0b 	vstr	s2, [fp, #-44]	; 0xffffffd4
   132bc:	ed5b7a09 	vldr	s15, [fp, #-36]	; 0xffffffdc
   132c0:	ed9f7a82 	vldr	s14, [pc, #520]	; 134d0 <random_odometry+0x234>
   132c4:	eef47ac7 	vcmpe.f32	s15, s14
   132c8:	eef1fa10 	vmrs	APSR_nzcv, fpscr
   132cc:	ca000003 	bgt	132e0 <random_odometry+0x44>
   132d0:	ed5b7a09 	vldr	s15, [fp, #-36]	; 0xffffffdc
   132d4:	eef57ac0 	vcmpe.f32	s15, #0.0
   132d8:	eef1fa10 	vmrs	APSR_nzcv, fpscr
   132dc:	5a000002 	bpl	132ec <random_odometry+0x50>
   132e0:	e59f01f4 	ldr	r0, [pc, #500]	; 134dc <random_odometry+0x240>
   132e4:	ebfffe8f 	bl	12d28 <sendMsg_CPU2>
   132e8:	ea000071 	b	134b4 <random_odometry+0x218>
   132ec:	ed5b7a09 	vldr	s15, [fp, #-36]	; 0xffffffdc
   132f0:	ed9f7a77 	vldr	s14, [pc, #476]	; 134d4 <random_odometry+0x238>
   132f4:	ee677a87 	vmul.f32	s15, s15, s14
   132f8:	eeb77ae7 	vcvt.f64.f32	d7, s15
   132fc:	ed9f6b6f 	vldr	d6, [pc, #444]	; 134c0 <random_odometry+0x224>
   13300:	ee377b06 	vadd.f64	d7, d7, d6
   13304:	eefd7bc7 	vcvt.s32.f64	s15, d7
   13308:	ee173a90 	vmov	r3, s15
   1330c:	e50b3010 	str	r3, [fp, #-16]
   13310:	e3a0100a 	mov	r1, #10
   13314:	e3a00000 	mov	r0, #0
   13318:	ebfffe96 	bl	12d78 <random_int>
   1331c:	e50b0014 	str	r0, [fp, #-20]	; 0xffffffec
   13320:	e51b1014 	ldr	r1, [fp, #-20]	; 0xffffffec
   13324:	e59f31b4 	ldr	r3, [pc, #436]	; 134e0 <random_odometry+0x244>
   13328:	e0c32193 	smull	r2, r3, r3, r1
   1332c:	e1a02143 	asr	r2, r3, #2
   13330:	e1a03fc1 	asr	r3, r1, #31
   13334:	e0422003 	sub	r2, r2, r3
   13338:	e1a03002 	mov	r3, r2
   1333c:	e1a03103 	lsl	r3, r3, #2
   13340:	e0833002 	add	r3, r3, r2
   13344:	e1a03083 	lsl	r3, r3, #1
   13348:	e0412003 	sub	r2, r1, r3
   1334c:	e51b3010 	ldr	r3, [fp, #-16]
   13350:	e1520003 	cmp	r2, r3
   13354:	aa000003 	bge	13368 <random_odometry+0xcc>
   13358:	e51b3020 	ldr	r3, [fp, #-32]	; 0xffffffe0
   1335c:	e3a02000 	mov	r2, #0
   13360:	e5c32020 	strb	r2, [r3, #32]
   13364:	ea000002 	b	13374 <random_odometry+0xd8>
   13368:	e51b3020 	ldr	r3, [fp, #-32]	; 0xffffffe0
   1336c:	e3a02001 	mov	r2, #1
   13370:	e5c32020 	strb	r2, [r3, #32]
   13374:	ed5b7a0b 	vldr	s15, [fp, #-44]	; 0xffffffd4
   13378:	ed9f7a54 	vldr	s14, [pc, #336]	; 134d0 <random_odometry+0x234>
   1337c:	eef47ac7 	vcmpe.f32	s15, s14
   13380:	eef1fa10 	vmrs	APSR_nzcv, fpscr
   13384:	ca000007 	bgt	133a8 <random_odometry+0x10c>
   13388:	ed5b7a0b 	vldr	s15, [fp, #-44]	; 0xffffffd4
   1338c:	eef57ac0 	vcmpe.f32	s15, #0.0
   13390:	eef1fa10 	vmrs	APSR_nzcv, fpscr
   13394:	4a000003 	bmi	133a8 <random_odometry+0x10c>
   13398:	ed5b7a0a 	vldr	s15, [fp, #-40]	; 0xffffffd8
   1339c:	eef57ac0 	vcmpe.f32	s15, #0.0
   133a0:	eef1fa10 	vmrs	APSR_nzcv, fpscr
   133a4:	5a000002 	bpl	133b4 <random_odometry+0x118>
   133a8:	e59f0134 	ldr	r0, [pc, #308]	; 134e4 <random_odometry+0x248>
   133ac:	ebfffe5d 	bl	12d28 <sendMsg_CPU2>
   133b0:	ea00003f 	b	134b4 <random_odometry+0x218>
   133b4:	ed5b7a0b 	vldr	s15, [fp, #-44]	; 0xffffffd4
   133b8:	ed9f7a45 	vldr	s14, [pc, #276]	; 134d4 <random_odometry+0x238>
   133bc:	ee677a87 	vmul.f32	s15, s15, s14
   133c0:	eeb77ae7 	vcvt.f64.f32	d7, s15
   133c4:	ed9f6b3d 	vldr	d6, [pc, #244]	; 134c0 <random_odometry+0x224>
   133c8:	ee377b06 	vadd.f64	d7, d7, d6
   133cc:	eefd7bc7 	vcvt.s32.f64	s15, d7
   133d0:	ee173a90 	vmov	r3, s15
   133d4:	e50b3018 	str	r3, [fp, #-24]	; 0xffffffe8
   133d8:	ed5b7a0a 	vldr	s15, [fp, #-40]	; 0xffffffd8
   133dc:	ed9f7a3d 	vldr	s14, [pc, #244]	; 134d8 <random_odometry+0x23c>
   133e0:	ee677a87 	vmul.f32	s15, s15, s14
   133e4:	eeb77ae7 	vcvt.f64.f32	d7, s15
   133e8:	ed9f6b34 	vldr	d6, [pc, #208]	; 134c0 <random_odometry+0x224>
   133ec:	ee377b06 	vadd.f64	d7, d7, d6
   133f0:	eefd7bc7 	vcvt.s32.f64	s15, d7
   133f4:	ee173a90 	vmov	r3, s15
   133f8:	e50b301c 	str	r3, [fp, #-28]	; 0xffffffe4
   133fc:	e3a0100a 	mov	r1, #10
   13400:	e3a00000 	mov	r0, #0
   13404:	ebfffe5b 	bl	12d78 <random_int>
   13408:	e50b0014 	str	r0, [fp, #-20]	; 0xffffffec
   1340c:	e51b1014 	ldr	r1, [fp, #-20]	; 0xffffffec
   13410:	e59f30c8 	ldr	r3, [pc, #200]	; 134e0 <random_odometry+0x244>
   13414:	e0c32193 	smull	r2, r3, r3, r1
   13418:	e1a02143 	asr	r2, r3, #2
   1341c:	e1a03fc1 	asr	r3, r1, #31
   13420:	e0422003 	sub	r2, r2, r3
   13424:	e1a03002 	mov	r3, r2
   13428:	e1a03103 	lsl	r3, r3, #2
   1342c:	e0833002 	add	r3, r3, r2
   13430:	e1a03083 	lsl	r3, r3, #1
   13434:	e0412003 	sub	r2, r1, r3
   13438:	e51b3018 	ldr	r3, [fp, #-24]	; 0xffffffe8
   1343c:	e1520003 	cmp	r2, r3
   13440:	aa00001b 	bge	134b4 <random_odometry+0x218>
   13444:	e51b3020 	ldr	r3, [fp, #-32]	; 0xffffffe0
   13448:	ed938b00 	vldr	d8, [r3]
   1344c:	e51b301c 	ldr	r3, [fp, #-28]	; 0xffffffe4
   13450:	e2633000 	rsb	r3, r3, #0
   13454:	e51b101c 	ldr	r1, [fp, #-28]	; 0xffffffe4
   13458:	e1a00003 	mov	r0, r3
   1345c:	ebfffe45 	bl	12d78 <random_int>
   13460:	ee070a90 	vmov	s15, r0
   13464:	eeb86be7 	vcvt.f64.s32	d6, s15
   13468:	ed9f5b16 	vldr	d5, [pc, #88]	; 134c8 <random_odometry+0x22c>
   1346c:	ee867b05 	vdiv.f64	d7, d6, d5
   13470:	ee387b07 	vadd.f64	d7, d8, d7
   13474:	e51b3020 	ldr	r3, [fp, #-32]	; 0xffffffe0
   13478:	ed837b00 	vstr	d7, [r3]
   1347c:	e51b3020 	ldr	r3, [fp, #-32]	; 0xffffffe0
   13480:	ed938b02 	vldr	d8, [r3, #8]
   13484:	e51b301c 	ldr	r3, [fp, #-28]	; 0xffffffe4
   13488:	e2633000 	rsb	r3, r3, #0
   1348c:	e51b101c 	ldr	r1, [fp, #-28]	; 0xffffffe4
   13490:	e1a00003 	mov	r0, r3
   13494:	ebfffe37 	bl	12d78 <random_int>
   13498:	ee070a90 	vmov	s15, r0
   1349c:	eeb86be7 	vcvt.f64.s32	d6, s15
   134a0:	ed9f5b08 	vldr	d5, [pc, #32]	; 134c8 <random_odometry+0x22c>
   134a4:	ee867b05 	vdiv.f64	d7, d6, d5
   134a8:	ee387b07 	vadd.f64	d7, d8, d7
   134ac:	e51b3020 	ldr	r3, [fp, #-32]	; 0xffffffe0
   134b0:	ed837b02 	vstr	d7, [r3, #8]
   134b4:	e24bd00c 	sub	sp, fp, #12
   134b8:	ecbd8b02 	vpop	{d8}
   134bc:	e8bd8800 	pop	{fp, pc}
   134c0:	00000000 	andeq	r0, r0, r0
   134c4:	3fe00000 	svccc	0x00e00000
   134c8:	00000000 	andeq	r0, r0, r0
   134cc:	40590000 	subsmi	r0, r9, r0
   134d0:	3f800000 	svccc	0x00800000
   134d4:	41200000 			; <UNDEFINED> instruction: 0x41200000
   134d8:	42c80000 	sbcmi	r0, r8, #0
   134dc:	000166ec 	andeq	r6, r1, ip, ror #13
   134e0:	66666667 	strbtvs	r6, [r6], -r7, ror #12
   134e4:	0001672c 	andeq	r6, r1, ip, lsr #14

000134e8 <sensor_data_randomize>:
   134e8:	e92d4800 	push	{fp, lr}
   134ec:	e28db004 	add	fp, sp, #4
   134f0:	e24dd010 	sub	sp, sp, #16
   134f4:	e50b0008 	str	r0, [fp, #-8]
   134f8:	e50b100c 	str	r1, [fp, #-12]
   134fc:	e50b2010 	str	r2, [fp, #-16]
   13500:	e54b3011 	strb	r3, [fp, #-17]	; 0xffffffef
   13504:	e59f30b4 	ldr	r3, [pc, #180]	; 135c0 <sensor_data_randomize+0xd8>
   13508:	e1d330d0 	ldrsb	r3, [r3]
   1350c:	e3530000 	cmp	r3, #0
   13510:	0a000003 	beq	13524 <sensor_data_randomize+0x3c>
   13514:	ebfffe0e 	bl	12d54 <init_random>
   13518:	e59f30a0 	ldr	r3, [pc, #160]	; 135c0 <sensor_data_randomize+0xd8>
   1351c:	e3a02000 	mov	r2, #0
   13520:	e5c32000 	strb	r2, [r3]
   13524:	e15b31d1 	ldrsb	r3, [fp, #-17]	; 0xffffffef
   13528:	e3530000 	cmp	r3, #0
   1352c:	0a000020 	beq	135b4 <sensor_data_randomize+0xcc>
   13530:	e59f308c 	ldr	r3, [pc, #140]	; 135c4 <sensor_data_randomize+0xdc>
   13534:	edd37a03 	vldr	s15, [r3, #12]
   13538:	e59f3084 	ldr	r3, [pc, #132]	; 135c4 <sensor_data_randomize+0xdc>
   1353c:	ed937a05 	vldr	s14, [r3, #20]
   13540:	e59f307c 	ldr	r3, [pc, #124]	; 135c4 <sensor_data_randomize+0xdc>
   13544:	edd36a04 	vldr	s13, [r3, #16]
   13548:	eeb01a66 	vmov.f32	s2, s13
   1354c:	eef00a47 	vmov.f32	s1, s14
   13550:	eeb00a67 	vmov.f32	s0, s15
   13554:	e51b000c 	ldr	r0, [fp, #-12]
   13558:	ebfffebc 	bl	13050 <random_compass>
   1355c:	e59f3060 	ldr	r3, [pc, #96]	; 135c4 <sensor_data_randomize+0xdc>
   13560:	edd37a00 	vldr	s15, [r3]
   13564:	e59f3058 	ldr	r3, [pc, #88]	; 135c4 <sensor_data_randomize+0xdc>
   13568:	ed937a02 	vldr	s14, [r3, #8]
   1356c:	e59f3050 	ldr	r3, [pc, #80]	; 135c4 <sensor_data_randomize+0xdc>
   13570:	edd36a01 	vldr	s13, [r3, #4]
   13574:	eeb01a66 	vmov.f32	s2, s13
   13578:	eef00a47 	vmov.f32	s1, s14
   1357c:	eeb00a67 	vmov.f32	s0, s15
   13580:	e51b0008 	ldr	r0, [fp, #-8]
   13584:	ebfffe1e 	bl	12e04 <random_gps>
   13588:	e59f3034 	ldr	r3, [pc, #52]	; 135c4 <sensor_data_randomize+0xdc>
   1358c:	edd37a06 	vldr	s15, [r3, #24]
   13590:	e59f302c 	ldr	r3, [pc, #44]	; 135c4 <sensor_data_randomize+0xdc>
   13594:	ed937a08 	vldr	s14, [r3, #32]
   13598:	e59f3024 	ldr	r3, [pc, #36]	; 135c4 <sensor_data_randomize+0xdc>
   1359c:	edd36a07 	vldr	s13, [r3, #28]
   135a0:	eeb01a66 	vmov.f32	s2, s13
   135a4:	eef00a47 	vmov.f32	s1, s14
   135a8:	eeb00a67 	vmov.f32	s0, s15
   135ac:	e51b0010 	ldr	r0, [fp, #-16]
   135b0:	ebffff39 	bl	1329c <random_odometry>
   135b4:	e1a00000 	nop			; (mov r0, r0)
   135b8:	e24bd004 	sub	sp, fp, #4
   135bc:	e8bd8800 	pop	{fp, pc}
   135c0:	0002706e 	andeq	r7, r2, lr, rrx
   135c4:	0002af48 	andeq	sl, r2, r8, asr #30

000135c8 <segment>:
   135c8:	e52db004 	push	{fp}		; (str fp, [sp, #-4]!)
   135cc:	e28db000 	add	fp, sp, #0
   135d0:	e24dd044 	sub	sp, sp, #68	; 0x44
   135d4:	eeb06a40 	vmov.f32	s12, s0
   135d8:	eef06a60 	vmov.f32	s13, s1
   135dc:	eeb07a41 	vmov.f32	s14, s2
   135e0:	eef07a61 	vmov.f32	s15, s3
   135e4:	ed0b6a0b 	vstr	s12, [fp, #-44]	; 0xffffffd4
   135e8:	ed4b6a0a 	vstr	s13, [fp, #-40]	; 0xffffffd8
   135ec:	ed0b7a0d 	vstr	s14, [fp, #-52]	; 0xffffffcc
   135f0:	ed4b7a0c 	vstr	s15, [fp, #-48]	; 0xffffffd0
   135f4:	e24b3024 	sub	r3, fp, #36	; 0x24
   135f8:	e24b202c 	sub	r2, fp, #44	; 0x2c
   135fc:	e8920003 	ldm	r2, {r0, r1}
   13600:	e8830003 	stm	r3, {r0, r1}
   13604:	e24b301c 	sub	r3, fp, #28
   13608:	e24b2034 	sub	r2, fp, #52	; 0x34
   1360c:	e8920003 	ldm	r2, {r0, r1}
   13610:	e8830003 	stm	r3, {r0, r1}
   13614:	e24bc014 	sub	ip, fp, #20
   13618:	e24b3024 	sub	r3, fp, #36	; 0x24
   1361c:	e893000f 	ldm	r3, {r0, r1, r2, r3}
   13620:	e88c000f 	stm	ip, {r0, r1, r2, r3}
   13624:	e51b0014 	ldr	r0, [fp, #-20]	; 0xffffffec
   13628:	e51b1010 	ldr	r1, [fp, #-16]
   1362c:	e51b200c 	ldr	r2, [fp, #-12]
   13630:	e51b3008 	ldr	r3, [fp, #-8]
   13634:	ee060a10 	vmov	s12, r0
   13638:	ee061a90 	vmov	s13, r1
   1363c:	ee072a10 	vmov	s14, r2
   13640:	ee073a90 	vmov	s15, r3
   13644:	eeb00a46 	vmov.f32	s0, s12
   13648:	eef00a66 	vmov.f32	s1, s13
   1364c:	eeb01a47 	vmov.f32	s2, s14
   13650:	eef01a67 	vmov.f32	s3, s15
   13654:	e28bd000 	add	sp, fp, #0
   13658:	e49db004 	pop	{fp}		; (ldr fp, [sp], #4)
   1365c:	e12fff1e 	bx	lr

00013660 <inInterval>:
   13660:	e52db004 	push	{fp}		; (str fp, [sp, #-4]!)
   13664:	e28db000 	add	fp, sp, #0
   13668:	e24dd014 	sub	sp, sp, #20
   1366c:	ed0b0a02 	vstr	s0, [fp, #-8]
   13670:	ed4b0a03 	vstr	s1, [fp, #-12]
   13674:	ed0b1a04 	vstr	s2, [fp, #-16]
   13678:	ed4b1a05 	vstr	s3, [fp, #-20]	; 0xffffffec
   1367c:	ed1b7a03 	vldr	s14, [fp, #-12]
   13680:	ed5b7a04 	vldr	s15, [fp, #-16]
   13684:	eeb47ae7 	vcmpe.f32	s14, s15
   13688:	eef1fa10 	vmrs	APSR_nzcv, fpscr
   1368c:	8a000012 	bhi	136dc <inInterval+0x7c>
   13690:	ed1b7a03 	vldr	s14, [fp, #-12]
   13694:	ed5b7a05 	vldr	s15, [fp, #-20]	; 0xffffffec
   13698:	ee377a67 	vsub.f32	s14, s14, s15
   1369c:	ed5b7a02 	vldr	s15, [fp, #-8]
   136a0:	eeb47ae7 	vcmpe.f32	s14, s15
   136a4:	eef1fa10 	vmrs	APSR_nzcv, fpscr
   136a8:	8a000008 	bhi	136d0 <inInterval+0x70>
   136ac:	ed1b7a04 	vldr	s14, [fp, #-16]
   136b0:	ed5b7a05 	vldr	s15, [fp, #-20]	; 0xffffffec
   136b4:	ee377a27 	vadd.f32	s14, s14, s15
   136b8:	ed5b7a02 	vldr	s15, [fp, #-8]
   136bc:	eeb47ae7 	vcmpe.f32	s14, s15
   136c0:	eef1fa10 	vmrs	APSR_nzcv, fpscr
   136c4:	ba000001 	blt	136d0 <inInterval+0x70>
   136c8:	e3a03001 	mov	r3, #1
   136cc:	ea000000 	b	136d4 <inInterval+0x74>
   136d0:	e3a03000 	mov	r3, #0
   136d4:	e6af3073 	sxtb	r3, r3
   136d8:	ea000011 	b	13724 <inInterval+0xc4>
   136dc:	ed1b7a04 	vldr	s14, [fp, #-16]
   136e0:	ed5b7a05 	vldr	s15, [fp, #-20]	; 0xffffffec
   136e4:	ee377a67 	vsub.f32	s14, s14, s15
   136e8:	ed5b7a02 	vldr	s15, [fp, #-8]
   136ec:	eeb47ae7 	vcmpe.f32	s14, s15
   136f0:	eef1fa10 	vmrs	APSR_nzcv, fpscr
   136f4:	8a000008 	bhi	1371c <inInterval+0xbc>
   136f8:	ed1b7a03 	vldr	s14, [fp, #-12]
   136fc:	ed5b7a05 	vldr	s15, [fp, #-20]	; 0xffffffec
   13700:	ee377a27 	vadd.f32	s14, s14, s15
   13704:	ed5b7a02 	vldr	s15, [fp, #-8]
   13708:	eeb47ae7 	vcmpe.f32	s14, s15
   1370c:	eef1fa10 	vmrs	APSR_nzcv, fpscr
   13710:	ba000001 	blt	1371c <inInterval+0xbc>
   13714:	e3a03001 	mov	r3, #1
   13718:	ea000000 	b	13720 <inInterval+0xc0>
   1371c:	e3a03000 	mov	r3, #0
   13720:	e6af3073 	sxtb	r3, r3
   13724:	e1a00003 	mov	r0, r3
   13728:	e28bd000 	add	sp, fp, #0
   1372c:	e49db004 	pop	{fp}		; (ldr fp, [sp], #4)
   13730:	e12fff1e 	bx	lr

00013734 <intersects>:
   13734:	e92d4800 	push	{fp, lr}
   13738:	e28db004 	add	fp, sp, #4
   1373c:	e24dd058 	sub	sp, sp, #88	; 0x58
   13740:	eeb04a40 	vmov.f32	s8, s0
   13744:	eef04a60 	vmov.f32	s9, s1
   13748:	eeb05a41 	vmov.f32	s10, s2
   1374c:	eef05a61 	vmov.f32	s11, s3
   13750:	eeb06a42 	vmov.f32	s12, s4
   13754:	eef06a62 	vmov.f32	s13, s5
   13758:	eeb07a43 	vmov.f32	s14, s6
   1375c:	eef07a63 	vmov.f32	s15, s7
   13760:	ed0b4a13 	vstr	s8, [fp, #-76]	; 0xffffffb4
   13764:	ed4b4a12 	vstr	s9, [fp, #-72]	; 0xffffffb8
   13768:	ed0b5a11 	vstr	s10, [fp, #-68]	; 0xffffffbc
   1376c:	ed4b5a10 	vstr	s11, [fp, #-64]	; 0xffffffc0
   13770:	ed0b6a17 	vstr	s12, [fp, #-92]	; 0xffffffa4
   13774:	ed4b6a16 	vstr	s13, [fp, #-88]	; 0xffffffa8
   13778:	ed0b7a15 	vstr	s14, [fp, #-84]	; 0xffffffac
   1377c:	ed4b7a14 	vstr	s15, [fp, #-80]	; 0xffffffb0
   13780:	e24b3020 	sub	r3, fp, #32
   13784:	e24b204c 	sub	r2, fp, #76	; 0x4c
   13788:	e8920003 	ldm	r2, {r0, r1}
   1378c:	e8830003 	stm	r3, {r0, r1}
   13790:	e24b3028 	sub	r3, fp, #40	; 0x28
   13794:	e24b2044 	sub	r2, fp, #68	; 0x44
   13798:	e8920003 	ldm	r2, {r0, r1}
   1379c:	e8830003 	stm	r3, {r0, r1}
   137a0:	e24b3030 	sub	r3, fp, #48	; 0x30
   137a4:	e24b205c 	sub	r2, fp, #92	; 0x5c
   137a8:	e8920003 	ldm	r2, {r0, r1}
   137ac:	e8830003 	stm	r3, {r0, r1}
   137b0:	e24b3038 	sub	r3, fp, #56	; 0x38
   137b4:	e24b2054 	sub	r2, fp, #84	; 0x54
   137b8:	e8920003 	ldm	r2, {r0, r1}
   137bc:	e8830003 	stm	r3, {r0, r1}
   137c0:	ed1b7a0a 	vldr	s14, [fp, #-40]	; 0xffffffd8
   137c4:	ed5b7a08 	vldr	s15, [fp, #-32]	; 0xffffffe0
   137c8:	ee777a67 	vsub.f32	s15, s14, s15
   137cc:	eef57a40 	vcmp.f32	s15, #0.0
   137d0:	eef1fa10 	vmrs	APSR_nzcv, fpscr
   137d4:	1a000005 	bne	137f0 <intersects+0xbc>
   137d8:	ed1b7a09 	vldr	s14, [fp, #-36]	; 0xffffffdc
   137dc:	ed5b7a07 	vldr	s15, [fp, #-28]	; 0xffffffe4
   137e0:	ee777a67 	vsub.f32	s15, s14, s15
   137e4:	eef57a40 	vcmp.f32	s15, #0.0
   137e8:	eef1fa10 	vmrs	APSR_nzcv, fpscr
   137ec:	0a00000b 	beq	13820 <intersects+0xec>
   137f0:	ed1b7a0e 	vldr	s14, [fp, #-56]	; 0xffffffc8
   137f4:	ed5b7a0c 	vldr	s15, [fp, #-48]	; 0xffffffd0
   137f8:	ee777a67 	vsub.f32	s15, s14, s15
   137fc:	eef57a40 	vcmp.f32	s15, #0.0
   13800:	eef1fa10 	vmrs	APSR_nzcv, fpscr
   13804:	1a000007 	bne	13828 <intersects+0xf4>
   13808:	ed1b7a0d 	vldr	s14, [fp, #-52]	; 0xffffffcc
   1380c:	ed5b7a0b 	vldr	s15, [fp, #-44]	; 0xffffffd4
   13810:	ee777a67 	vsub.f32	s15, s14, s15
   13814:	eef57a40 	vcmp.f32	s15, #0.0
   13818:	eef1fa10 	vmrs	APSR_nzcv, fpscr
   1381c:	1a000001 	bne	13828 <intersects+0xf4>
   13820:	e3a03001 	mov	r3, #1
   13824:	ea000000 	b	1382c <intersects+0xf8>
   13828:	e3a03000 	mov	r3, #0
   1382c:	e6af3073 	sxtb	r3, r3
   13830:	e54b3015 	strb	r3, [fp, #-21]	; 0xffffffeb
   13834:	ed1b7a07 	vldr	s14, [fp, #-28]	; 0xffffffe4
   13838:	ed5b7a0b 	vldr	s15, [fp, #-44]	; 0xffffffd4
   1383c:	ee377a67 	vsub.f32	s14, s14, s15
   13840:	ed5b6a0e 	vldr	s13, [fp, #-56]	; 0xffffffc8
   13844:	ed5b7a0c 	vldr	s15, [fp, #-48]	; 0xffffffd0
   13848:	ee767ae7 	vsub.f32	s15, s13, s15
   1384c:	ee277a27 	vmul.f32	s14, s14, s15
   13850:	ed5b6a08 	vldr	s13, [fp, #-32]	; 0xffffffe0
   13854:	ed5b7a0c 	vldr	s15, [fp, #-48]	; 0xffffffd0
   13858:	ee766ae7 	vsub.f32	s13, s13, s15
   1385c:	ed1b6a0d 	vldr	s12, [fp, #-52]	; 0xffffffcc
   13860:	ed5b7a0b 	vldr	s15, [fp, #-44]	; 0xffffffd4
   13864:	ee767a67 	vsub.f32	s15, s12, s15
   13868:	ee667aa7 	vmul.f32	s15, s13, s15
   1386c:	ee777a67 	vsub.f32	s15, s14, s15
   13870:	ed4b7a02 	vstr	s15, [fp, #-8]
   13874:	ed1b7a0a 	vldr	s14, [fp, #-40]	; 0xffffffd8
   13878:	ed5b7a08 	vldr	s15, [fp, #-32]	; 0xffffffe0
   1387c:	ee377a67 	vsub.f32	s14, s14, s15
   13880:	ed5b6a0d 	vldr	s13, [fp, #-52]	; 0xffffffcc
   13884:	ed5b7a0b 	vldr	s15, [fp, #-44]	; 0xffffffd4
   13888:	ee767ae7 	vsub.f32	s15, s13, s15
   1388c:	ee277a27 	vmul.f32	s14, s14, s15
   13890:	ed5b6a09 	vldr	s13, [fp, #-36]	; 0xffffffdc
   13894:	ed5b7a07 	vldr	s15, [fp, #-28]	; 0xffffffe4
   13898:	ee766ae7 	vsub.f32	s13, s13, s15
   1389c:	ed1b6a0e 	vldr	s12, [fp, #-56]	; 0xffffffc8
   138a0:	ed5b7a0c 	vldr	s15, [fp, #-48]	; 0xffffffd0
   138a4:	ee767a67 	vsub.f32	s15, s12, s15
   138a8:	ee667aa7 	vmul.f32	s15, s13, s15
   138ac:	ee777a67 	vsub.f32	s15, s14, s15
   138b0:	ed4b7a03 	vstr	s15, [fp, #-12]
   138b4:	ed5b7a03 	vldr	s15, [fp, #-12]
   138b8:	eef57a40 	vcmp.f32	s15, #0.0
   138bc:	eef1fa10 	vmrs	APSR_nzcv, fpscr
   138c0:	1a000052 	bne	13a10 <intersects+0x2dc>
   138c4:	e3a03001 	mov	r3, #1
   138c8:	e54b3017 	strb	r3, [fp, #-23]	; 0xffffffe9
   138cc:	ed5b7a02 	vldr	s15, [fp, #-8]
   138d0:	eef57a40 	vcmp.f32	s15, #0.0
   138d4:	eef1fa10 	vmrs	APSR_nzcv, fpscr
   138d8:	1a000048 	bne	13a00 <intersects+0x2cc>
   138dc:	e3a03001 	mov	r3, #1
   138e0:	e54b3016 	strb	r3, [fp, #-22]	; 0xffffffea
   138e4:	ed5b7a0c 	vldr	s15, [fp, #-48]	; 0xffffffd0
   138e8:	ed1b7a08 	vldr	s14, [fp, #-32]	; 0xffffffe0
   138ec:	ed5b6a0a 	vldr	s13, [fp, #-40]	; 0xffffffd8
   138f0:	eddf1a7b 	vldr	s3, [pc, #492]	; 13ae4 <intersects+0x3b0>
   138f4:	eeb01a66 	vmov.f32	s2, s13
   138f8:	eef00a47 	vmov.f32	s1, s14
   138fc:	eeb00a67 	vmov.f32	s0, s15
   13900:	ebffff56 	bl	13660 <inInterval>
   13904:	e1a03000 	mov	r3, r0
   13908:	e3530000 	cmp	r3, #0
   1390c:	0a00000a 	beq	1393c <intersects+0x208>
   13910:	ed5b7a0b 	vldr	s15, [fp, #-44]	; 0xffffffd4
   13914:	ed1b7a07 	vldr	s14, [fp, #-28]	; 0xffffffe4
   13918:	ed5b6a09 	vldr	s13, [fp, #-36]	; 0xffffffdc
   1391c:	eddf1a70 	vldr	s3, [pc, #448]	; 13ae4 <intersects+0x3b0>
   13920:	eeb01a66 	vmov.f32	s2, s13
   13924:	eef00a47 	vmov.f32	s1, s14
   13928:	eeb00a67 	vmov.f32	s0, s15
   1392c:	ebffff4b 	bl	13660 <inInterval>
   13930:	e1a03000 	mov	r3, r0
   13934:	e3530000 	cmp	r3, #0
   13938:	1a00002b 	bne	139ec <intersects+0x2b8>
   1393c:	ed5b7a0e 	vldr	s15, [fp, #-56]	; 0xffffffc8
   13940:	ed1b7a08 	vldr	s14, [fp, #-32]	; 0xffffffe0
   13944:	ed5b6a0a 	vldr	s13, [fp, #-40]	; 0xffffffd8
   13948:	eddf1a65 	vldr	s3, [pc, #404]	; 13ae4 <intersects+0x3b0>
   1394c:	eeb01a66 	vmov.f32	s2, s13
   13950:	eef00a47 	vmov.f32	s1, s14
   13954:	eeb00a67 	vmov.f32	s0, s15
   13958:	ebffff40 	bl	13660 <inInterval>
   1395c:	e1a03000 	mov	r3, r0
   13960:	e3530000 	cmp	r3, #0
   13964:	0a00000a 	beq	13994 <intersects+0x260>
   13968:	ed5b7a0d 	vldr	s15, [fp, #-52]	; 0xffffffcc
   1396c:	ed1b7a07 	vldr	s14, [fp, #-28]	; 0xffffffe4
   13970:	ed5b6a09 	vldr	s13, [fp, #-36]	; 0xffffffdc
   13974:	eddf1a5a 	vldr	s3, [pc, #360]	; 13ae4 <intersects+0x3b0>
   13978:	eeb01a66 	vmov.f32	s2, s13
   1397c:	eef00a47 	vmov.f32	s1, s14
   13980:	eeb00a67 	vmov.f32	s0, s15
   13984:	ebffff35 	bl	13660 <inInterval>
   13988:	e1a03000 	mov	r3, r0
   1398c:	e3530000 	cmp	r3, #0
   13990:	1a000015 	bne	139ec <intersects+0x2b8>
   13994:	ed5b7a08 	vldr	s15, [fp, #-32]	; 0xffffffe0
   13998:	ed1b7a0c 	vldr	s14, [fp, #-48]	; 0xffffffd0
   1399c:	ed5b6a0e 	vldr	s13, [fp, #-56]	; 0xffffffc8
   139a0:	eddf1a4f 	vldr	s3, [pc, #316]	; 13ae4 <intersects+0x3b0>
   139a4:	eeb01a66 	vmov.f32	s2, s13
   139a8:	eef00a47 	vmov.f32	s1, s14
   139ac:	eeb00a67 	vmov.f32	s0, s15
   139b0:	ebffff2a 	bl	13660 <inInterval>
   139b4:	e1a03000 	mov	r3, r0
   139b8:	e3530000 	cmp	r3, #0
   139bc:	0a00000c 	beq	139f4 <intersects+0x2c0>
   139c0:	ed5b7a07 	vldr	s15, [fp, #-28]	; 0xffffffe4
   139c4:	ed1b7a0b 	vldr	s14, [fp, #-44]	; 0xffffffd4
   139c8:	ed5b6a0d 	vldr	s13, [fp, #-52]	; 0xffffffcc
   139cc:	eddf1a44 	vldr	s3, [pc, #272]	; 13ae4 <intersects+0x3b0>
   139d0:	eeb01a66 	vmov.f32	s2, s13
   139d4:	eef00a47 	vmov.f32	s1, s14
   139d8:	eeb00a67 	vmov.f32	s0, s15
   139dc:	ebffff1f 	bl	13660 <inInterval>
   139e0:	e1a03000 	mov	r3, r0
   139e4:	e3530000 	cmp	r3, #0
   139e8:	0a000001 	beq	139f4 <intersects+0x2c0>
   139ec:	e3a03001 	mov	r3, #1
   139f0:	ea000000 	b	139f8 <intersects+0x2c4>
   139f4:	e3a03000 	mov	r3, #0
   139f8:	e6af3073 	sxtb	r3, r3
   139fc:	ea000035 	b	13ad8 <intersects+0x3a4>
   13a00:	e3a03000 	mov	r3, #0
   13a04:	e54b3016 	strb	r3, [fp, #-22]	; 0xffffffea
   13a08:	e3a03000 	mov	r3, #0
   13a0c:	ea000031 	b	13ad8 <intersects+0x3a4>
   13a10:	e3a03000 	mov	r3, #0
   13a14:	e54b3017 	strb	r3, [fp, #-23]	; 0xffffffe9
   13a18:	e3a03000 	mov	r3, #0
   13a1c:	e54b3016 	strb	r3, [fp, #-22]	; 0xffffffea
   13a20:	ed5b6a02 	vldr	s13, [fp, #-8]
   13a24:	ed1b7a03 	vldr	s14, [fp, #-12]
   13a28:	eec67a87 	vdiv.f32	s15, s13, s14
   13a2c:	ed4b7a04 	vstr	s15, [fp, #-16]
   13a30:	ed1b7a07 	vldr	s14, [fp, #-28]	; 0xffffffe4
   13a34:	ed5b7a0b 	vldr	s15, [fp, #-44]	; 0xffffffd4
   13a38:	ee377a67 	vsub.f32	s14, s14, s15
   13a3c:	ed5b6a0a 	vldr	s13, [fp, #-40]	; 0xffffffd8
   13a40:	ed5b7a08 	vldr	s15, [fp, #-32]	; 0xffffffe0
   13a44:	ee767ae7 	vsub.f32	s15, s13, s15
   13a48:	ee277a27 	vmul.f32	s14, s14, s15
   13a4c:	ed5b6a08 	vldr	s13, [fp, #-32]	; 0xffffffe0
   13a50:	ed5b7a0c 	vldr	s15, [fp, #-48]	; 0xffffffd0
   13a54:	ee766ae7 	vsub.f32	s13, s13, s15
   13a58:	ed1b6a09 	vldr	s12, [fp, #-36]	; 0xffffffdc
   13a5c:	ed5b7a07 	vldr	s15, [fp, #-28]	; 0xffffffe4
   13a60:	ee767a67 	vsub.f32	s15, s12, s15
   13a64:	ee667aa7 	vmul.f32	s15, s13, s15
   13a68:	ee777a67 	vsub.f32	s15, s14, s15
   13a6c:	ed4b7a02 	vstr	s15, [fp, #-8]
   13a70:	ed5b6a02 	vldr	s13, [fp, #-8]
   13a74:	ed1b7a03 	vldr	s14, [fp, #-12]
   13a78:	eec67a87 	vdiv.f32	s15, s13, s14
   13a7c:	ed4b7a05 	vstr	s15, [fp, #-20]	; 0xffffffec
   13a80:	ed5b7a04 	vldr	s15, [fp, #-16]
   13a84:	eef57ac0 	vcmpe.f32	s15, #0.0
   13a88:	eef1fa10 	vmrs	APSR_nzcv, fpscr
   13a8c:	ba00000f 	blt	13ad0 <intersects+0x39c>
   13a90:	ed5b7a04 	vldr	s15, [fp, #-16]
   13a94:	ed9f7a13 	vldr	s14, [pc, #76]	; 13ae8 <intersects+0x3b4>
   13a98:	eef47ac7 	vcmpe.f32	s15, s14
   13a9c:	eef1fa10 	vmrs	APSR_nzcv, fpscr
   13aa0:	8a00000a 	bhi	13ad0 <intersects+0x39c>
   13aa4:	ed5b7a05 	vldr	s15, [fp, #-20]	; 0xffffffec
   13aa8:	eef57ac0 	vcmpe.f32	s15, #0.0
   13aac:	eef1fa10 	vmrs	APSR_nzcv, fpscr
   13ab0:	ba000006 	blt	13ad0 <intersects+0x39c>
   13ab4:	ed5b7a05 	vldr	s15, [fp, #-20]	; 0xffffffec
   13ab8:	ed9f7a0a 	vldr	s14, [pc, #40]	; 13ae8 <intersects+0x3b4>
   13abc:	eef47ac7 	vcmpe.f32	s15, s14
   13ac0:	eef1fa10 	vmrs	APSR_nzcv, fpscr
   13ac4:	8a000001 	bhi	13ad0 <intersects+0x39c>
   13ac8:	e3a03001 	mov	r3, #1
   13acc:	ea000000 	b	13ad4 <intersects+0x3a0>
   13ad0:	e3a03000 	mov	r3, #0
   13ad4:	e6af3073 	sxtb	r3, r3
   13ad8:	e1a00003 	mov	r0, r3
   13adc:	e24bd004 	sub	sp, fp, #4
   13ae0:	e8bd8800 	pop	{fp, pc}
   13ae4:	3727c5ac 	strcc	ip, [r7, -ip, lsr #11]!
   13ae8:	3f800000 	svccc	0x00800000

00013aec <get_intersection>:
   13aec:	e92d4800 	push	{fp, lr}
   13af0:	e28db004 	add	fp, sp, #4
   13af4:	e24dd058 	sub	sp, sp, #88	; 0x58
   13af8:	eeb04a40 	vmov.f32	s8, s0
   13afc:	eef04a60 	vmov.f32	s9, s1
   13b00:	eeb05a41 	vmov.f32	s10, s2
   13b04:	eef05a61 	vmov.f32	s11, s3
   13b08:	eeb06a42 	vmov.f32	s12, s4
   13b0c:	eef06a62 	vmov.f32	s13, s5
   13b10:	eeb07a43 	vmov.f32	s14, s6
   13b14:	eef07a63 	vmov.f32	s15, s7
   13b18:	e50b0058 	str	r0, [fp, #-88]	; 0xffffffa8
   13b1c:	e50b105c 	str	r1, [fp, #-92]	; 0xffffffa4
   13b20:	ed0b4a11 	vstr	s8, [fp, #-68]	; 0xffffffbc
   13b24:	ed4b4a10 	vstr	s9, [fp, #-64]	; 0xffffffc0
   13b28:	ed0b5a0f 	vstr	s10, [fp, #-60]	; 0xffffffc4
   13b2c:	ed4b5a0e 	vstr	s11, [fp, #-56]	; 0xffffffc8
   13b30:	ed0b6a15 	vstr	s12, [fp, #-84]	; 0xffffffac
   13b34:	ed4b6a14 	vstr	s13, [fp, #-80]	; 0xffffffb0
   13b38:	ed0b7a13 	vstr	s14, [fp, #-76]	; 0xffffffb4
   13b3c:	ed4b7a12 	vstr	s15, [fp, #-72]	; 0xffffffb8
   13b40:	e24b301c 	sub	r3, fp, #28
   13b44:	e24b2044 	sub	r2, fp, #68	; 0x44
   13b48:	e8920003 	ldm	r2, {r0, r1}
   13b4c:	e8830003 	stm	r3, {r0, r1}
   13b50:	e24b3024 	sub	r3, fp, #36	; 0x24
   13b54:	e24b203c 	sub	r2, fp, #60	; 0x3c
   13b58:	e8920003 	ldm	r2, {r0, r1}
   13b5c:	e8830003 	stm	r3, {r0, r1}
   13b60:	e24b302c 	sub	r3, fp, #44	; 0x2c
   13b64:	e24b2054 	sub	r2, fp, #84	; 0x54
   13b68:	e8920003 	ldm	r2, {r0, r1}
   13b6c:	e8830003 	stm	r3, {r0, r1}
   13b70:	e24b3034 	sub	r3, fp, #52	; 0x34
   13b74:	e24b204c 	sub	r2, fp, #76	; 0x4c
   13b78:	e8920003 	ldm	r2, {r0, r1}
   13b7c:	e8830003 	stm	r3, {r0, r1}
   13b80:	ed1b7a09 	vldr	s14, [fp, #-36]	; 0xffffffdc
   13b84:	ed5b7a07 	vldr	s15, [fp, #-28]	; 0xffffffe4
   13b88:	ee777a67 	vsub.f32	s15, s14, s15
   13b8c:	eef57a40 	vcmp.f32	s15, #0.0
   13b90:	eef1fa10 	vmrs	APSR_nzcv, fpscr
   13b94:	1a000005 	bne	13bb0 <get_intersection+0xc4>
   13b98:	ed1b7a08 	vldr	s14, [fp, #-32]	; 0xffffffe0
   13b9c:	ed5b7a06 	vldr	s15, [fp, #-24]	; 0xffffffe8
   13ba0:	ee777a67 	vsub.f32	s15, s14, s15
   13ba4:	eef57a40 	vcmp.f32	s15, #0.0
   13ba8:	eef1fa10 	vmrs	APSR_nzcv, fpscr
   13bac:	0a00000b 	beq	13be0 <get_intersection+0xf4>
   13bb0:	ed1b7a0d 	vldr	s14, [fp, #-52]	; 0xffffffcc
   13bb4:	ed5b7a0b 	vldr	s15, [fp, #-44]	; 0xffffffd4
   13bb8:	ee777a67 	vsub.f32	s15, s14, s15
   13bbc:	eef57a40 	vcmp.f32	s15, #0.0
   13bc0:	eef1fa10 	vmrs	APSR_nzcv, fpscr
   13bc4:	1a000007 	bne	13be8 <get_intersection+0xfc>
   13bc8:	ed1b7a0c 	vldr	s14, [fp, #-48]	; 0xffffffd0
   13bcc:	ed5b7a0a 	vldr	s15, [fp, #-40]	; 0xffffffd8
   13bd0:	ee777a67 	vsub.f32	s15, s14, s15
   13bd4:	eef57a40 	vcmp.f32	s15, #0.0
   13bd8:	eef1fa10 	vmrs	APSR_nzcv, fpscr
   13bdc:	1a000001 	bne	13be8 <get_intersection+0xfc>
   13be0:	e3a03001 	mov	r3, #1
   13be4:	ea000000 	b	13bec <get_intersection+0x100>
   13be8:	e3a03000 	mov	r3, #0
   13bec:	e6af2073 	sxtb	r2, r3
   13bf0:	e51b305c 	ldr	r3, [fp, #-92]	; 0xffffffa4
   13bf4:	e5c32003 	strb	r2, [r3, #3]
   13bf8:	e51b305c 	ldr	r3, [fp, #-92]	; 0xffffffa4
   13bfc:	e1d330d3 	ldrsb	r3, [r3, #3]
   13c00:	e3530000 	cmp	r3, #0
   13c04:	0a00001a 	beq	13c74 <get_intersection+0x188>
   13c08:	ed1b7a07 	vldr	s14, [fp, #-28]	; 0xffffffe4
   13c0c:	ed5b7a0b 	vldr	s15, [fp, #-44]	; 0xffffffd4
   13c10:	eeb47a67 	vcmp.f32	s14, s15
   13c14:	eef1fa10 	vmrs	APSR_nzcv, fpscr
   13c18:	1a000006 	bne	13c38 <get_intersection+0x14c>
   13c1c:	ed1b7a06 	vldr	s14, [fp, #-24]	; 0xffffffe8
   13c20:	ed5b7a0a 	vldr	s15, [fp, #-40]	; 0xffffffd8
   13c24:	eeb47a67 	vcmp.f32	s14, s15
   13c28:	eef1fa10 	vmrs	APSR_nzcv, fpscr
   13c2c:	1a000001 	bne	13c38 <get_intersection+0x14c>
   13c30:	e3a03001 	mov	r3, #1
   13c34:	ea000000 	b	13c3c <get_intersection+0x150>
   13c38:	e3a03000 	mov	r3, #0
   13c3c:	e6af2073 	sxtb	r2, r3
   13c40:	e51b305c 	ldr	r3, [fp, #-92]	; 0xffffffa4
   13c44:	e5c32000 	strb	r2, [r3]
   13c48:	e51b305c 	ldr	r3, [fp, #-92]	; 0xffffffa4
   13c4c:	e1d330d0 	ldrsb	r3, [r3]
   13c50:	e3530000 	cmp	r3, #0
   13c54:	0a0000e8 	beq	13ffc <get_intersection+0x510>
   13c58:	e51b201c 	ldr	r2, [fp, #-28]	; 0xffffffe4
   13c5c:	e51b3058 	ldr	r3, [fp, #-88]	; 0xffffffa8
   13c60:	e5832000 	str	r2, [r3]
   13c64:	e51b2018 	ldr	r2, [fp, #-24]	; 0xffffffe8
   13c68:	e51b3058 	ldr	r3, [fp, #-88]	; 0xffffffa8
   13c6c:	e5832004 	str	r2, [r3, #4]
   13c70:	ea0000e1 	b	13ffc <get_intersection+0x510>
   13c74:	ed1b7a06 	vldr	s14, [fp, #-24]	; 0xffffffe8
   13c78:	ed5b7a0a 	vldr	s15, [fp, #-40]	; 0xffffffd8
   13c7c:	ee377a67 	vsub.f32	s14, s14, s15
   13c80:	ed5b6a0d 	vldr	s13, [fp, #-52]	; 0xffffffcc
   13c84:	ed5b7a0b 	vldr	s15, [fp, #-44]	; 0xffffffd4
   13c88:	ee767ae7 	vsub.f32	s15, s13, s15
   13c8c:	ee277a27 	vmul.f32	s14, s14, s15
   13c90:	ed5b6a07 	vldr	s13, [fp, #-28]	; 0xffffffe4
   13c94:	ed5b7a0b 	vldr	s15, [fp, #-44]	; 0xffffffd4
   13c98:	ee766ae7 	vsub.f32	s13, s13, s15
   13c9c:	ed1b6a0c 	vldr	s12, [fp, #-48]	; 0xffffffd0
   13ca0:	ed5b7a0a 	vldr	s15, [fp, #-40]	; 0xffffffd8
   13ca4:	ee767a67 	vsub.f32	s15, s12, s15
   13ca8:	ee667aa7 	vmul.f32	s15, s13, s15
   13cac:	ee777a67 	vsub.f32	s15, s14, s15
   13cb0:	ed4b7a02 	vstr	s15, [fp, #-8]
   13cb4:	ed1b7a09 	vldr	s14, [fp, #-36]	; 0xffffffdc
   13cb8:	ed5b7a07 	vldr	s15, [fp, #-28]	; 0xffffffe4
   13cbc:	ee377a67 	vsub.f32	s14, s14, s15
   13cc0:	ed5b6a0c 	vldr	s13, [fp, #-48]	; 0xffffffd0
   13cc4:	ed5b7a0a 	vldr	s15, [fp, #-40]	; 0xffffffd8
   13cc8:	ee767ae7 	vsub.f32	s15, s13, s15
   13ccc:	ee277a27 	vmul.f32	s14, s14, s15
   13cd0:	ed5b6a08 	vldr	s13, [fp, #-32]	; 0xffffffe0
   13cd4:	ed5b7a06 	vldr	s15, [fp, #-24]	; 0xffffffe8
   13cd8:	ee766ae7 	vsub.f32	s13, s13, s15
   13cdc:	ed1b6a0d 	vldr	s12, [fp, #-52]	; 0xffffffcc
   13ce0:	ed5b7a0b 	vldr	s15, [fp, #-44]	; 0xffffffd4
   13ce4:	ee767a67 	vsub.f32	s15, s12, s15
   13ce8:	ee667aa7 	vmul.f32	s15, s13, s15
   13cec:	ee777a67 	vsub.f32	s15, s14, s15
   13cf0:	ed4b7a03 	vstr	s15, [fp, #-12]
   13cf4:	ed5b7a03 	vldr	s15, [fp, #-12]
   13cf8:	eef57a40 	vcmp.f32	s15, #0.0
   13cfc:	eef1fa10 	vmrs	APSR_nzcv, fpscr
   13d00:	1a000074 	bne	13ed8 <get_intersection+0x3ec>
   13d04:	e51b305c 	ldr	r3, [fp, #-92]	; 0xffffffa4
   13d08:	e3a02001 	mov	r2, #1
   13d0c:	e5c32001 	strb	r2, [r3, #1]
   13d10:	ed5b7a02 	vldr	s15, [fp, #-8]
   13d14:	eef57a40 	vcmp.f32	s15, #0.0
   13d18:	eef1fa10 	vmrs	APSR_nzcv, fpscr
   13d1c:	1a000066 	bne	13ebc <get_intersection+0x3d0>
   13d20:	e51b305c 	ldr	r3, [fp, #-92]	; 0xffffffa4
   13d24:	e3a02001 	mov	r2, #1
   13d28:	e5c32002 	strb	r2, [r3, #2]
   13d2c:	ed5b7a0b 	vldr	s15, [fp, #-44]	; 0xffffffd4
   13d30:	ed1b7a07 	vldr	s14, [fp, #-28]	; 0xffffffe4
   13d34:	ed5b6a09 	vldr	s13, [fp, #-36]	; 0xffffffdc
   13d38:	eddf1ab2 	vldr	s3, [pc, #712]	; 14008 <get_intersection+0x51c>
   13d3c:	eeb01a66 	vmov.f32	s2, s13
   13d40:	eef00a47 	vmov.f32	s1, s14
   13d44:	eeb00a67 	vmov.f32	s0, s15
   13d48:	ebfffe44 	bl	13660 <inInterval>
   13d4c:	e1a03000 	mov	r3, r0
   13d50:	e3530000 	cmp	r3, #0
   13d54:	0a000014 	beq	13dac <get_intersection+0x2c0>
   13d58:	ed5b7a0a 	vldr	s15, [fp, #-40]	; 0xffffffd8
   13d5c:	ed1b7a06 	vldr	s14, [fp, #-24]	; 0xffffffe8
   13d60:	ed5b6a08 	vldr	s13, [fp, #-32]	; 0xffffffe0
   13d64:	eddf1aa7 	vldr	s3, [pc, #668]	; 14008 <get_intersection+0x51c>
   13d68:	eeb01a66 	vmov.f32	s2, s13
   13d6c:	eef00a47 	vmov.f32	s1, s14
   13d70:	eeb00a67 	vmov.f32	s0, s15
   13d74:	ebfffe39 	bl	13660 <inInterval>
   13d78:	e1a03000 	mov	r3, r0
   13d7c:	e3530000 	cmp	r3, #0
   13d80:	0a000009 	beq	13dac <get_intersection+0x2c0>
   13d84:	e51b305c 	ldr	r3, [fp, #-92]	; 0xffffffa4
   13d88:	e3a02001 	mov	r2, #1
   13d8c:	e5c32000 	strb	r2, [r3]
   13d90:	e51b202c 	ldr	r2, [fp, #-44]	; 0xffffffd4
   13d94:	e51b3058 	ldr	r3, [fp, #-88]	; 0xffffffa8
   13d98:	e5832000 	str	r2, [r3]
   13d9c:	e51b2028 	ldr	r2, [fp, #-40]	; 0xffffffd8
   13da0:	e51b3058 	ldr	r3, [fp, #-88]	; 0xffffffa8
   13da4:	e5832004 	str	r2, [r3, #4]
   13da8:	ea000093 	b	13ffc <get_intersection+0x510>
   13dac:	ed5b7a0d 	vldr	s15, [fp, #-52]	; 0xffffffcc
   13db0:	ed1b7a07 	vldr	s14, [fp, #-28]	; 0xffffffe4
   13db4:	ed5b6a09 	vldr	s13, [fp, #-36]	; 0xffffffdc
   13db8:	eddf1a92 	vldr	s3, [pc, #584]	; 14008 <get_intersection+0x51c>
   13dbc:	eeb01a66 	vmov.f32	s2, s13
   13dc0:	eef00a47 	vmov.f32	s1, s14
   13dc4:	eeb00a67 	vmov.f32	s0, s15
   13dc8:	ebfffe24 	bl	13660 <inInterval>
   13dcc:	e1a03000 	mov	r3, r0
   13dd0:	e3530000 	cmp	r3, #0
   13dd4:	0a000014 	beq	13e2c <get_intersection+0x340>
   13dd8:	ed5b7a0c 	vldr	s15, [fp, #-48]	; 0xffffffd0
   13ddc:	ed1b7a06 	vldr	s14, [fp, #-24]	; 0xffffffe8
   13de0:	ed5b6a08 	vldr	s13, [fp, #-32]	; 0xffffffe0
   13de4:	eddf1a87 	vldr	s3, [pc, #540]	; 14008 <get_intersection+0x51c>
   13de8:	eeb01a66 	vmov.f32	s2, s13
   13dec:	eef00a47 	vmov.f32	s1, s14
   13df0:	eeb00a67 	vmov.f32	s0, s15
   13df4:	ebfffe19 	bl	13660 <inInterval>
   13df8:	e1a03000 	mov	r3, r0
   13dfc:	e3530000 	cmp	r3, #0
   13e00:	0a000009 	beq	13e2c <get_intersection+0x340>
   13e04:	e51b305c 	ldr	r3, [fp, #-92]	; 0xffffffa4
   13e08:	e3a02001 	mov	r2, #1
   13e0c:	e5c32000 	strb	r2, [r3]
   13e10:	e51b2034 	ldr	r2, [fp, #-52]	; 0xffffffcc
   13e14:	e51b3058 	ldr	r3, [fp, #-88]	; 0xffffffa8
   13e18:	e5832000 	str	r2, [r3]
   13e1c:	e51b2030 	ldr	r2, [fp, #-48]	; 0xffffffd0
   13e20:	e51b3058 	ldr	r3, [fp, #-88]	; 0xffffffa8
   13e24:	e5832004 	str	r2, [r3, #4]
   13e28:	ea000073 	b	13ffc <get_intersection+0x510>
   13e2c:	ed5b7a07 	vldr	s15, [fp, #-28]	; 0xffffffe4
   13e30:	ed1b7a0b 	vldr	s14, [fp, #-44]	; 0xffffffd4
   13e34:	ed5b6a0d 	vldr	s13, [fp, #-52]	; 0xffffffcc
   13e38:	eddf1a72 	vldr	s3, [pc, #456]	; 14008 <get_intersection+0x51c>
   13e3c:	eeb01a66 	vmov.f32	s2, s13
   13e40:	eef00a47 	vmov.f32	s1, s14
   13e44:	eeb00a67 	vmov.f32	s0, s15
   13e48:	ebfffe04 	bl	13660 <inInterval>
   13e4c:	e1a03000 	mov	r3, r0
   13e50:	e3530000 	cmp	r3, #0
   13e54:	0a000014 	beq	13eac <get_intersection+0x3c0>
   13e58:	ed5b7a06 	vldr	s15, [fp, #-24]	; 0xffffffe8
   13e5c:	ed1b7a0a 	vldr	s14, [fp, #-40]	; 0xffffffd8
   13e60:	ed5b6a0c 	vldr	s13, [fp, #-48]	; 0xffffffd0
   13e64:	eddf1a67 	vldr	s3, [pc, #412]	; 14008 <get_intersection+0x51c>
   13e68:	eeb01a66 	vmov.f32	s2, s13
   13e6c:	eef00a47 	vmov.f32	s1, s14
   13e70:	eeb00a67 	vmov.f32	s0, s15
   13e74:	ebfffdf9 	bl	13660 <inInterval>
   13e78:	e1a03000 	mov	r3, r0
   13e7c:	e3530000 	cmp	r3, #0
   13e80:	0a000009 	beq	13eac <get_intersection+0x3c0>
   13e84:	e51b305c 	ldr	r3, [fp, #-92]	; 0xffffffa4
   13e88:	e3a02001 	mov	r2, #1
   13e8c:	e5c32000 	strb	r2, [r3]
   13e90:	e51b201c 	ldr	r2, [fp, #-28]	; 0xffffffe4
   13e94:	e51b3058 	ldr	r3, [fp, #-88]	; 0xffffffa8
   13e98:	e5832000 	str	r2, [r3]
   13e9c:	e51b2018 	ldr	r2, [fp, #-24]	; 0xffffffe8
   13ea0:	e51b3058 	ldr	r3, [fp, #-88]	; 0xffffffa8
   13ea4:	e5832004 	str	r2, [r3, #4]
   13ea8:	ea000053 	b	13ffc <get_intersection+0x510>
   13eac:	e51b305c 	ldr	r3, [fp, #-92]	; 0xffffffa4
   13eb0:	e3a02000 	mov	r2, #0
   13eb4:	e5c32000 	strb	r2, [r3]
   13eb8:	ea00004f 	b	13ffc <get_intersection+0x510>
   13ebc:	e51b305c 	ldr	r3, [fp, #-92]	; 0xffffffa4
   13ec0:	e3a02000 	mov	r2, #0
   13ec4:	e5c32002 	strb	r2, [r3, #2]
   13ec8:	e51b305c 	ldr	r3, [fp, #-92]	; 0xffffffa4
   13ecc:	e3a02000 	mov	r2, #0
   13ed0:	e5c32000 	strb	r2, [r3]
   13ed4:	ea000048 	b	13ffc <get_intersection+0x510>
   13ed8:	e51b305c 	ldr	r3, [fp, #-92]	; 0xffffffa4
   13edc:	e3a02000 	mov	r2, #0
   13ee0:	e5c32001 	strb	r2, [r3, #1]
   13ee4:	e51b305c 	ldr	r3, [fp, #-92]	; 0xffffffa4
   13ee8:	e3a02000 	mov	r2, #0
   13eec:	e5c32002 	strb	r2, [r3, #2]
   13ef0:	ed5b6a02 	vldr	s13, [fp, #-8]
   13ef4:	ed1b7a03 	vldr	s14, [fp, #-12]
   13ef8:	eec67a87 	vdiv.f32	s15, s13, s14
   13efc:	ed4b7a04 	vstr	s15, [fp, #-16]
   13f00:	ed1b7a06 	vldr	s14, [fp, #-24]	; 0xffffffe8
   13f04:	ed5b7a0a 	vldr	s15, [fp, #-40]	; 0xffffffd8
   13f08:	ee377a67 	vsub.f32	s14, s14, s15
   13f0c:	ed5b6a09 	vldr	s13, [fp, #-36]	; 0xffffffdc
   13f10:	ed5b7a07 	vldr	s15, [fp, #-28]	; 0xffffffe4
   13f14:	ee767ae7 	vsub.f32	s15, s13, s15
   13f18:	ee277a27 	vmul.f32	s14, s14, s15
   13f1c:	ed5b6a07 	vldr	s13, [fp, #-28]	; 0xffffffe4
   13f20:	ed5b7a0b 	vldr	s15, [fp, #-44]	; 0xffffffd4
   13f24:	ee766ae7 	vsub.f32	s13, s13, s15
   13f28:	ed1b6a08 	vldr	s12, [fp, #-32]	; 0xffffffe0
   13f2c:	ed5b7a06 	vldr	s15, [fp, #-24]	; 0xffffffe8
   13f30:	ee767a67 	vsub.f32	s15, s12, s15
   13f34:	ee667aa7 	vmul.f32	s15, s13, s15
   13f38:	ee777a67 	vsub.f32	s15, s14, s15
   13f3c:	ed4b7a02 	vstr	s15, [fp, #-8]
   13f40:	ed5b6a02 	vldr	s13, [fp, #-8]
   13f44:	ed1b7a03 	vldr	s14, [fp, #-12]
   13f48:	eec67a87 	vdiv.f32	s15, s13, s14
   13f4c:	ed4b7a05 	vstr	s15, [fp, #-20]	; 0xffffffec
   13f50:	ed5b7a04 	vldr	s15, [fp, #-16]
   13f54:	eef57ac0 	vcmpe.f32	s15, #0.0
   13f58:	eef1fa10 	vmrs	APSR_nzcv, fpscr
   13f5c:	ba00000f 	blt	13fa0 <get_intersection+0x4b4>
   13f60:	ed5b7a04 	vldr	s15, [fp, #-16]
   13f64:	ed9f7a28 	vldr	s14, [pc, #160]	; 1400c <get_intersection+0x520>
   13f68:	eef47ac7 	vcmpe.f32	s15, s14
   13f6c:	eef1fa10 	vmrs	APSR_nzcv, fpscr
   13f70:	8a00000a 	bhi	13fa0 <get_intersection+0x4b4>
   13f74:	ed5b7a05 	vldr	s15, [fp, #-20]	; 0xffffffec
   13f78:	eef57ac0 	vcmpe.f32	s15, #0.0
   13f7c:	eef1fa10 	vmrs	APSR_nzcv, fpscr
   13f80:	ba000006 	blt	13fa0 <get_intersection+0x4b4>
   13f84:	ed5b7a05 	vldr	s15, [fp, #-20]	; 0xffffffec
   13f88:	ed9f7a1f 	vldr	s14, [pc, #124]	; 1400c <get_intersection+0x520>
   13f8c:	eef47ac7 	vcmpe.f32	s15, s14
   13f90:	eef1fa10 	vmrs	APSR_nzcv, fpscr
   13f94:	8a000001 	bhi	13fa0 <get_intersection+0x4b4>
   13f98:	e3a03001 	mov	r3, #1
   13f9c:	ea000000 	b	13fa4 <get_intersection+0x4b8>
   13fa0:	e3a03000 	mov	r3, #0
   13fa4:	e6af2073 	sxtb	r2, r3
   13fa8:	e51b305c 	ldr	r3, [fp, #-92]	; 0xffffffa4
   13fac:	e5c32000 	strb	r2, [r3]
   13fb0:	ed1b7a07 	vldr	s14, [fp, #-28]	; 0xffffffe4
   13fb4:	ed5b6a09 	vldr	s13, [fp, #-36]	; 0xffffffdc
   13fb8:	ed5b7a07 	vldr	s15, [fp, #-28]	; 0xffffffe4
   13fbc:	ee766ae7 	vsub.f32	s13, s13, s15
   13fc0:	ed5b7a04 	vldr	s15, [fp, #-16]
   13fc4:	ee667aa7 	vmul.f32	s15, s13, s15
   13fc8:	ee777a27 	vadd.f32	s15, s14, s15
   13fcc:	e51b3058 	ldr	r3, [fp, #-88]	; 0xffffffa8
   13fd0:	edc37a00 	vstr	s15, [r3]
   13fd4:	ed1b7a06 	vldr	s14, [fp, #-24]	; 0xffffffe8
   13fd8:	ed5b6a08 	vldr	s13, [fp, #-32]	; 0xffffffe0
   13fdc:	ed5b7a06 	vldr	s15, [fp, #-24]	; 0xffffffe8
   13fe0:	ee766ae7 	vsub.f32	s13, s13, s15
   13fe4:	ed5b7a04 	vldr	s15, [fp, #-16]
   13fe8:	ee667aa7 	vmul.f32	s15, s13, s15
   13fec:	ee777a27 	vadd.f32	s15, s14, s15
   13ff0:	e51b3058 	ldr	r3, [fp, #-88]	; 0xffffffa8
   13ff4:	edc37a01 	vstr	s15, [r3, #4]
   13ff8:	eaffffff 	b	13ffc <get_intersection+0x510>
   13ffc:	e1a00000 	nop			; (mov r0, r0)
   14000:	e24bd004 	sub	sp, fp, #4
   14004:	e8bd8800 	pop	{fp, pc}
   14008:	3727c5ac 	strcc	ip, [r7, -ip, lsr #11]!
   1400c:	3f800000 	svccc	0x00800000

00014010 <test_intersection_point>:
   14010:	e92d4800 	push	{fp, lr}
   14014:	e28db004 	add	fp, sp, #4
   14018:	e24dd048 	sub	sp, sp, #72	; 0x48
   1401c:	eeb06a40 	vmov.f32	s12, s0
   14020:	eef06a60 	vmov.f32	s13, s1
   14024:	eeb07a41 	vmov.f32	s14, s2
   14028:	eef07a61 	vmov.f32	s15, s3
   1402c:	e50b0040 	str	r0, [fp, #-64]	; 0xffffffc0
   14030:	e50b1044 	str	r1, [fp, #-68]	; 0xffffffbc
   14034:	e50b2048 	str	r2, [fp, #-72]	; 0xffffffb8
   14038:	e50b304c 	str	r3, [fp, #-76]	; 0xffffffb4
   1403c:	ed0b6a0d 	vstr	s12, [fp, #-52]	; 0xffffffcc
   14040:	ed4b6a0c 	vstr	s13, [fp, #-48]	; 0xffffffd0
   14044:	ed0b7a0f 	vstr	s14, [fp, #-60]	; 0xffffffc4
   14048:	ed4b7a0e 	vstr	s15, [fp, #-56]	; 0xffffffc8
   1404c:	ed1b6a0f 	vldr	s12, [fp, #-60]	; 0xffffffc4
   14050:	ed5b6a0e 	vldr	s13, [fp, #-56]	; 0xffffffc8
   14054:	ed1b7a0d 	vldr	s14, [fp, #-52]	; 0xffffffcc
   14058:	ed5b7a0c 	vldr	s15, [fp, #-48]	; 0xffffffd0
   1405c:	eeb01a46 	vmov.f32	s2, s12
   14060:	eef01a66 	vmov.f32	s3, s13
   14064:	eeb00a47 	vmov.f32	s0, s14
   14068:	eef00a67 	vmov.f32	s1, s15
   1406c:	ebfffd55 	bl	135c8 <segment>
   14070:	eeb06a40 	vmov.f32	s12, s0
   14074:	eef06a60 	vmov.f32	s13, s1
   14078:	eeb07a41 	vmov.f32	s14, s2
   1407c:	eef07a61 	vmov.f32	s15, s3
   14080:	ed0b6a06 	vstr	s12, [fp, #-24]	; 0xffffffe8
   14084:	ed4b6a05 	vstr	s13, [fp, #-20]	; 0xffffffec
   14088:	ed0b7a04 	vstr	s14, [fp, #-16]
   1408c:	ed4b7a03 	vstr	s15, [fp, #-12]
   14090:	e3a03000 	mov	r3, #0
   14094:	e50b3008 	str	r3, [fp, #-8]
   14098:	e51b3040 	ldr	r3, [fp, #-64]	; 0xffffffc0
   1409c:	e50b3008 	str	r3, [fp, #-8]
   140a0:	ea000062 	b	14230 <test_intersection_point+0x220>
   140a4:	e51b3008 	ldr	r3, [fp, #-8]
   140a8:	e1a03183 	lsl	r3, r3, #3
   140ac:	e51b2048 	ldr	r2, [fp, #-72]	; 0xffffffb8
   140b0:	e0823003 	add	r3, r2, r3
   140b4:	e51b2008 	ldr	r2, [fp, #-8]
   140b8:	e2822001 	add	r2, r2, #1
   140bc:	e1a02182 	lsl	r2, r2, #3
   140c0:	e51b1048 	ldr	r1, [fp, #-72]	; 0xffffffb8
   140c4:	e0812002 	add	r2, r1, r2
   140c8:	ed926a00 	vldr	s12, [r2]
   140cc:	edd26a01 	vldr	s13, [r2, #4]
   140d0:	ed937a00 	vldr	s14, [r3]
   140d4:	edd37a01 	vldr	s15, [r3, #4]
   140d8:	eeb01a46 	vmov.f32	s2, s12
   140dc:	eef01a66 	vmov.f32	s3, s13
   140e0:	eeb00a47 	vmov.f32	s0, s14
   140e4:	eef00a67 	vmov.f32	s1, s15
   140e8:	ebfffd36 	bl	135c8 <segment>
   140ec:	eeb06a40 	vmov.f32	s12, s0
   140f0:	eef06a60 	vmov.f32	s13, s1
   140f4:	eeb07a41 	vmov.f32	s14, s2
   140f8:	eef07a61 	vmov.f32	s15, s3
   140fc:	ed0b6a0a 	vstr	s12, [fp, #-40]	; 0xffffffd8
   14100:	ed4b6a09 	vstr	s13, [fp, #-36]	; 0xffffffdc
   14104:	ed0b7a08 	vstr	s14, [fp, #-32]	; 0xffffffe0
   14108:	ed4b7a07 	vstr	s15, [fp, #-28]	; 0xffffffe4
   1410c:	ed1b4a0a 	vldr	s8, [fp, #-40]	; 0xffffffd8
   14110:	ed5b4a09 	vldr	s9, [fp, #-36]	; 0xffffffdc
   14114:	ed1b5a08 	vldr	s10, [fp, #-32]	; 0xffffffe0
   14118:	ed5b5a07 	vldr	s11, [fp, #-28]	; 0xffffffe4
   1411c:	ed1b6a06 	vldr	s12, [fp, #-24]	; 0xffffffe8
   14120:	ed5b6a05 	vldr	s13, [fp, #-20]	; 0xffffffec
   14124:	ed1b7a04 	vldr	s14, [fp, #-16]
   14128:	ed5b7a03 	vldr	s15, [fp, #-12]
   1412c:	eeb02a44 	vmov.f32	s4, s8
   14130:	eef02a64 	vmov.f32	s5, s9
   14134:	eeb03a45 	vmov.f32	s6, s10
   14138:	eef03a65 	vmov.f32	s7, s11
   1413c:	eeb00a46 	vmov.f32	s0, s12
   14140:	eef00a66 	vmov.f32	s1, s13
   14144:	eeb01a47 	vmov.f32	s2, s14
   14148:	eef01a67 	vmov.f32	s3, s15
   1414c:	ebfffd78 	bl	13734 <intersects>
   14150:	e1a03000 	mov	r3, r0
   14154:	e3530000 	cmp	r3, #0
   14158:	0a000001 	beq	14164 <test_intersection_point+0x154>
   1415c:	e3a03001 	mov	r3, #1
   14160:	ea000038 	b	14248 <test_intersection_point+0x238>
   14164:	e51b3008 	ldr	r3, [fp, #-8]
   14168:	e1a03183 	lsl	r3, r3, #3
   1416c:	e51b204c 	ldr	r2, [fp, #-76]	; 0xffffffb4
   14170:	e0823003 	add	r3, r2, r3
   14174:	e51b2008 	ldr	r2, [fp, #-8]
   14178:	e2822001 	add	r2, r2, #1
   1417c:	e1a02182 	lsl	r2, r2, #3
   14180:	e51b104c 	ldr	r1, [fp, #-76]	; 0xffffffb4
   14184:	e0812002 	add	r2, r1, r2
   14188:	ed926a00 	vldr	s12, [r2]
   1418c:	edd26a01 	vldr	s13, [r2, #4]
   14190:	ed937a00 	vldr	s14, [r3]
   14194:	edd37a01 	vldr	s15, [r3, #4]
   14198:	eeb01a46 	vmov.f32	s2, s12
   1419c:	eef01a66 	vmov.f32	s3, s13
   141a0:	eeb00a47 	vmov.f32	s0, s14
   141a4:	eef00a67 	vmov.f32	s1, s15
   141a8:	ebfffd06 	bl	135c8 <segment>
   141ac:	eeb06a40 	vmov.f32	s12, s0
   141b0:	eef06a60 	vmov.f32	s13, s1
   141b4:	eeb07a41 	vmov.f32	s14, s2
   141b8:	eef07a61 	vmov.f32	s15, s3
   141bc:	ed0b6a0a 	vstr	s12, [fp, #-40]	; 0xffffffd8
   141c0:	ed4b6a09 	vstr	s13, [fp, #-36]	; 0xffffffdc
   141c4:	ed0b7a08 	vstr	s14, [fp, #-32]	; 0xffffffe0
   141c8:	ed4b7a07 	vstr	s15, [fp, #-28]	; 0xffffffe4
   141cc:	ed1b4a0a 	vldr	s8, [fp, #-40]	; 0xffffffd8
   141d0:	ed5b4a09 	vldr	s9, [fp, #-36]	; 0xffffffdc
   141d4:	ed1b5a08 	vldr	s10, [fp, #-32]	; 0xffffffe0
   141d8:	ed5b5a07 	vldr	s11, [fp, #-28]	; 0xffffffe4
   141dc:	ed1b6a06 	vldr	s12, [fp, #-24]	; 0xffffffe8
   141e0:	ed5b6a05 	vldr	s13, [fp, #-20]	; 0xffffffec
   141e4:	ed1b7a04 	vldr	s14, [fp, #-16]
   141e8:	ed5b7a03 	vldr	s15, [fp, #-12]
   141ec:	eeb02a44 	vmov.f32	s4, s8
   141f0:	eef02a64 	vmov.f32	s5, s9
   141f4:	eeb03a45 	vmov.f32	s6, s10
   141f8:	eef03a65 	vmov.f32	s7, s11
   141fc:	eeb00a46 	vmov.f32	s0, s12
   14200:	eef00a66 	vmov.f32	s1, s13
   14204:	eeb01a47 	vmov.f32	s2, s14
   14208:	eef01a67 	vmov.f32	s3, s15
   1420c:	ebfffd48 	bl	13734 <intersects>
   14210:	e1a03000 	mov	r3, r0
   14214:	e3530000 	cmp	r3, #0
   14218:	0a000001 	beq	14224 <test_intersection_point+0x214>
   1421c:	e3a03001 	mov	r3, #1
   14220:	ea000008 	b	14248 <test_intersection_point+0x238>
   14224:	e51b3008 	ldr	r3, [fp, #-8]
   14228:	e2833001 	add	r3, r3, #1
   1422c:	e50b3008 	str	r3, [fp, #-8]
   14230:	e51b3044 	ldr	r3, [fp, #-68]	; 0xffffffbc
   14234:	e2432002 	sub	r2, r3, #2
   14238:	e51b3008 	ldr	r3, [fp, #-8]
   1423c:	e1520003 	cmp	r2, r3
   14240:	aaffff97 	bge	140a4 <test_intersection_point+0x94>
   14244:	e3a03000 	mov	r3, #0
   14248:	e1a00003 	mov	r0, r3
   1424c:	e24bd004 	sub	sp, fp, #4
   14250:	e8bd8800 	pop	{fp, pc}

00014254 <test_intersection_pos>:
   14254:	e92d4800 	push	{fp, lr}
   14258:	e28db004 	add	fp, sp, #4
   1425c:	e24dd030 	sub	sp, sp, #48	; 0x30
   14260:	eef05a40 	vmov.f32	s11, s0
   14264:	eeb06a60 	vmov.f32	s12, s1
   14268:	eef06a41 	vmov.f32	s13, s2
   1426c:	eeb07a61 	vmov.f32	s14, s3
   14270:	eef07a42 	vmov.f32	s15, s4
   14274:	e50b0024 	str	r0, [fp, #-36]	; 0xffffffdc
   14278:	e50b1028 	str	r1, [fp, #-40]	; 0xffffffd8
   1427c:	e50b202c 	str	r2, [fp, #-44]	; 0xffffffd4
   14280:	e50b3030 	str	r3, [fp, #-48]	; 0xffffffd0
   14284:	ed4b5a05 	vstr	s11, [fp, #-20]	; 0xffffffec
   14288:	ed0b6a04 	vstr	s12, [fp, #-16]
   1428c:	ed4b6a08 	vstr	s13, [fp, #-32]	; 0xffffffe0
   14290:	ed0b7a07 	vstr	s14, [fp, #-28]	; 0xffffffe4
   14294:	ed4b7a06 	vstr	s15, [fp, #-24]	; 0xffffffe8
   14298:	e51b3020 	ldr	r3, [fp, #-32]	; 0xffffffe0
   1429c:	e50b300c 	str	r3, [fp, #-12]
   142a0:	e51b301c 	ldr	r3, [fp, #-28]	; 0xffffffe4
   142a4:	e50b3008 	str	r3, [fp, #-8]
   142a8:	ed1b6a03 	vldr	s12, [fp, #-12]
   142ac:	ed5b6a02 	vldr	s13, [fp, #-8]
   142b0:	ed1b7a05 	vldr	s14, [fp, #-20]	; 0xffffffec
   142b4:	ed5b7a04 	vldr	s15, [fp, #-16]
   142b8:	e51b3030 	ldr	r3, [fp, #-48]	; 0xffffffd0
   142bc:	e51b202c 	ldr	r2, [fp, #-44]	; 0xffffffd4
   142c0:	e51b1028 	ldr	r1, [fp, #-40]	; 0xffffffd8
   142c4:	e51b0024 	ldr	r0, [fp, #-36]	; 0xffffffdc
   142c8:	eeb01a46 	vmov.f32	s2, s12
   142cc:	eef01a66 	vmov.f32	s3, s13
   142d0:	eeb00a47 	vmov.f32	s0, s14
   142d4:	eef00a67 	vmov.f32	s1, s15
   142d8:	ebffff4c 	bl	14010 <test_intersection_point>
   142dc:	e1a03000 	mov	r3, r0
   142e0:	e1a00003 	mov	r0, r3
   142e4:	e24bd004 	sub	sp, fp, #4
   142e8:	e8bd8800 	pop	{fp, pc}

000142ec <side_lr_points>:
   142ec:	e24dd010 	sub	sp, sp, #16
   142f0:	e92d4800 	push	{fp, lr}
   142f4:	ed2d8b04 	vpush	{d8-d9}
   142f8:	e28db014 	add	fp, sp, #20
   142fc:	e24dd010 	sub	sp, sp, #16
   14300:	e28bc004 	add	ip, fp, #4
   14304:	e88c000f 	stm	ip, {r0, r1, r2, r3}
   14308:	ed0b0a08 	vstr	s0, [fp, #-32]	; 0xffffffe0
   1430c:	ed9b7a17 	vldr	s14, [fp, #92]	; 0x5c
   14310:	eddb7a02 	vldr	s15, [fp, #8]
   14314:	ee378a67 	vsub.f32	s16, s14, s15
   14318:	ed9b7a02 	vldr	s14, [fp, #8]
   1431c:	eddb7a17 	vldr	s15, [fp, #92]	; 0x5c
   14320:	ee377a67 	vsub.f32	s14, s14, s15
   14324:	eddb6a02 	vldr	s13, [fp, #8]
   14328:	eddb7a17 	vldr	s15, [fp, #92]	; 0x5c
   1432c:	ee767ae7 	vsub.f32	s15, s13, s15
   14330:	ee277a27 	vmul.f32	s14, s14, s15
   14334:	eddb6a03 	vldr	s13, [fp, #12]
   14338:	eddb7a18 	vldr	s15, [fp, #96]	; 0x60
   1433c:	ee766ae7 	vsub.f32	s13, s13, s15
   14340:	ed9b6a03 	vldr	s12, [fp, #12]
   14344:	eddb7a18 	vldr	s15, [fp, #96]	; 0x60
   14348:	ee767a67 	vsub.f32	s15, s12, s15
   1434c:	ee667aa7 	vmul.f32	s15, s13, s15
   14350:	ee777a27 	vadd.f32	s15, s14, s15
   14354:	eeb77ae7 	vcvt.f64.f32	d7, s15
   14358:	eeb00b47 	vmov.f64	d0, d7
   1435c:	ebfff0eb 	bl	10710 <sqrt@plt>
   14360:	eeb07b40 	vmov.f64	d7, d0
   14364:	eeb77bc7 	vcvt.f32.f64	s14, d7
   14368:	eec87a07 	vdiv.f32	s15, s16, s14
   1436c:	eeb77ae7 	vcvt.f64.f32	d7, s15
   14370:	eeb00b47 	vmov.f64	d0, d7
   14374:	ebfff0d0 	bl	106bc <acos@plt>
   14378:	eeb07b40 	vmov.f64	d7, d0
   1437c:	eef77bc7 	vcvt.f32.f64	s15, d7
   14380:	ed4b7a06 	vstr	s15, [fp, #-24]	; 0xffffffe8
   14384:	ed9b7a03 	vldr	s14, [fp, #12]
   14388:	eddb7a18 	vldr	s15, [fp, #96]	; 0x60
   1438c:	eeb47ae7 	vcmpe.f32	s14, s15
   14390:	eef1fa10 	vmrs	APSR_nzcv, fpscr
   14394:	da000002 	ble	143a4 <side_lr_points+0xb8>
   14398:	ed5b7a06 	vldr	s15, [fp, #-24]	; 0xffffffe8
   1439c:	eef17a67 	vneg.f32	s15, s15
   143a0:	ed4b7a06 	vstr	s15, [fp, #-24]	; 0xffffffe8
   143a4:	eddb7a02 	vldr	s15, [fp, #8]
   143a8:	eeb78ae7 	vcvt.f64.f32	d8, s15
   143ac:	ed5b7a08 	vldr	s15, [fp, #-32]	; 0xffffffe0
   143b0:	eeb79ae7 	vcvt.f64.f32	d9, s15
   143b4:	ed5b7a06 	vldr	s15, [fp, #-24]	; 0xffffffe8
   143b8:	eeb77ae7 	vcvt.f64.f32	d7, s15
   143bc:	ed9f6b3f 	vldr	d6, [pc, #252]	; 144c0 <side_lr_points+0x1d4>
   143c0:	ee377b06 	vadd.f64	d7, d7, d6
   143c4:	eeb00b47 	vmov.f64	d0, d7
   143c8:	ebfff0e2 	bl	10758 <cos@plt>
   143cc:	eeb07b40 	vmov.f64	d7, d0
   143d0:	ee297b07 	vmul.f64	d7, d9, d7
   143d4:	ee387b07 	vadd.f64	d7, d8, d7
   143d8:	eef77bc7 	vcvt.f32.f64	s15, d7
   143dc:	e59b30ac 	ldr	r3, [fp, #172]	; 0xac
   143e0:	edc37a00 	vstr	s15, [r3]
   143e4:	eddb7a02 	vldr	s15, [fp, #8]
   143e8:	eeb78ae7 	vcvt.f64.f32	d8, s15
   143ec:	ed5b7a08 	vldr	s15, [fp, #-32]	; 0xffffffe0
   143f0:	eeb79ae7 	vcvt.f64.f32	d9, s15
   143f4:	ed5b7a06 	vldr	s15, [fp, #-24]	; 0xffffffe8
   143f8:	eeb77ae7 	vcvt.f64.f32	d7, s15
   143fc:	ed9f6b2f 	vldr	d6, [pc, #188]	; 144c0 <side_lr_points+0x1d4>
   14400:	ee377b46 	vsub.f64	d7, d7, d6
   14404:	eeb00b47 	vmov.f64	d0, d7
   14408:	ebfff0d2 	bl	10758 <cos@plt>
   1440c:	eeb07b40 	vmov.f64	d7, d0
   14410:	ee297b07 	vmul.f64	d7, d9, d7
   14414:	ee387b07 	vadd.f64	d7, d8, d7
   14418:	eef77bc7 	vcvt.f32.f64	s15, d7
   1441c:	e59b30b0 	ldr	r3, [fp, #176]	; 0xb0
   14420:	edc37a00 	vstr	s15, [r3]
   14424:	eddb7a03 	vldr	s15, [fp, #12]
   14428:	eeb78ae7 	vcvt.f64.f32	d8, s15
   1442c:	ed5b7a08 	vldr	s15, [fp, #-32]	; 0xffffffe0
   14430:	eeb79ae7 	vcvt.f64.f32	d9, s15
   14434:	ed5b7a06 	vldr	s15, [fp, #-24]	; 0xffffffe8
   14438:	eeb77ae7 	vcvt.f64.f32	d7, s15
   1443c:	ed9f6b1f 	vldr	d6, [pc, #124]	; 144c0 <side_lr_points+0x1d4>
   14440:	ee377b06 	vadd.f64	d7, d7, d6
   14444:	eeb00b47 	vmov.f64	d0, d7
   14448:	ebfff0aa 	bl	106f8 <sin@plt>
   1444c:	eeb07b40 	vmov.f64	d7, d0
   14450:	ee297b07 	vmul.f64	d7, d9, d7
   14454:	ee387b07 	vadd.f64	d7, d8, d7
   14458:	eef77bc7 	vcvt.f32.f64	s15, d7
   1445c:	e59b30ac 	ldr	r3, [fp, #172]	; 0xac
   14460:	edc37a01 	vstr	s15, [r3, #4]
   14464:	eddb7a03 	vldr	s15, [fp, #12]
   14468:	eeb78ae7 	vcvt.f64.f32	d8, s15
   1446c:	ed5b7a08 	vldr	s15, [fp, #-32]	; 0xffffffe0
   14470:	eeb79ae7 	vcvt.f64.f32	d9, s15
   14474:	ed5b7a06 	vldr	s15, [fp, #-24]	; 0xffffffe8
   14478:	eeb77ae7 	vcvt.f64.f32	d7, s15
   1447c:	ed9f6b0f 	vldr	d6, [pc, #60]	; 144c0 <side_lr_points+0x1d4>
   14480:	ee377b46 	vsub.f64	d7, d7, d6
   14484:	eeb00b47 	vmov.f64	d0, d7
   14488:	ebfff09a 	bl	106f8 <sin@plt>
   1448c:	eeb07b40 	vmov.f64	d7, d0
   14490:	ee297b07 	vmul.f64	d7, d9, d7
   14494:	ee387b07 	vadd.f64	d7, d8, d7
   14498:	eef77bc7 	vcvt.f32.f64	s15, d7
   1449c:	e59b30b0 	ldr	r3, [fp, #176]	; 0xb0
   144a0:	edc37a01 	vstr	s15, [r3, #4]
   144a4:	e1a00000 	nop			; (mov r0, r0)
   144a8:	e24bd014 	sub	sp, fp, #20
   144ac:	ecbd8b04 	vpop	{d8-d9}
   144b0:	e8bd4800 	pop	{fp, lr}
   144b4:	e28dd010 	add	sp, sp, #16
   144b8:	e12fff1e 	bx	lr
   144bc:	e1a00000 	nop			; (mov r0, r0)
   144c0:	5443d6f4 	strbpl	sp, [r3], #-1780	; 0xfffff90c
   144c4:	3ff921fb 	svccc	0x00f921fb

000144c8 <lr_points>:
   144c8:	e24dd010 	sub	sp, sp, #16
   144cc:	e92d4800 	push	{fp, lr}
   144d0:	ed2d8b04 	vpush	{d8-d9}
   144d4:	e28db014 	add	fp, sp, #20
   144d8:	e24dd018 	sub	sp, sp, #24
   144dc:	e28bc004 	add	ip, fp, #4
   144e0:	e88c000f 	stm	ip, {r0, r1, r2, r3}
   144e4:	ed0b0a0a 	vstr	s0, [fp, #-40]	; 0xffffffd8
   144e8:	ed9b7a03 	vldr	s14, [fp, #12]
   144ec:	eddb7a18 	vldr	s15, [fp, #96]	; 0x60
   144f0:	eeb47ae7 	vcmpe.f32	s14, s15
   144f4:	eef1fa10 	vmrs	APSR_nzcv, fpscr
   144f8:	da00001d 	ble	14574 <lr_points+0xac>
   144fc:	ed9b7a17 	vldr	s14, [fp, #92]	; 0x5c
   14500:	eddb7a02 	vldr	s15, [fp, #8]
   14504:	ee378a67 	vsub.f32	s16, s14, s15
   14508:	ed9b7a02 	vldr	s14, [fp, #8]
   1450c:	eddb7a17 	vldr	s15, [fp, #92]	; 0x5c
   14510:	ee377a67 	vsub.f32	s14, s14, s15
   14514:	eddb6a02 	vldr	s13, [fp, #8]
   14518:	eddb7a17 	vldr	s15, [fp, #92]	; 0x5c
   1451c:	ee767ae7 	vsub.f32	s15, s13, s15
   14520:	ee277a27 	vmul.f32	s14, s14, s15
   14524:	eddb6a03 	vldr	s13, [fp, #12]
   14528:	eddb7a18 	vldr	s15, [fp, #96]	; 0x60
   1452c:	ee766ae7 	vsub.f32	s13, s13, s15
   14530:	ed9b6a03 	vldr	s12, [fp, #12]
   14534:	eddb7a18 	vldr	s15, [fp, #96]	; 0x60
   14538:	ee767a67 	vsub.f32	s15, s12, s15
   1453c:	ee667aa7 	vmul.f32	s15, s13, s15
   14540:	ee777a27 	vadd.f32	s15, s14, s15
   14544:	eeb77ae7 	vcvt.f64.f32	d7, s15
   14548:	eeb00b47 	vmov.f64	d0, d7
   1454c:	ebfff06f 	bl	10710 <sqrt@plt>
   14550:	eeb07b40 	vmov.f64	d7, d0
   14554:	eeb77bc7 	vcvt.f32.f64	s14, d7
   14558:	eec87a07 	vdiv.f32	s15, s16, s14
   1455c:	eeb77ae7 	vcvt.f64.f32	d7, s15
   14560:	eeb00b47 	vmov.f64	d0, d7
   14564:	ebfff054 	bl	106bc <acos@plt>
   14568:	eeb07b40 	vmov.f64	d7, d0
   1456c:	eeb17b47 	vneg.f64	d7, d7
   14570:	ea00001b 	b	145e4 <lr_points+0x11c>
   14574:	ed9b7a17 	vldr	s14, [fp, #92]	; 0x5c
   14578:	eddb7a02 	vldr	s15, [fp, #8]
   1457c:	ee378a67 	vsub.f32	s16, s14, s15
   14580:	ed9b7a02 	vldr	s14, [fp, #8]
   14584:	eddb7a17 	vldr	s15, [fp, #92]	; 0x5c
   14588:	ee377a67 	vsub.f32	s14, s14, s15
   1458c:	eddb6a02 	vldr	s13, [fp, #8]
   14590:	eddb7a17 	vldr	s15, [fp, #92]	; 0x5c
   14594:	ee767ae7 	vsub.f32	s15, s13, s15
   14598:	ee277a27 	vmul.f32	s14, s14, s15
   1459c:	eddb6a03 	vldr	s13, [fp, #12]
   145a0:	eddb7a18 	vldr	s15, [fp, #96]	; 0x60
   145a4:	ee766ae7 	vsub.f32	s13, s13, s15
   145a8:	ed9b6a03 	vldr	s12, [fp, #12]
   145ac:	eddb7a18 	vldr	s15, [fp, #96]	; 0x60
   145b0:	ee767a67 	vsub.f32	s15, s12, s15
   145b4:	ee667aa7 	vmul.f32	s15, s13, s15
   145b8:	ee777a27 	vadd.f32	s15, s14, s15
   145bc:	eeb77ae7 	vcvt.f64.f32	d7, s15
   145c0:	eeb00b47 	vmov.f64	d0, d7
   145c4:	ebfff051 	bl	10710 <sqrt@plt>
   145c8:	eeb07b40 	vmov.f64	d7, d0
   145cc:	eeb77bc7 	vcvt.f32.f64	s14, d7
   145d0:	eec87a07 	vdiv.f32	s15, s16, s14
   145d4:	eeb77ae7 	vcvt.f64.f32	d7, s15
   145d8:	eeb00b47 	vmov.f64	d0, d7
   145dc:	ebfff036 	bl	106bc <acos@plt>
   145e0:	eeb07b40 	vmov.f64	d7, d0
   145e4:	eef77bc7 	vcvt.f32.f64	s15, d7
   145e8:	ed4b7a06 	vstr	s15, [fp, #-24]	; 0xffffffe8
   145ec:	ed9b7a18 	vldr	s14, [fp, #96]	; 0x60
   145f0:	eddb7a2d 	vldr	s15, [fp, #180]	; 0xb4
   145f4:	eeb47ae7 	vcmpe.f32	s14, s15
   145f8:	eef1fa10 	vmrs	APSR_nzcv, fpscr
   145fc:	da00001d 	ble	14678 <lr_points+0x1b0>
   14600:	ed9b7a2c 	vldr	s14, [fp, #176]	; 0xb0
   14604:	eddb7a17 	vldr	s15, [fp, #92]	; 0x5c
   14608:	ee378a67 	vsub.f32	s16, s14, s15
   1460c:	ed9b7a17 	vldr	s14, [fp, #92]	; 0x5c
   14610:	eddb7a2c 	vldr	s15, [fp, #176]	; 0xb0
   14614:	ee377a67 	vsub.f32	s14, s14, s15
   14618:	eddb6a17 	vldr	s13, [fp, #92]	; 0x5c
   1461c:	eddb7a2c 	vldr	s15, [fp, #176]	; 0xb0
   14620:	ee767ae7 	vsub.f32	s15, s13, s15
   14624:	ee277a27 	vmul.f32	s14, s14, s15
   14628:	eddb6a18 	vldr	s13, [fp, #96]	; 0x60
   1462c:	eddb7a2d 	vldr	s15, [fp, #180]	; 0xb4
   14630:	ee766ae7 	vsub.f32	s13, s13, s15
   14634:	ed9b6a18 	vldr	s12, [fp, #96]	; 0x60
   14638:	eddb7a2d 	vldr	s15, [fp, #180]	; 0xb4
   1463c:	ee767a67 	vsub.f32	s15, s12, s15
   14640:	ee667aa7 	vmul.f32	s15, s13, s15
   14644:	ee777a27 	vadd.f32	s15, s14, s15
   14648:	eeb77ae7 	vcvt.f64.f32	d7, s15
   1464c:	eeb00b47 	vmov.f64	d0, d7
   14650:	ebfff02e 	bl	10710 <sqrt@plt>
   14654:	eeb07b40 	vmov.f64	d7, d0
   14658:	eeb77bc7 	vcvt.f32.f64	s14, d7
   1465c:	eec87a07 	vdiv.f32	s15, s16, s14
   14660:	eeb77ae7 	vcvt.f64.f32	d7, s15
   14664:	eeb00b47 	vmov.f64	d0, d7
   14668:	ebfff013 	bl	106bc <acos@plt>
   1466c:	eeb07b40 	vmov.f64	d7, d0
   14670:	eeb17b47 	vneg.f64	d7, d7
   14674:	ea00001b 	b	146e8 <lr_points+0x220>
   14678:	ed9b7a2c 	vldr	s14, [fp, #176]	; 0xb0
   1467c:	eddb7a17 	vldr	s15, [fp, #92]	; 0x5c
   14680:	ee378a67 	vsub.f32	s16, s14, s15
   14684:	ed9b7a17 	vldr	s14, [fp, #92]	; 0x5c
   14688:	eddb7a2c 	vldr	s15, [fp, #176]	; 0xb0
   1468c:	ee377a67 	vsub.f32	s14, s14, s15
   14690:	eddb6a17 	vldr	s13, [fp, #92]	; 0x5c
   14694:	eddb7a2c 	vldr	s15, [fp, #176]	; 0xb0
   14698:	ee767ae7 	vsub.f32	s15, s13, s15
   1469c:	ee277a27 	vmul.f32	s14, s14, s15
   146a0:	eddb6a18 	vldr	s13, [fp, #96]	; 0x60
   146a4:	eddb7a2d 	vldr	s15, [fp, #180]	; 0xb4
   146a8:	ee766ae7 	vsub.f32	s13, s13, s15
   146ac:	ed9b6a18 	vldr	s12, [fp, #96]	; 0x60
   146b0:	eddb7a2d 	vldr	s15, [fp, #180]	; 0xb4
   146b4:	ee767a67 	vsub.f32	s15, s12, s15
   146b8:	ee667aa7 	vmul.f32	s15, s13, s15
   146bc:	ee777a27 	vadd.f32	s15, s14, s15
   146c0:	eeb77ae7 	vcvt.f64.f32	d7, s15
   146c4:	eeb00b47 	vmov.f64	d0, d7
   146c8:	ebfff010 	bl	10710 <sqrt@plt>
   146cc:	eeb07b40 	vmov.f64	d7, d0
   146d0:	eeb77bc7 	vcvt.f32.f64	s14, d7
   146d4:	eec87a07 	vdiv.f32	s15, s16, s14
   146d8:	eeb77ae7 	vcvt.f64.f32	d7, s15
   146dc:	eeb00b47 	vmov.f64	d0, d7
   146e0:	ebffeff5 	bl	106bc <acos@plt>
   146e4:	eeb07b40 	vmov.f64	d7, d0
   146e8:	eef77bc7 	vcvt.f32.f64	s15, d7
   146ec:	ed4b7a07 	vstr	s15, [fp, #-28]	; 0xffffffe4
   146f0:	ed1b7a06 	vldr	s14, [fp, #-24]	; 0xffffffe8
   146f4:	ed5b7a07 	vldr	s15, [fp, #-28]	; 0xffffffe4
   146f8:	ee777a27 	vadd.f32	s15, s14, s15
   146fc:	ed9f7a49 	vldr	s14, [pc, #292]	; 14828 <lr_points+0x360>
   14700:	ee677a87 	vmul.f32	s15, s15, s14
   14704:	ed4b7a08 	vstr	s15, [fp, #-32]	; 0xffffffe0
   14708:	eddb7a17 	vldr	s15, [fp, #92]	; 0x5c
   1470c:	eeb78ae7 	vcvt.f64.f32	d8, s15
   14710:	ed5b7a0a 	vldr	s15, [fp, #-40]	; 0xffffffd8
   14714:	eeb79ae7 	vcvt.f64.f32	d9, s15
   14718:	ed5b7a08 	vldr	s15, [fp, #-32]	; 0xffffffe0
   1471c:	eeb77ae7 	vcvt.f64.f32	d7, s15
   14720:	ed9f6b3e 	vldr	d6, [pc, #248]	; 14820 <lr_points+0x358>
   14724:	ee377b06 	vadd.f64	d7, d7, d6
   14728:	eeb00b47 	vmov.f64	d0, d7
   1472c:	ebfff009 	bl	10758 <cos@plt>
   14730:	eeb07b40 	vmov.f64	d7, d0
   14734:	ee297b07 	vmul.f64	d7, d9, d7
   14738:	ee387b07 	vadd.f64	d7, d8, d7
   1473c:	eef77bc7 	vcvt.f32.f64	s15, d7
   14740:	e59b3100 	ldr	r3, [fp, #256]	; 0x100
   14744:	edc37a00 	vstr	s15, [r3]
   14748:	eddb7a17 	vldr	s15, [fp, #92]	; 0x5c
   1474c:	eeb78ae7 	vcvt.f64.f32	d8, s15
   14750:	ed5b7a0a 	vldr	s15, [fp, #-40]	; 0xffffffd8
   14754:	eeb79ae7 	vcvt.f64.f32	d9, s15
   14758:	ed5b7a08 	vldr	s15, [fp, #-32]	; 0xffffffe0
   1475c:	eeb77ae7 	vcvt.f64.f32	d7, s15
   14760:	ed9f6b2e 	vldr	d6, [pc, #184]	; 14820 <lr_points+0x358>
   14764:	ee377b46 	vsub.f64	d7, d7, d6
   14768:	eeb00b47 	vmov.f64	d0, d7
   1476c:	ebffeff9 	bl	10758 <cos@plt>
   14770:	eeb07b40 	vmov.f64	d7, d0
   14774:	ee297b07 	vmul.f64	d7, d9, d7
   14778:	ee387b07 	vadd.f64	d7, d8, d7
   1477c:	eef77bc7 	vcvt.f32.f64	s15, d7
   14780:	e59b3104 	ldr	r3, [fp, #260]	; 0x104
   14784:	edc37a00 	vstr	s15, [r3]
   14788:	eddb7a18 	vldr	s15, [fp, #96]	; 0x60
   1478c:	eeb78ae7 	vcvt.f64.f32	d8, s15
   14790:	ed5b7a0a 	vldr	s15, [fp, #-40]	; 0xffffffd8
   14794:	eeb79ae7 	vcvt.f64.f32	d9, s15
   14798:	ed5b7a08 	vldr	s15, [fp, #-32]	; 0xffffffe0
   1479c:	eeb77ae7 	vcvt.f64.f32	d7, s15
   147a0:	ed9f6b1e 	vldr	d6, [pc, #120]	; 14820 <lr_points+0x358>
   147a4:	ee377b06 	vadd.f64	d7, d7, d6
   147a8:	eeb00b47 	vmov.f64	d0, d7
   147ac:	ebffefd1 	bl	106f8 <sin@plt>
   147b0:	eeb07b40 	vmov.f64	d7, d0
   147b4:	ee297b07 	vmul.f64	d7, d9, d7
   147b8:	ee387b07 	vadd.f64	d7, d8, d7
   147bc:	eef77bc7 	vcvt.f32.f64	s15, d7
   147c0:	e59b3100 	ldr	r3, [fp, #256]	; 0x100
   147c4:	edc37a01 	vstr	s15, [r3, #4]
   147c8:	eddb7a18 	vldr	s15, [fp, #96]	; 0x60
   147cc:	eeb78ae7 	vcvt.f64.f32	d8, s15
   147d0:	ed5b7a0a 	vldr	s15, [fp, #-40]	; 0xffffffd8
   147d4:	eeb79ae7 	vcvt.f64.f32	d9, s15
   147d8:	ed5b7a08 	vldr	s15, [fp, #-32]	; 0xffffffe0
   147dc:	eeb77ae7 	vcvt.f64.f32	d7, s15
   147e0:	ed9f6b0e 	vldr	d6, [pc, #56]	; 14820 <lr_points+0x358>
   147e4:	ee377b46 	vsub.f64	d7, d7, d6
   147e8:	eeb00b47 	vmov.f64	d0, d7
   147ec:	ebffefc1 	bl	106f8 <sin@plt>
   147f0:	eeb07b40 	vmov.f64	d7, d0
   147f4:	ee297b07 	vmul.f64	d7, d9, d7
   147f8:	ee387b07 	vadd.f64	d7, d8, d7
   147fc:	eef77bc7 	vcvt.f32.f64	s15, d7
   14800:	e59b3104 	ldr	r3, [fp, #260]	; 0x104
   14804:	edc37a01 	vstr	s15, [r3, #4]
   14808:	e1a00000 	nop			; (mov r0, r0)
   1480c:	e24bd014 	sub	sp, fp, #20
   14810:	ecbd8b04 	vpop	{d8-d9}
   14814:	e8bd4800 	pop	{fp, lr}
   14818:	e28dd010 	add	sp, sp, #16
   1481c:	e12fff1e 	bx	lr
   14820:	5443d6f4 	strbpl	sp, [r3], #-1780	; 0xfffff90c
   14824:	3ff921fb 	svccc	0x00f921fb
   14828:	3f000000 	svccc	0x00000000

0001482c <segPoint_point_node>:
   1482c:	e24dd010 	sub	sp, sp, #16
   14830:	e92d4800 	push	{fp, lr}
   14834:	ed2d8b04 	vpush	{d8-d9}
   14838:	e28db014 	add	fp, sp, #20
   1483c:	e24dd040 	sub	sp, sp, #64	; 0x40
   14840:	eeb07a40 	vmov.f32	s14, s0
   14844:	eef07a60 	vmov.f32	s15, s1
   14848:	e28bc004 	add	ip, fp, #4
   1484c:	e88c000f 	stm	ip, {r0, r1, r2, r3}
   14850:	ed0b1a10 	vstr	s2, [fp, #-64]	; 0xffffffc0
   14854:	ed0b7a0f 	vstr	s14, [fp, #-60]	; 0xffffffc4
   14858:	ed4b7a0e 	vstr	s15, [fp, #-56]	; 0xffffffc8
   1485c:	ed1b7a0f 	vldr	s14, [fp, #-60]	; 0xffffffc4
   14860:	eddb7a02 	vldr	s15, [fp, #8]
   14864:	ee377a67 	vsub.f32	s14, s14, s15
   14868:	ed5b6a0f 	vldr	s13, [fp, #-60]	; 0xffffffc4
   1486c:	eddb7a02 	vldr	s15, [fp, #8]
   14870:	ee767ae7 	vsub.f32	s15, s13, s15
   14874:	ee277a27 	vmul.f32	s14, s14, s15
   14878:	ed5b6a0e 	vldr	s13, [fp, #-56]	; 0xffffffc8
   1487c:	eddb7a03 	vldr	s15, [fp, #12]
   14880:	ee766ae7 	vsub.f32	s13, s13, s15
   14884:	ed1b6a0e 	vldr	s12, [fp, #-56]	; 0xffffffc8
   14888:	eddb7a03 	vldr	s15, [fp, #12]
   1488c:	ee767a67 	vsub.f32	s15, s12, s15
   14890:	ee667aa7 	vmul.f32	s15, s13, s15
   14894:	ee777a27 	vadd.f32	s15, s14, s15
   14898:	eeb77ae7 	vcvt.f64.f32	d7, s15
   1489c:	eeb00b47 	vmov.f64	d0, d7
   148a0:	ebffef9a 	bl	10710 <sqrt@plt>
   148a4:	eeb07b40 	vmov.f64	d7, d0
   148a8:	eef77bc7 	vcvt.f32.f64	s15, d7
   148ac:	ed4b7a06 	vstr	s15, [fp, #-24]	; 0xffffffe8
   148b0:	ed1b7a0e 	vldr	s14, [fp, #-56]	; 0xffffffc8
   148b4:	eddb7a03 	vldr	s15, [fp, #12]
   148b8:	eeb47ae7 	vcmpe.f32	s14, s15
   148bc:	eef1fa10 	vmrs	APSR_nzcv, fpscr
   148c0:	da00000a 	ble	148f0 <segPoint_point_node+0xc4>
   148c4:	ed9b7a02 	vldr	s14, [fp, #8]
   148c8:	ed5b7a0f 	vldr	s15, [fp, #-60]	; 0xffffffc4
   148cc:	ee776a67 	vsub.f32	s13, s14, s15
   148d0:	ed1b7a06 	vldr	s14, [fp, #-24]	; 0xffffffe8
   148d4:	eec67a87 	vdiv.f32	s15, s13, s14
   148d8:	eeb77ae7 	vcvt.f64.f32	d7, s15
   148dc:	eeb00b47 	vmov.f64	d0, d7
   148e0:	ebffef75 	bl	106bc <acos@plt>
   148e4:	eeb07b40 	vmov.f64	d7, d0
   148e8:	eeb17b47 	vneg.f64	d7, d7
   148ec:	ea000008 	b	14914 <segPoint_point_node+0xe8>
   148f0:	ed9b7a02 	vldr	s14, [fp, #8]
   148f4:	ed5b7a0f 	vldr	s15, [fp, #-60]	; 0xffffffc4
   148f8:	ee776a67 	vsub.f32	s13, s14, s15
   148fc:	ed1b7a06 	vldr	s14, [fp, #-24]	; 0xffffffe8
   14900:	eec67a87 	vdiv.f32	s15, s13, s14
   14904:	eeb77ae7 	vcvt.f64.f32	d7, s15
   14908:	eeb00b47 	vmov.f64	d0, d7
   1490c:	ebffef6a 	bl	106bc <acos@plt>
   14910:	eeb07b40 	vmov.f64	d7, d0
   14914:	eef77bc7 	vcvt.f32.f64	s15, d7
   14918:	ed4b7a07 	vstr	s15, [fp, #-28]	; 0xffffffe4
   1491c:	ed5b7a0f 	vldr	s15, [fp, #-60]	; 0xffffffc4
   14920:	eeb78ae7 	vcvt.f64.f32	d8, s15
   14924:	ed5b7a10 	vldr	s15, [fp, #-64]	; 0xffffffc0
   14928:	eeb79ae7 	vcvt.f64.f32	d9, s15
   1492c:	ed5b7a07 	vldr	s15, [fp, #-28]	; 0xffffffe4
   14930:	eeb77ae7 	vcvt.f64.f32	d7, s15
   14934:	eeb00b47 	vmov.f64	d0, d7
   14938:	ebffef86 	bl	10758 <cos@plt>
   1493c:	eeb07b40 	vmov.f64	d7, d0
   14940:	ee297b07 	vmul.f64	d7, d9, d7
   14944:	ee387b07 	vadd.f64	d7, d8, d7
   14948:	eef77bc7 	vcvt.f32.f64	s15, d7
   1494c:	ed4b7a0d 	vstr	s15, [fp, #-52]	; 0xffffffcc
   14950:	ed5b7a0e 	vldr	s15, [fp, #-56]	; 0xffffffc8
   14954:	eeb78ae7 	vcvt.f64.f32	d8, s15
   14958:	ed5b7a10 	vldr	s15, [fp, #-64]	; 0xffffffc0
   1495c:	eeb79ae7 	vcvt.f64.f32	d9, s15
   14960:	ed5b7a07 	vldr	s15, [fp, #-28]	; 0xffffffe4
   14964:	eeb77ae7 	vcvt.f64.f32	d7, s15
   14968:	eeb00b47 	vmov.f64	d0, d7
   1496c:	ebffef61 	bl	106f8 <sin@plt>
   14970:	eeb07b40 	vmov.f64	d7, d0
   14974:	ee297b07 	vmul.f64	d7, d9, d7
   14978:	ee387b07 	vadd.f64	d7, d8, d7
   1497c:	eef77bc7 	vcvt.f32.f64	s15, d7
   14980:	ed4b7a0c 	vstr	s15, [fp, #-48]	; 0xffffffd0
   14984:	e51b301c 	ldr	r3, [fp, #-28]	; 0xffffffe4
   14988:	e50b302c 	str	r3, [fp, #-44]	; 0xffffffd4
   1498c:	e24b3028 	sub	r3, fp, #40	; 0x28
   14990:	e24b2034 	sub	r2, fp, #52	; 0x34
   14994:	e8920007 	ldm	r2, {r0, r1, r2}
   14998:	e8830007 	stm	r3, {r0, r1, r2}
   1499c:	e51b1028 	ldr	r1, [fp, #-40]	; 0xffffffd8
   149a0:	e51b2024 	ldr	r2, [fp, #-36]	; 0xffffffdc
   149a4:	e51b3020 	ldr	r3, [fp, #-32]	; 0xffffffe0
   149a8:	ee061a90 	vmov	s13, r1
   149ac:	ee072a10 	vmov	s14, r2
   149b0:	ee073a90 	vmov	s15, r3
   149b4:	eeb00a66 	vmov.f32	s0, s13
   149b8:	eef00a47 	vmov.f32	s1, s14
   149bc:	eeb01a67 	vmov.f32	s2, s15
   149c0:	e24bd014 	sub	sp, fp, #20
   149c4:	ecbd8b04 	vpop	{d8-d9}
   149c8:	e8bd4800 	pop	{fp, lr}
   149cc:	e28dd010 	add	sp, sp, #16
   149d0:	e12fff1e 	bx	lr

000149d4 <is_collision_right>:
   149d4:	e24dd010 	sub	sp, sp, #16
   149d8:	e92d4800 	push	{fp, lr}
   149dc:	ed2d8b02 	vpush	{d8}
   149e0:	e28db00c 	add	fp, sp, #12
   149e4:	e24dd018 	sub	sp, sp, #24
   149e8:	eef06a40 	vmov.f32	s13, s0
   149ec:	eeb07a60 	vmov.f32	s14, s1
   149f0:	eef07a41 	vmov.f32	s15, s2
   149f4:	e28bc004 	add	ip, fp, #4
   149f8:	e88c000f 	stm	ip, {r0, r1, r2, r3}
   149fc:	ed4b6a08 	vstr	s13, [fp, #-32]	; 0xffffffe0
   14a00:	ed0b7a07 	vstr	s14, [fp, #-28]	; 0xffffffe4
   14a04:	ed4b7a06 	vstr	s15, [fp, #-24]	; 0xffffffe8
   14a08:	ed9b7a02 	vldr	s14, [fp, #8]
   14a0c:	ed5b7a08 	vldr	s15, [fp, #-32]	; 0xffffffe0
   14a10:	ee378a67 	vsub.f32	s16, s14, s15
   14a14:	ed1b7a08 	vldr	s14, [fp, #-32]	; 0xffffffe0
   14a18:	eddb7a02 	vldr	s15, [fp, #8]
   14a1c:	ee377a67 	vsub.f32	s14, s14, s15
   14a20:	ed5b6a08 	vldr	s13, [fp, #-32]	; 0xffffffe0
   14a24:	eddb7a02 	vldr	s15, [fp, #8]
   14a28:	ee767ae7 	vsub.f32	s15, s13, s15
   14a2c:	ee277a27 	vmul.f32	s14, s14, s15
   14a30:	ed5b6a07 	vldr	s13, [fp, #-28]	; 0xffffffe4
   14a34:	eddb7a03 	vldr	s15, [fp, #12]
   14a38:	ee766ae7 	vsub.f32	s13, s13, s15
   14a3c:	ed1b6a07 	vldr	s12, [fp, #-28]	; 0xffffffe4
   14a40:	eddb7a03 	vldr	s15, [fp, #12]
   14a44:	ee767a67 	vsub.f32	s15, s12, s15
   14a48:	ee667aa7 	vmul.f32	s15, s13, s15
   14a4c:	ee777a27 	vadd.f32	s15, s14, s15
   14a50:	eeb77ae7 	vcvt.f64.f32	d7, s15
   14a54:	eeb00b47 	vmov.f64	d0, d7
   14a58:	ebffef2c 	bl	10710 <sqrt@plt>
   14a5c:	eeb07b40 	vmov.f64	d7, d0
   14a60:	eeb77bc7 	vcvt.f32.f64	s14, d7
   14a64:	eec87a07 	vdiv.f32	s15, s16, s14
   14a68:	eeb77ae7 	vcvt.f64.f32	d7, s15
   14a6c:	eeb00b47 	vmov.f64	d0, d7
   14a70:	ebffef11 	bl	106bc <acos@plt>
   14a74:	eeb07b40 	vmov.f64	d7, d0
   14a78:	eef77bc7 	vcvt.f32.f64	s15, d7
   14a7c:	ed4b7a04 	vstr	s15, [fp, #-16]
   14a80:	ed1b7a07 	vldr	s14, [fp, #-28]	; 0xffffffe4
   14a84:	eddb7a03 	vldr	s15, [fp, #12]
   14a88:	eeb47ae7 	vcmpe.f32	s14, s15
   14a8c:	eef1fa10 	vmrs	APSR_nzcv, fpscr
   14a90:	da000002 	ble	14aa0 <is_collision_right+0xcc>
   14a94:	ed5b7a04 	vldr	s15, [fp, #-16]
   14a98:	eef17a67 	vneg.f32	s15, s15
   14a9c:	ed4b7a04 	vstr	s15, [fp, #-16]
   14aa0:	ed5b7a06 	vldr	s15, [fp, #-24]	; 0xffffffe8
   14aa4:	ed1b7a04 	vldr	s14, [fp, #-16]
   14aa8:	ee777a27 	vadd.f32	s15, s14, s15
   14aac:	ed4b7a04 	vstr	s15, [fp, #-16]
   14ab0:	ed5b7a04 	vldr	s15, [fp, #-16]
   14ab4:	eeb77ae7 	vcvt.f64.f32	d7, s15
   14ab8:	eeb00b47 	vmov.f64	d0, d7
   14abc:	ebffef25 	bl	10758 <cos@plt>
   14ac0:	eeb07b40 	vmov.f64	d7, d0
   14ac4:	eeb57bc0 	vcmpe.f64	d7, #0.0
   14ac8:	eef1fa10 	vmrs	APSR_nzcv, fpscr
   14acc:	c3a03001 	movgt	r3, #1
   14ad0:	d3a03000 	movle	r3, #0
   14ad4:	e6ef3073 	uxtb	r3, r3
   14ad8:	e6af3073 	sxtb	r3, r3
   14adc:	e1a00003 	mov	r0, r3
   14ae0:	e24bd00c 	sub	sp, fp, #12
   14ae4:	ecbd8b02 	vpop	{d8}
   14ae8:	e8bd4800 	pop	{fp, lr}
   14aec:	e28dd010 	add	sp, sp, #16
   14af0:	e12fff1e 	bx	lr

00014af4 <node_to_point>:
   14af4:	e24dd010 	sub	sp, sp, #16
   14af8:	e52db004 	push	{fp}		; (str fp, [sp, #-4]!)
   14afc:	e28db000 	add	fp, sp, #0
   14b00:	e24dd01c 	sub	sp, sp, #28
   14b04:	e28bc004 	add	ip, fp, #4
   14b08:	e88c000f 	stm	ip, {r0, r1, r2, r3}
   14b0c:	e59b3008 	ldr	r3, [fp, #8]
   14b10:	e50b3014 	str	r3, [fp, #-20]	; 0xffffffec
   14b14:	e59b300c 	ldr	r3, [fp, #12]
   14b18:	e50b3010 	str	r3, [fp, #-16]
   14b1c:	e24b300c 	sub	r3, fp, #12
   14b20:	e24b2014 	sub	r2, fp, #20
   14b24:	e8920003 	ldm	r2, {r0, r1}
   14b28:	e8830003 	stm	r3, {r0, r1}
   14b2c:	e51b200c 	ldr	r2, [fp, #-12]
   14b30:	e51b3008 	ldr	r3, [fp, #-8]
   14b34:	ee072a10 	vmov	s14, r2
   14b38:	ee073a90 	vmov	s15, r3
   14b3c:	eeb00a47 	vmov.f32	s0, s14
   14b40:	eef00a67 	vmov.f32	s1, s15
   14b44:	e28bd000 	add	sp, fp, #0
   14b48:	e49db004 	pop	{fp}		; (ldr fp, [sp], #4)
   14b4c:	e28dd010 	add	sp, sp, #16
   14b50:	e12fff1e 	bx	lr

00014b54 <compute_theta>:
   14b54:	e24dd010 	sub	sp, sp, #16
   14b58:	e92d4800 	push	{fp, lr}
   14b5c:	ed2d8b02 	vpush	{d8}
   14b60:	e28db00c 	add	fp, sp, #12
   14b64:	e28bc004 	add	ip, fp, #4
   14b68:	e88c000f 	stm	ip, {r0, r1, r2, r3}
   14b6c:	ed9b7a03 	vldr	s14, [fp, #12]
   14b70:	eddb7a18 	vldr	s15, [fp, #96]	; 0x60
   14b74:	eeb47ae7 	vcmpe.f32	s14, s15
   14b78:	eef1fa10 	vmrs	APSR_nzcv, fpscr
   14b7c:	da00001d 	ble	14bf8 <compute_theta+0xa4>
   14b80:	ed9b7a17 	vldr	s14, [fp, #92]	; 0x5c
   14b84:	eddb7a02 	vldr	s15, [fp, #8]
   14b88:	ee378a67 	vsub.f32	s16, s14, s15
   14b8c:	ed9b7a02 	vldr	s14, [fp, #8]
   14b90:	eddb7a17 	vldr	s15, [fp, #92]	; 0x5c
   14b94:	ee377a67 	vsub.f32	s14, s14, s15
   14b98:	eddb6a02 	vldr	s13, [fp, #8]
   14b9c:	eddb7a17 	vldr	s15, [fp, #92]	; 0x5c
   14ba0:	ee767ae7 	vsub.f32	s15, s13, s15
   14ba4:	ee277a27 	vmul.f32	s14, s14, s15
   14ba8:	eddb6a03 	vldr	s13, [fp, #12]
   14bac:	eddb7a18 	vldr	s15, [fp, #96]	; 0x60
   14bb0:	ee766ae7 	vsub.f32	s13, s13, s15
   14bb4:	ed9b6a03 	vldr	s12, [fp, #12]
   14bb8:	eddb7a18 	vldr	s15, [fp, #96]	; 0x60
   14bbc:	ee767a67 	vsub.f32	s15, s12, s15
   14bc0:	ee667aa7 	vmul.f32	s15, s13, s15
   14bc4:	ee777a27 	vadd.f32	s15, s14, s15
   14bc8:	eeb77ae7 	vcvt.f64.f32	d7, s15
   14bcc:	eeb00b47 	vmov.f64	d0, d7
   14bd0:	ebffeece 	bl	10710 <sqrt@plt>
   14bd4:	eeb07b40 	vmov.f64	d7, d0
   14bd8:	eeb77bc7 	vcvt.f32.f64	s14, d7
   14bdc:	eec87a07 	vdiv.f32	s15, s16, s14
   14be0:	eeb77ae7 	vcvt.f64.f32	d7, s15
   14be4:	eeb00b47 	vmov.f64	d0, d7
   14be8:	ebffeeb3 	bl	106bc <acos@plt>
   14bec:	eeb07b40 	vmov.f64	d7, d0
   14bf0:	eeb17b47 	vneg.f64	d7, d7
   14bf4:	ea00001b 	b	14c68 <compute_theta+0x114>
   14bf8:	ed9b7a17 	vldr	s14, [fp, #92]	; 0x5c
   14bfc:	eddb7a02 	vldr	s15, [fp, #8]
   14c00:	ee378a67 	vsub.f32	s16, s14, s15
   14c04:	ed9b7a02 	vldr	s14, [fp, #8]
   14c08:	eddb7a17 	vldr	s15, [fp, #92]	; 0x5c
   14c0c:	ee377a67 	vsub.f32	s14, s14, s15
   14c10:	eddb6a02 	vldr	s13, [fp, #8]
   14c14:	eddb7a17 	vldr	s15, [fp, #92]	; 0x5c
   14c18:	ee767ae7 	vsub.f32	s15, s13, s15
   14c1c:	ee277a27 	vmul.f32	s14, s14, s15
   14c20:	eddb6a03 	vldr	s13, [fp, #12]
   14c24:	eddb7a18 	vldr	s15, [fp, #96]	; 0x60
   14c28:	ee766ae7 	vsub.f32	s13, s13, s15
   14c2c:	ed9b6a03 	vldr	s12, [fp, #12]
   14c30:	eddb7a18 	vldr	s15, [fp, #96]	; 0x60
   14c34:	ee767a67 	vsub.f32	s15, s12, s15
   14c38:	ee667aa7 	vmul.f32	s15, s13, s15
   14c3c:	ee777a27 	vadd.f32	s15, s14, s15
   14c40:	eeb77ae7 	vcvt.f64.f32	d7, s15
   14c44:	eeb00b47 	vmov.f64	d0, d7
   14c48:	ebffeeb0 	bl	10710 <sqrt@plt>
   14c4c:	eeb07b40 	vmov.f64	d7, d0
   14c50:	eeb77bc7 	vcvt.f32.f64	s14, d7
   14c54:	eec87a07 	vdiv.f32	s15, s16, s14
   14c58:	eeb77ae7 	vcvt.f64.f32	d7, s15
   14c5c:	eeb00b47 	vmov.f64	d0, d7
   14c60:	ebffee95 	bl	106bc <acos@plt>
   14c64:	eeb07b40 	vmov.f64	d7, d0
   14c68:	eef77bc7 	vcvt.f32.f64	s15, d7
   14c6c:	eeb00a67 	vmov.f32	s0, s15
   14c70:	e24bd00c 	sub	sp, fp, #12
   14c74:	ecbd8b02 	vpop	{d8}
   14c78:	e8bd4800 	pop	{fp, lr}
   14c7c:	e28dd010 	add	sp, sp, #16
   14c80:	e12fff1e 	bx	lr
   14c84:	00000000 	andeq	r0, r0, r0

00014c88 <update_simulation>:
   14c88:	e92d4810 	push	{r4, fp, lr}
   14c8c:	ed2d8b04 	vpush	{d8-d9}
   14c90:	e28db018 	add	fp, sp, #24
   14c94:	e24dd014 	sub	sp, sp, #20
   14c98:	e50b0028 	str	r0, [fp, #-40]	; 0xffffffd8
   14c9c:	e51b3028 	ldr	r3, [fp, #-40]	; 0xffffffd8
   14ca0:	e50b3020 	str	r3, [fp, #-32]	; 0xffffffe0
   14ca4:	e51b3020 	ldr	r3, [fp, #-32]	; 0xffffffe0
   14ca8:	e1d330d0 	ldrsb	r3, [r3]
   14cac:	e3530000 	cmp	r3, #0
   14cb0:	1a00009d 	bne	14f2c <update_simulation+0x2a4>
   14cb4:	e51b3020 	ldr	r3, [fp, #-32]	; 0xffffffe0
   14cb8:	edd37a01 	vldr	s15, [r3, #4]
   14cbc:	eef57ac0 	vcmpe.f32	s15, #0.0
   14cc0:	eef1fa10 	vmrs	APSR_nzcv, fpscr
   14cc4:	ba000003 	blt	14cd8 <update_simulation+0x50>
   14cc8:	e51b3020 	ldr	r3, [fp, #-32]	; 0xffffffe0
   14ccc:	edd37a01 	vldr	s15, [r3, #4]
   14cd0:	eeb77ae7 	vcvt.f64.f32	d7, s15
   14cd4:	ea000000 	b	14cdc <update_simulation+0x54>
   14cd8:	ed9f7b98 	vldr	d7, [pc, #608]	; 14f40 <update_simulation+0x2b8>
   14cdc:	e59f327c 	ldr	r3, [pc, #636]	; 14f60 <update_simulation+0x2d8>
   14ce0:	ed837b00 	vstr	d7, [r3]
   14ce4:	e51b3020 	ldr	r3, [fp, #-32]	; 0xffffffe0
   14ce8:	edd37a02 	vldr	s15, [r3, #8]
   14cec:	eeb77ae7 	vcvt.f64.f32	d7, s15
   14cf0:	ed9f1b94 	vldr	d1, [pc, #592]	; 14f48 <update_simulation+0x2c0>
   14cf4:	eeb00b47 	vmov.f64	d0, d7
   14cf8:	ebffee90 	bl	10740 <fmod@plt>
   14cfc:	eeb07b40 	vmov.f64	d7, d0
   14d00:	e59f325c 	ldr	r3, [pc, #604]	; 14f64 <update_simulation+0x2dc>
   14d04:	ed837b00 	vstr	d7, [r3]
   14d08:	e51b3020 	ldr	r3, [fp, #-32]	; 0xffffffe0
   14d0c:	e5934028 	ldr	r4, [r3, #40]	; 0x28
   14d10:	e51b3020 	ldr	r3, [fp, #-32]	; 0xffffffe0
   14d14:	e5933028 	ldr	r3, [r3, #40]	; 0x28
   14d18:	edd37a00 	vldr	s15, [r3]
   14d1c:	eeb78ae7 	vcvt.f64.f32	d8, s15
   14d20:	e59f3238 	ldr	r3, [pc, #568]	; 14f60 <update_simulation+0x2d8>
   14d24:	ed937b00 	vldr	d7, [r3]
   14d28:	ed9f6b88 	vldr	d6, [pc, #544]	; 14f50 <update_simulation+0x2c8>
   14d2c:	ee279b06 	vmul.f64	d9, d7, d6
   14d30:	e51b3020 	ldr	r3, [fp, #-32]	; 0xffffffe0
   14d34:	e5933028 	ldr	r3, [r3, #40]	; 0x28
   14d38:	edd37a02 	vldr	s15, [r3, #8]
   14d3c:	eeb76ae7 	vcvt.f64.f32	d6, s15
   14d40:	e59f321c 	ldr	r3, [pc, #540]	; 14f64 <update_simulation+0x2dc>
   14d44:	ed937b00 	vldr	d7, [r3]
   14d48:	ed9f5b80 	vldr	d5, [pc, #512]	; 14f50 <update_simulation+0x2c8>
   14d4c:	ee277b05 	vmul.f64	d7, d7, d5
   14d50:	ee367b07 	vadd.f64	d7, d6, d7
   14d54:	eeb00b47 	vmov.f64	d0, d7
   14d58:	ebffee7e 	bl	10758 <cos@plt>
   14d5c:	eeb07b40 	vmov.f64	d7, d0
   14d60:	ee297b07 	vmul.f64	d7, d9, d7
   14d64:	ee387b07 	vadd.f64	d7, d8, d7
   14d68:	eef77bc7 	vcvt.f32.f64	s15, d7
   14d6c:	edc47a00 	vstr	s15, [r4]
   14d70:	e51b3020 	ldr	r3, [fp, #-32]	; 0xffffffe0
   14d74:	e5934028 	ldr	r4, [r3, #40]	; 0x28
   14d78:	e51b3020 	ldr	r3, [fp, #-32]	; 0xffffffe0
   14d7c:	e5933028 	ldr	r3, [r3, #40]	; 0x28
   14d80:	edd37a01 	vldr	s15, [r3, #4]
   14d84:	eeb78ae7 	vcvt.f64.f32	d8, s15
   14d88:	e59f31d0 	ldr	r3, [pc, #464]	; 14f60 <update_simulation+0x2d8>
   14d8c:	ed937b00 	vldr	d7, [r3]
   14d90:	ed9f6b6e 	vldr	d6, [pc, #440]	; 14f50 <update_simulation+0x2c8>
   14d94:	ee279b06 	vmul.f64	d9, d7, d6
   14d98:	e51b3020 	ldr	r3, [fp, #-32]	; 0xffffffe0
   14d9c:	e5933028 	ldr	r3, [r3, #40]	; 0x28
   14da0:	edd37a02 	vldr	s15, [r3, #8]
   14da4:	eeb76ae7 	vcvt.f64.f32	d6, s15
   14da8:	e59f31b4 	ldr	r3, [pc, #436]	; 14f64 <update_simulation+0x2dc>
   14dac:	ed937b00 	vldr	d7, [r3]
   14db0:	ed9f5b66 	vldr	d5, [pc, #408]	; 14f50 <update_simulation+0x2c8>
   14db4:	ee277b05 	vmul.f64	d7, d7, d5
   14db8:	ee367b07 	vadd.f64	d7, d6, d7
   14dbc:	eeb00b47 	vmov.f64	d0, d7
   14dc0:	ebffee4c 	bl	106f8 <sin@plt>
   14dc4:	eeb07b40 	vmov.f64	d7, d0
   14dc8:	ee297b07 	vmul.f64	d7, d9, d7
   14dcc:	ee387b07 	vadd.f64	d7, d8, d7
   14dd0:	eef77bc7 	vcvt.f32.f64	s15, d7
   14dd4:	edc47a01 	vstr	s15, [r4, #4]
   14dd8:	e51b3020 	ldr	r3, [fp, #-32]	; 0xffffffe0
   14ddc:	e5933028 	ldr	r3, [r3, #40]	; 0x28
   14de0:	e51b2020 	ldr	r2, [fp, #-32]	; 0xffffffe0
   14de4:	e5922028 	ldr	r2, [r2, #40]	; 0x28
   14de8:	edd27a02 	vldr	s15, [r2, #8]
   14dec:	eeb76ae7 	vcvt.f64.f32	d6, s15
   14df0:	e59f216c 	ldr	r2, [pc, #364]	; 14f64 <update_simulation+0x2dc>
   14df4:	ed927b00 	vldr	d7, [r2]
   14df8:	ed9f5b54 	vldr	d5, [pc, #336]	; 14f50 <update_simulation+0x2c8>
   14dfc:	ee277b05 	vmul.f64	d7, d7, d5
   14e00:	ee367b07 	vadd.f64	d7, d6, d7
   14e04:	eef77bc7 	vcvt.f32.f64	s15, d7
   14e08:	edc37a02 	vstr	s15, [r3, #8]
   14e0c:	e51b3020 	ldr	r3, [fp, #-32]	; 0xffffffe0
   14e10:	e593302c 	ldr	r3, [r3, #44]	; 0x2c
   14e14:	e51b2020 	ldr	r2, [fp, #-32]	; 0xffffffe0
   14e18:	e5922028 	ldr	r2, [r2, #40]	; 0x28
   14e1c:	edd27a02 	vldr	s15, [r2, #8]
   14e20:	eeb77ae7 	vcvt.f64.f32	d7, s15
   14e24:	ed837b00 	vstr	d7, [r3]
   14e28:	e51b3020 	ldr	r3, [fp, #-32]	; 0xffffffe0
   14e2c:	e593302c 	ldr	r3, [r3, #44]	; 0x2c
   14e30:	e3a02001 	mov	r2, #1
   14e34:	e5c32008 	strb	r2, [r3, #8]
   14e38:	e51b3020 	ldr	r3, [fp, #-32]	; 0xffffffe0
   14e3c:	e5933030 	ldr	r3, [r3, #48]	; 0x30
   14e40:	e51b2020 	ldr	r2, [fp, #-32]	; 0xffffffe0
   14e44:	e5922028 	ldr	r2, [r2, #40]	; 0x28
   14e48:	edd27a00 	vldr	s15, [r2]
   14e4c:	eeb77ae7 	vcvt.f64.f32	d7, s15
   14e50:	ed837b00 	vstr	d7, [r3]
   14e54:	e51b3020 	ldr	r3, [fp, #-32]	; 0xffffffe0
   14e58:	e5933030 	ldr	r3, [r3, #48]	; 0x30
   14e5c:	e51b2020 	ldr	r2, [fp, #-32]	; 0xffffffe0
   14e60:	e5922028 	ldr	r2, [r2, #40]	; 0x28
   14e64:	edd27a01 	vldr	s15, [r2, #4]
   14e68:	eeb77ae7 	vcvt.f64.f32	d7, s15
   14e6c:	ed837b02 	vstr	d7, [r3, #8]
   14e70:	e51b3020 	ldr	r3, [fp, #-32]	; 0xffffffe0
   14e74:	e5933030 	ldr	r3, [r3, #48]	; 0x30
   14e78:	e3a02001 	mov	r2, #1
   14e7c:	e5c32010 	strb	r2, [r3, #16]
   14e80:	e51b3020 	ldr	r3, [fp, #-32]	; 0xffffffe0
   14e84:	e5933034 	ldr	r3, [r3, #52]	; 0x34
   14e88:	e59f20d8 	ldr	r2, [pc, #216]	; 14f68 <update_simulation+0x2e0>
   14e8c:	ed927b04 	vldr	d7, [r2, #16]
   14e90:	ed9f5b30 	vldr	d5, [pc, #192]	; 14f58 <update_simulation+0x2d0>
   14e94:	ee876b05 	vdiv.f64	d6, d7, d5
   14e98:	e59f20c4 	ldr	r2, [pc, #196]	; 14f64 <update_simulation+0x2dc>
   14e9c:	ed927b00 	vldr	d7, [r2]
   14ea0:	ee266b07 	vmul.f64	d6, d6, d7
   14ea4:	e59f20b4 	ldr	r2, [pc, #180]	; 14f60 <update_simulation+0x2d8>
   14ea8:	ed927b00 	vldr	d7, [r2]
   14eac:	ee367b47 	vsub.f64	d7, d6, d7
   14eb0:	ee375b07 	vadd.f64	d5, d7, d7
   14eb4:	e59f20ac 	ldr	r2, [pc, #172]	; 14f68 <update_simulation+0x2e0>
   14eb8:	ed926b02 	vldr	d6, [r2, #8]
   14ebc:	ee857b06 	vdiv.f64	d7, d5, d6
   14ec0:	ed837b00 	vstr	d7, [r3]
   14ec4:	e51b3020 	ldr	r3, [fp, #-32]	; 0xffffffe0
   14ec8:	e5933034 	ldr	r3, [r3, #52]	; 0x34
   14ecc:	e59f208c 	ldr	r2, [pc, #140]	; 14f60 <update_simulation+0x2d8>
   14ed0:	ed927b00 	vldr	d7, [r2]
   14ed4:	eeb16b47 	vneg.f64	d6, d7
   14ed8:	e59f2088 	ldr	r2, [pc, #136]	; 14f68 <update_simulation+0x2e0>
   14edc:	ed927b04 	vldr	d7, [r2, #16]
   14ee0:	ed9f4b1c 	vldr	d4, [pc, #112]	; 14f58 <update_simulation+0x2d0>
   14ee4:	ee875b04 	vdiv.f64	d5, d7, d4
   14ee8:	e59f2074 	ldr	r2, [pc, #116]	; 14f64 <update_simulation+0x2dc>
   14eec:	ed927b00 	vldr	d7, [r2]
   14ef0:	ee257b07 	vmul.f64	d7, d5, d7
   14ef4:	ee367b47 	vsub.f64	d7, d6, d7
   14ef8:	ee375b07 	vadd.f64	d5, d7, d7
   14efc:	e59f2064 	ldr	r2, [pc, #100]	; 14f68 <update_simulation+0x2e0>
   14f00:	ed926b00 	vldr	d6, [r2]
   14f04:	ee857b06 	vdiv.f64	d7, d5, d6
   14f08:	ed837b02 	vstr	d7, [r3, #8]
   14f0c:	e51b3020 	ldr	r3, [fp, #-32]	; 0xffffffe0
   14f10:	e5930030 	ldr	r0, [r3, #48]	; 0x30
   14f14:	e51b3020 	ldr	r3, [fp, #-32]	; 0xffffffe0
   14f18:	e593102c 	ldr	r1, [r3, #44]	; 0x2c
   14f1c:	e51b3020 	ldr	r3, [fp, #-32]	; 0xffffffe0
   14f20:	e5932034 	ldr	r2, [r3, #52]	; 0x34
   14f24:	e3a03001 	mov	r3, #1
   14f28:	ebfff96e 	bl	134e8 <sensor_data_randomize>
   14f2c:	e1a00000 	nop			; (mov r0, r0)
   14f30:	e1a00003 	mov	r0, r3
   14f34:	e24bd018 	sub	sp, fp, #24
   14f38:	ecbd8b04 	vpop	{d8-d9}
   14f3c:	e8bd8810 	pop	{r4, fp, pc}
	...
   14f48:	2955385e 	ldmdbcs	r5, {r1, r2, r3, r4, r6, fp, ip, sp}^
   14f4c:	404f6a7a 	submi	r6, pc, sl, ror sl	; <UNPREDICTABLE>
   14f50:	9999999a 	ldmibls	r9, {r1, r3, r4, r7, r8, fp, ip, pc}
   14f54:	3fb99999 	svccc	0x00b99999
   14f58:	00000000 	andeq	r0, r0, r0
   14f5c:	40000000 	andmi	r0, r0, r0
   14f60:	0002af38 	andeq	sl, r2, r8, lsr pc
   14f64:	0002af40 	andeq	sl, r2, r0, asr #30
   14f68:	00016788 	andeq	r6, r1, r8, lsl #15
   14f6c:	00000000 	andeq	r0, r0, r0

00014f70 <mat_mul_scal>:
   14f70:	e52db004 	push	{fp}		; (str fp, [sp, #-4]!)
   14f74:	e28db000 	add	fp, sp, #0
   14f78:	e24dd01c 	sub	sp, sp, #28
   14f7c:	e50b0010 	str	r0, [fp, #-16]
   14f80:	ed0b0b07 	vstr	d0, [fp, #-28]	; 0xffffffe4
   14f84:	e3a03000 	mov	r3, #0
   14f88:	e50b3008 	str	r3, [fp, #-8]
   14f8c:	ea000025 	b	15028 <mat_mul_scal+0xb8>
   14f90:	e3a03000 	mov	r3, #0
   14f94:	e50b300c 	str	r3, [fp, #-12]
   14f98:	ea00001a 	b	15008 <mat_mul_scal+0x98>
   14f9c:	e51b3010 	ldr	r3, [fp, #-16]
   14fa0:	e5932008 	ldr	r2, [r3, #8]
   14fa4:	e51b3010 	ldr	r3, [fp, #-16]
   14fa8:	e5933004 	ldr	r3, [r3, #4]
   14fac:	e51b100c 	ldr	r1, [fp, #-12]
   14fb0:	e0010391 	mul	r1, r1, r3
   14fb4:	e51b3008 	ldr	r3, [fp, #-8]
   14fb8:	e0813003 	add	r3, r1, r3
   14fbc:	e51b1010 	ldr	r1, [fp, #-16]
   14fc0:	e5910008 	ldr	r0, [r1, #8]
   14fc4:	e51b1010 	ldr	r1, [fp, #-16]
   14fc8:	e5911004 	ldr	r1, [r1, #4]
   14fcc:	e51bc00c 	ldr	ip, [fp, #-12]
   14fd0:	e00c019c 	mul	ip, ip, r1
   14fd4:	e51b1008 	ldr	r1, [fp, #-8]
   14fd8:	e08c1001 	add	r1, ip, r1
   14fdc:	e1a01181 	lsl	r1, r1, #3
   14fe0:	e0801001 	add	r1, r0, r1
   14fe4:	ed916b00 	vldr	d6, [r1]
   14fe8:	ed1b7b07 	vldr	d7, [fp, #-28]	; 0xffffffe4
   14fec:	ee267b07 	vmul.f64	d7, d6, d7
   14ff0:	e1a03183 	lsl	r3, r3, #3
   14ff4:	e0823003 	add	r3, r2, r3
   14ff8:	ed837b00 	vstr	d7, [r3]
   14ffc:	e51b300c 	ldr	r3, [fp, #-12]
   15000:	e2833001 	add	r3, r3, #1
   15004:	e50b300c 	str	r3, [fp, #-12]
   15008:	e51b3010 	ldr	r3, [fp, #-16]
   1500c:	e5932000 	ldr	r2, [r3]
   15010:	e51b300c 	ldr	r3, [fp, #-12]
   15014:	e1520003 	cmp	r2, r3
   15018:	caffffdf 	bgt	14f9c <mat_mul_scal+0x2c>
   1501c:	e51b3008 	ldr	r3, [fp, #-8]
   15020:	e2833001 	add	r3, r3, #1
   15024:	e50b3008 	str	r3, [fp, #-8]
   15028:	e51b3010 	ldr	r3, [fp, #-16]
   1502c:	e5932004 	ldr	r2, [r3, #4]
   15030:	e51b3008 	ldr	r3, [fp, #-8]
   15034:	e1520003 	cmp	r2, r3
   15038:	caffffd4 	bgt	14f90 <mat_mul_scal+0x20>
   1503c:	e1a00000 	nop			; (mov r0, r0)
   15040:	e28bd000 	add	sp, fp, #0
   15044:	e49db004 	pop	{fp}		; (ldr fp, [sp], #4)
   15048:	e12fff1e 	bx	lr

0001504c <mat_copy>:
   1504c:	e92d4800 	push	{fp, lr}
   15050:	e28db004 	add	fp, sp, #4
   15054:	e24dd010 	sub	sp, sp, #16
   15058:	e50b0010 	str	r0, [fp, #-16]
   1505c:	e50b1014 	str	r1, [fp, #-20]	; 0xffffffec
   15060:	e51b3014 	ldr	r3, [fp, #-20]	; 0xffffffec
   15064:	e5932000 	ldr	r2, [r3]
   15068:	e51b3010 	ldr	r3, [fp, #-16]
   1506c:	e5933000 	ldr	r3, [r3]
   15070:	e1520003 	cmp	r2, r3
   15074:	1a000014 	bne	150cc <mat_copy+0x80>
   15078:	e51b3014 	ldr	r3, [fp, #-20]	; 0xffffffec
   1507c:	e5932004 	ldr	r2, [r3, #4]
   15080:	e51b3010 	ldr	r3, [fp, #-16]
   15084:	e5933004 	ldr	r3, [r3, #4]
   15088:	e1520003 	cmp	r2, r3
   1508c:	1a00000e 	bne	150cc <mat_copy+0x80>
   15090:	e51b3010 	ldr	r3, [fp, #-16]
   15094:	e5933000 	ldr	r3, [r3]
   15098:	e51b2010 	ldr	r2, [fp, #-16]
   1509c:	e5922004 	ldr	r2, [r2, #4]
   150a0:	e0030392 	mul	r3, r2, r3
   150a4:	e1a03183 	lsl	r3, r3, #3
   150a8:	e50b3008 	str	r3, [fp, #-8]
   150ac:	e51b3010 	ldr	r3, [fp, #-16]
   150b0:	e5930008 	ldr	r0, [r3, #8]
   150b4:	e51b3014 	ldr	r3, [fp, #-20]	; 0xffffffec
   150b8:	e5933008 	ldr	r3, [r3, #8]
   150bc:	e51b2008 	ldr	r2, [fp, #-8]
   150c0:	e1a01003 	mov	r1, r3
   150c4:	ebffed70 	bl	1068c <memcpy@plt>
   150c8:	ea000000 	b	150d0 <mat_copy+0x84>
   150cc:	e1a00000 	nop			; (mov r0, r0)
   150d0:	e24bd004 	sub	sp, fp, #4
   150d4:	e8bd8800 	pop	{fp, pc}

000150d8 <mat_add>:
   150d8:	e52db004 	push	{fp}		; (str fp, [sp, #-4]!)
   150dc:	e28db000 	add	fp, sp, #0
   150e0:	e24dd01c 	sub	sp, sp, #28
   150e4:	e50b0010 	str	r0, [fp, #-16]
   150e8:	e50b1014 	str	r1, [fp, #-20]	; 0xffffffec
   150ec:	e50b2018 	str	r2, [fp, #-24]	; 0xffffffe8
   150f0:	e51b3010 	ldr	r3, [fp, #-16]
   150f4:	e5932000 	ldr	r2, [r3]
   150f8:	e51b3014 	ldr	r3, [fp, #-20]	; 0xffffffec
   150fc:	e5933000 	ldr	r3, [r3]
   15100:	e1520003 	cmp	r2, r3
   15104:	1a00004a 	bne	15234 <mat_add+0x15c>
   15108:	e51b3010 	ldr	r3, [fp, #-16]
   1510c:	e5932004 	ldr	r2, [r3, #4]
   15110:	e51b3014 	ldr	r3, [fp, #-20]	; 0xffffffec
   15114:	e5933004 	ldr	r3, [r3, #4]
   15118:	e1520003 	cmp	r2, r3
   1511c:	1a000044 	bne	15234 <mat_add+0x15c>
   15120:	e51b3018 	ldr	r3, [fp, #-24]	; 0xffffffe8
   15124:	e5932000 	ldr	r2, [r3]
   15128:	e51b3010 	ldr	r3, [fp, #-16]
   1512c:	e5933000 	ldr	r3, [r3]
   15130:	e1520003 	cmp	r2, r3
   15134:	1a00003e 	bne	15234 <mat_add+0x15c>
   15138:	e51b3018 	ldr	r3, [fp, #-24]	; 0xffffffe8
   1513c:	e5932004 	ldr	r2, [r3, #4]
   15140:	e51b3010 	ldr	r3, [fp, #-16]
   15144:	e5933004 	ldr	r3, [r3, #4]
   15148:	e1520003 	cmp	r2, r3
   1514c:	1a000038 	bne	15234 <mat_add+0x15c>
   15150:	e3a03000 	mov	r3, #0
   15154:	e50b3008 	str	r3, [fp, #-8]
   15158:	ea00002f 	b	1521c <mat_add+0x144>
   1515c:	e3a03000 	mov	r3, #0
   15160:	e50b300c 	str	r3, [fp, #-12]
   15164:	ea000024 	b	151fc <mat_add+0x124>
   15168:	e51b3018 	ldr	r3, [fp, #-24]	; 0xffffffe8
   1516c:	e5932008 	ldr	r2, [r3, #8]
   15170:	e51b3018 	ldr	r3, [fp, #-24]	; 0xffffffe8
   15174:	e5933004 	ldr	r3, [r3, #4]
   15178:	e51b100c 	ldr	r1, [fp, #-12]
   1517c:	e0010391 	mul	r1, r1, r3
   15180:	e51b3008 	ldr	r3, [fp, #-8]
   15184:	e0813003 	add	r3, r1, r3
   15188:	e51b1010 	ldr	r1, [fp, #-16]
   1518c:	e5910008 	ldr	r0, [r1, #8]
   15190:	e51b1010 	ldr	r1, [fp, #-16]
   15194:	e5911004 	ldr	r1, [r1, #4]
   15198:	e51bc00c 	ldr	ip, [fp, #-12]
   1519c:	e00c019c 	mul	ip, ip, r1
   151a0:	e51b1008 	ldr	r1, [fp, #-8]
   151a4:	e08c1001 	add	r1, ip, r1
   151a8:	e1a01181 	lsl	r1, r1, #3
   151ac:	e0801001 	add	r1, r0, r1
   151b0:	ed916b00 	vldr	d6, [r1]
   151b4:	e51b1014 	ldr	r1, [fp, #-20]	; 0xffffffec
   151b8:	e5910008 	ldr	r0, [r1, #8]
   151bc:	e51b1014 	ldr	r1, [fp, #-20]	; 0xffffffec
   151c0:	e5911004 	ldr	r1, [r1, #4]
   151c4:	e51bc00c 	ldr	ip, [fp, #-12]
   151c8:	e00c019c 	mul	ip, ip, r1
   151cc:	e51b1008 	ldr	r1, [fp, #-8]
   151d0:	e08c1001 	add	r1, ip, r1
   151d4:	e1a01181 	lsl	r1, r1, #3
   151d8:	e0801001 	add	r1, r0, r1
   151dc:	ed917b00 	vldr	d7, [r1]
   151e0:	ee367b07 	vadd.f64	d7, d6, d7
   151e4:	e1a03183 	lsl	r3, r3, #3
   151e8:	e0823003 	add	r3, r2, r3
   151ec:	ed837b00 	vstr	d7, [r3]
   151f0:	e51b300c 	ldr	r3, [fp, #-12]
   151f4:	e2833001 	add	r3, r3, #1
   151f8:	e50b300c 	str	r3, [fp, #-12]
   151fc:	e51b3018 	ldr	r3, [fp, #-24]	; 0xffffffe8
   15200:	e5932000 	ldr	r2, [r3]
   15204:	e51b300c 	ldr	r3, [fp, #-12]
   15208:	e1520003 	cmp	r2, r3
   1520c:	caffffd5 	bgt	15168 <mat_add+0x90>
   15210:	e51b3008 	ldr	r3, [fp, #-8]
   15214:	e2833001 	add	r3, r3, #1
   15218:	e50b3008 	str	r3, [fp, #-8]
   1521c:	e51b3018 	ldr	r3, [fp, #-24]	; 0xffffffe8
   15220:	e5932004 	ldr	r2, [r3, #4]
   15224:	e51b3008 	ldr	r3, [fp, #-8]
   15228:	e1520003 	cmp	r2, r3
   1522c:	caffffca 	bgt	1515c <mat_add+0x84>
   15230:	ea000000 	b	15238 <mat_add+0x160>
   15234:	e1a00000 	nop			; (mov r0, r0)
   15238:	e28bd000 	add	sp, fp, #0
   1523c:	e49db004 	pop	{fp}		; (ldr fp, [sp], #4)
   15240:	e12fff1e 	bx	lr

00015244 <mat_sub>:
   15244:	e52db004 	push	{fp}		; (str fp, [sp, #-4]!)
   15248:	e28db000 	add	fp, sp, #0
   1524c:	e24dd01c 	sub	sp, sp, #28
   15250:	e50b0010 	str	r0, [fp, #-16]
   15254:	e50b1014 	str	r1, [fp, #-20]	; 0xffffffec
   15258:	e50b2018 	str	r2, [fp, #-24]	; 0xffffffe8
   1525c:	e51b3010 	ldr	r3, [fp, #-16]
   15260:	e5932000 	ldr	r2, [r3]
   15264:	e51b3014 	ldr	r3, [fp, #-20]	; 0xffffffec
   15268:	e5933000 	ldr	r3, [r3]
   1526c:	e1520003 	cmp	r2, r3
   15270:	1a00004a 	bne	153a0 <mat_sub+0x15c>
   15274:	e51b3010 	ldr	r3, [fp, #-16]
   15278:	e5932004 	ldr	r2, [r3, #4]
   1527c:	e51b3014 	ldr	r3, [fp, #-20]	; 0xffffffec
   15280:	e5933004 	ldr	r3, [r3, #4]
   15284:	e1520003 	cmp	r2, r3
   15288:	1a000044 	bne	153a0 <mat_sub+0x15c>
   1528c:	e51b3018 	ldr	r3, [fp, #-24]	; 0xffffffe8
   15290:	e5932000 	ldr	r2, [r3]
   15294:	e51b3010 	ldr	r3, [fp, #-16]
   15298:	e5933000 	ldr	r3, [r3]
   1529c:	e1520003 	cmp	r2, r3
   152a0:	1a00003e 	bne	153a0 <mat_sub+0x15c>
   152a4:	e51b3018 	ldr	r3, [fp, #-24]	; 0xffffffe8
   152a8:	e5932004 	ldr	r2, [r3, #4]
   152ac:	e51b3010 	ldr	r3, [fp, #-16]
   152b0:	e5933004 	ldr	r3, [r3, #4]
   152b4:	e1520003 	cmp	r2, r3
   152b8:	1a000038 	bne	153a0 <mat_sub+0x15c>
   152bc:	e3a03000 	mov	r3, #0
   152c0:	e50b3008 	str	r3, [fp, #-8]
   152c4:	ea00002f 	b	15388 <mat_sub+0x144>
   152c8:	e3a03000 	mov	r3, #0
   152cc:	e50b300c 	str	r3, [fp, #-12]
   152d0:	ea000024 	b	15368 <mat_sub+0x124>
   152d4:	e51b3018 	ldr	r3, [fp, #-24]	; 0xffffffe8
   152d8:	e5932008 	ldr	r2, [r3, #8]
   152dc:	e51b3018 	ldr	r3, [fp, #-24]	; 0xffffffe8
   152e0:	e5933004 	ldr	r3, [r3, #4]
   152e4:	e51b100c 	ldr	r1, [fp, #-12]
   152e8:	e0010391 	mul	r1, r1, r3
   152ec:	e51b3008 	ldr	r3, [fp, #-8]
   152f0:	e0813003 	add	r3, r1, r3
   152f4:	e51b1010 	ldr	r1, [fp, #-16]
   152f8:	e5910008 	ldr	r0, [r1, #8]
   152fc:	e51b1010 	ldr	r1, [fp, #-16]
   15300:	e5911004 	ldr	r1, [r1, #4]
   15304:	e51bc00c 	ldr	ip, [fp, #-12]
   15308:	e00c019c 	mul	ip, ip, r1
   1530c:	e51b1008 	ldr	r1, [fp, #-8]
   15310:	e08c1001 	add	r1, ip, r1
   15314:	e1a01181 	lsl	r1, r1, #3
   15318:	e0801001 	add	r1, r0, r1
   1531c:	ed916b00 	vldr	d6, [r1]
   15320:	e51b1014 	ldr	r1, [fp, #-20]	; 0xffffffec
   15324:	e5910008 	ldr	r0, [r1, #8]
   15328:	e51b1014 	ldr	r1, [fp, #-20]	; 0xffffffec
   1532c:	e5911004 	ldr	r1, [r1, #4]
   15330:	e51bc00c 	ldr	ip, [fp, #-12]
   15334:	e00c019c 	mul	ip, ip, r1
   15338:	e51b1008 	ldr	r1, [fp, #-8]
   1533c:	e08c1001 	add	r1, ip, r1
   15340:	e1a01181 	lsl	r1, r1, #3
   15344:	e0801001 	add	r1, r0, r1
   15348:	ed917b00 	vldr	d7, [r1]
   1534c:	ee367b47 	vsub.f64	d7, d6, d7
   15350:	e1a03183 	lsl	r3, r3, #3
   15354:	e0823003 	add	r3, r2, r3
   15358:	ed837b00 	vstr	d7, [r3]
   1535c:	e51b300c 	ldr	r3, [fp, #-12]
   15360:	e2833001 	add	r3, r3, #1
   15364:	e50b300c 	str	r3, [fp, #-12]
   15368:	e51b3018 	ldr	r3, [fp, #-24]	; 0xffffffe8
   1536c:	e5932000 	ldr	r2, [r3]
   15370:	e51b300c 	ldr	r3, [fp, #-12]
   15374:	e1520003 	cmp	r2, r3
   15378:	caffffd5 	bgt	152d4 <mat_sub+0x90>
   1537c:	e51b3008 	ldr	r3, [fp, #-8]
   15380:	e2833001 	add	r3, r3, #1
   15384:	e50b3008 	str	r3, [fp, #-8]
   15388:	e51b3018 	ldr	r3, [fp, #-24]	; 0xffffffe8
   1538c:	e5932004 	ldr	r2, [r3, #4]
   15390:	e51b3008 	ldr	r3, [fp, #-8]
   15394:	e1520003 	cmp	r2, r3
   15398:	caffffca 	bgt	152c8 <mat_sub+0x84>
   1539c:	ea000000 	b	153a4 <mat_sub+0x160>
   153a0:	e1a00000 	nop			; (mov r0, r0)
   153a4:	e28bd000 	add	sp, fp, #0
   153a8:	e49db004 	pop	{fp}		; (ldr fp, [sp], #4)
   153ac:	e12fff1e 	bx	lr

000153b0 <mat_mul>:
   153b0:	e52db004 	push	{fp}		; (str fp, [sp, #-4]!)
   153b4:	e28db000 	add	fp, sp, #0
   153b8:	e24dd024 	sub	sp, sp, #36	; 0x24
   153bc:	e50b0018 	str	r0, [fp, #-24]	; 0xffffffe8
   153c0:	e50b101c 	str	r1, [fp, #-28]	; 0xffffffe4
   153c4:	e50b2020 	str	r2, [fp, #-32]	; 0xffffffe0
   153c8:	e51b3018 	ldr	r3, [fp, #-24]	; 0xffffffe8
   153cc:	e5932004 	ldr	r2, [r3, #4]
   153d0:	e51b301c 	ldr	r3, [fp, #-28]	; 0xffffffe4
   153d4:	e5933000 	ldr	r3, [r3]
   153d8:	e1520003 	cmp	r2, r3
   153dc:	1a000068 	bne	15584 <mat_mul+0x1d4>
   153e0:	e51b3020 	ldr	r3, [fp, #-32]	; 0xffffffe0
   153e4:	e5932000 	ldr	r2, [r3]
   153e8:	e51b3018 	ldr	r3, [fp, #-24]	; 0xffffffe8
   153ec:	e5933000 	ldr	r3, [r3]
   153f0:	e1520003 	cmp	r2, r3
   153f4:	1a000062 	bne	15584 <mat_mul+0x1d4>
   153f8:	e51b3020 	ldr	r3, [fp, #-32]	; 0xffffffe0
   153fc:	e5932004 	ldr	r2, [r3, #4]
   15400:	e51b301c 	ldr	r3, [fp, #-28]	; 0xffffffe4
   15404:	e5933004 	ldr	r3, [r3, #4]
   15408:	e1520003 	cmp	r2, r3
   1540c:	1a00005c 	bne	15584 <mat_mul+0x1d4>
   15410:	e3a03000 	mov	r3, #0
   15414:	e50b300c 	str	r3, [fp, #-12]
   15418:	ea000053 	b	1556c <mat_mul+0x1bc>
   1541c:	e3a03000 	mov	r3, #0
   15420:	e50b3010 	str	r3, [fp, #-16]
   15424:	ea000048 	b	1554c <mat_mul+0x19c>
   15428:	e51b3020 	ldr	r3, [fp, #-32]	; 0xffffffe0
   1542c:	e5932008 	ldr	r2, [r3, #8]
   15430:	e51b3020 	ldr	r3, [fp, #-32]	; 0xffffffe0
   15434:	e5933004 	ldr	r3, [r3, #4]
   15438:	e51b1010 	ldr	r1, [fp, #-16]
   1543c:	e0010391 	mul	r1, r1, r3
   15440:	e51b300c 	ldr	r3, [fp, #-12]
   15444:	e0813003 	add	r3, r1, r3
   15448:	e1a03183 	lsl	r3, r3, #3
   1544c:	e0821003 	add	r1, r2, r3
   15450:	e3a02000 	mov	r2, #0
   15454:	e3a03000 	mov	r3, #0
   15458:	e1c120f0 	strd	r2, [r1]
   1545c:	e3a03000 	mov	r3, #0
   15460:	e50b3008 	str	r3, [fp, #-8]
   15464:	ea000030 	b	1552c <mat_mul+0x17c>
   15468:	e51b3020 	ldr	r3, [fp, #-32]	; 0xffffffe0
   1546c:	e5932008 	ldr	r2, [r3, #8]
   15470:	e51b3020 	ldr	r3, [fp, #-32]	; 0xffffffe0
   15474:	e5933004 	ldr	r3, [r3, #4]
   15478:	e51b1010 	ldr	r1, [fp, #-16]
   1547c:	e0010391 	mul	r1, r1, r3
   15480:	e51b300c 	ldr	r3, [fp, #-12]
   15484:	e0813003 	add	r3, r1, r3
   15488:	e51b1020 	ldr	r1, [fp, #-32]	; 0xffffffe0
   1548c:	e5910008 	ldr	r0, [r1, #8]
   15490:	e51b1020 	ldr	r1, [fp, #-32]	; 0xffffffe0
   15494:	e5911004 	ldr	r1, [r1, #4]
   15498:	e51bc010 	ldr	ip, [fp, #-16]
   1549c:	e00c019c 	mul	ip, ip, r1
   154a0:	e51b100c 	ldr	r1, [fp, #-12]
   154a4:	e08c1001 	add	r1, ip, r1
   154a8:	e1a01181 	lsl	r1, r1, #3
   154ac:	e0801001 	add	r1, r0, r1
   154b0:	ed916b00 	vldr	d6, [r1]
   154b4:	e51b1018 	ldr	r1, [fp, #-24]	; 0xffffffe8
   154b8:	e5910008 	ldr	r0, [r1, #8]
   154bc:	e51b1018 	ldr	r1, [fp, #-24]	; 0xffffffe8
   154c0:	e5911004 	ldr	r1, [r1, #4]
   154c4:	e51bc010 	ldr	ip, [fp, #-16]
   154c8:	e00c019c 	mul	ip, ip, r1
   154cc:	e51b1008 	ldr	r1, [fp, #-8]
   154d0:	e08c1001 	add	r1, ip, r1
   154d4:	e1a01181 	lsl	r1, r1, #3
   154d8:	e0801001 	add	r1, r0, r1
   154dc:	ed915b00 	vldr	d5, [r1]
   154e0:	e51b101c 	ldr	r1, [fp, #-28]	; 0xffffffe4
   154e4:	e5910008 	ldr	r0, [r1, #8]
   154e8:	e51b101c 	ldr	r1, [fp, #-28]	; 0xffffffe4
   154ec:	e5911004 	ldr	r1, [r1, #4]
   154f0:	e51bc008 	ldr	ip, [fp, #-8]
   154f4:	e00c019c 	mul	ip, ip, r1
   154f8:	e51b100c 	ldr	r1, [fp, #-12]
   154fc:	e08c1001 	add	r1, ip, r1
   15500:	e1a01181 	lsl	r1, r1, #3
   15504:	e0801001 	add	r1, r0, r1
   15508:	ed917b00 	vldr	d7, [r1]
   1550c:	ee257b07 	vmul.f64	d7, d5, d7
   15510:	ee367b07 	vadd.f64	d7, d6, d7
   15514:	e1a03183 	lsl	r3, r3, #3
   15518:	e0823003 	add	r3, r2, r3
   1551c:	ed837b00 	vstr	d7, [r3]
   15520:	e51b3008 	ldr	r3, [fp, #-8]
   15524:	e2833001 	add	r3, r3, #1
   15528:	e50b3008 	str	r3, [fp, #-8]
   1552c:	e51b3018 	ldr	r3, [fp, #-24]	; 0xffffffe8
   15530:	e5932004 	ldr	r2, [r3, #4]
   15534:	e51b3008 	ldr	r3, [fp, #-8]
   15538:	e1520003 	cmp	r2, r3
   1553c:	caffffc9 	bgt	15468 <mat_mul+0xb8>
   15540:	e51b3010 	ldr	r3, [fp, #-16]
   15544:	e2833001 	add	r3, r3, #1
   15548:	e50b3010 	str	r3, [fp, #-16]
   1554c:	e51b3020 	ldr	r3, [fp, #-32]	; 0xffffffe0
   15550:	e5932000 	ldr	r2, [r3]
   15554:	e51b3010 	ldr	r3, [fp, #-16]
   15558:	e1520003 	cmp	r2, r3
   1555c:	caffffb1 	bgt	15428 <mat_mul+0x78>
   15560:	e51b300c 	ldr	r3, [fp, #-12]
   15564:	e2833001 	add	r3, r3, #1
   15568:	e50b300c 	str	r3, [fp, #-12]
   1556c:	e51b3020 	ldr	r3, [fp, #-32]	; 0xffffffe0
   15570:	e5932004 	ldr	r2, [r3, #4]
   15574:	e51b300c 	ldr	r3, [fp, #-12]
   15578:	e1520003 	cmp	r2, r3
   1557c:	caffffa6 	bgt	1541c <mat_mul+0x6c>
   15580:	ea000000 	b	15588 <mat_mul+0x1d8>
   15584:	e1a00000 	nop			; (mov r0, r0)
   15588:	e28bd000 	add	sp, fp, #0
   1558c:	e49db004 	pop	{fp}		; (ldr fp, [sp], #4)
   15590:	e12fff1e 	bx	lr

00015594 <mat_mul_1>:
   15594:	e52db004 	push	{fp}		; (str fp, [sp, #-4]!)
   15598:	e28db000 	add	fp, sp, #0
   1559c:	e24dd024 	sub	sp, sp, #36	; 0x24
   155a0:	e50b0018 	str	r0, [fp, #-24]	; 0xffffffe8
   155a4:	e50b101c 	str	r1, [fp, #-28]	; 0xffffffe4
   155a8:	e50b2020 	str	r2, [fp, #-32]	; 0xffffffe0
   155ac:	e51b3018 	ldr	r3, [fp, #-24]	; 0xffffffe8
   155b0:	e5932004 	ldr	r2, [r3, #4]
   155b4:	e51b301c 	ldr	r3, [fp, #-28]	; 0xffffffe4
   155b8:	e5933004 	ldr	r3, [r3, #4]
   155bc:	e1520003 	cmp	r2, r3
   155c0:	1a000068 	bne	15768 <mat_mul_1+0x1d4>
   155c4:	e51b3020 	ldr	r3, [fp, #-32]	; 0xffffffe0
   155c8:	e5932000 	ldr	r2, [r3]
   155cc:	e51b3018 	ldr	r3, [fp, #-24]	; 0xffffffe8
   155d0:	e5933000 	ldr	r3, [r3]
   155d4:	e1520003 	cmp	r2, r3
   155d8:	1a000062 	bne	15768 <mat_mul_1+0x1d4>
   155dc:	e51b3020 	ldr	r3, [fp, #-32]	; 0xffffffe0
   155e0:	e5932004 	ldr	r2, [r3, #4]
   155e4:	e51b301c 	ldr	r3, [fp, #-28]	; 0xffffffe4
   155e8:	e5933000 	ldr	r3, [r3]
   155ec:	e1520003 	cmp	r2, r3
   155f0:	1a00005c 	bne	15768 <mat_mul_1+0x1d4>
   155f4:	e3a03000 	mov	r3, #0
   155f8:	e50b300c 	str	r3, [fp, #-12]
   155fc:	ea000053 	b	15750 <mat_mul_1+0x1bc>
   15600:	e3a03000 	mov	r3, #0
   15604:	e50b3010 	str	r3, [fp, #-16]
   15608:	ea000048 	b	15730 <mat_mul_1+0x19c>
   1560c:	e51b3020 	ldr	r3, [fp, #-32]	; 0xffffffe0
   15610:	e5932008 	ldr	r2, [r3, #8]
   15614:	e51b3020 	ldr	r3, [fp, #-32]	; 0xffffffe0
   15618:	e5933004 	ldr	r3, [r3, #4]
   1561c:	e51b1010 	ldr	r1, [fp, #-16]
   15620:	e0010391 	mul	r1, r1, r3
   15624:	e51b300c 	ldr	r3, [fp, #-12]
   15628:	e0813003 	add	r3, r1, r3
   1562c:	e1a03183 	lsl	r3, r3, #3
   15630:	e0821003 	add	r1, r2, r3
   15634:	e3a02000 	mov	r2, #0
   15638:	e3a03000 	mov	r3, #0
   1563c:	e1c120f0 	strd	r2, [r1]
   15640:	e3a03000 	mov	r3, #0
   15644:	e50b3008 	str	r3, [fp, #-8]
   15648:	ea000030 	b	15710 <mat_mul_1+0x17c>
   1564c:	e51b3020 	ldr	r3, [fp, #-32]	; 0xffffffe0
   15650:	e5932008 	ldr	r2, [r3, #8]
   15654:	e51b3020 	ldr	r3, [fp, #-32]	; 0xffffffe0
   15658:	e5933004 	ldr	r3, [r3, #4]
   1565c:	e51b1010 	ldr	r1, [fp, #-16]
   15660:	e0010391 	mul	r1, r1, r3
   15664:	e51b300c 	ldr	r3, [fp, #-12]
   15668:	e0813003 	add	r3, r1, r3
   1566c:	e51b1020 	ldr	r1, [fp, #-32]	; 0xffffffe0
   15670:	e5910008 	ldr	r0, [r1, #8]
   15674:	e51b1020 	ldr	r1, [fp, #-32]	; 0xffffffe0
   15678:	e5911004 	ldr	r1, [r1, #4]
   1567c:	e51bc010 	ldr	ip, [fp, #-16]
   15680:	e00c019c 	mul	ip, ip, r1
   15684:	e51b100c 	ldr	r1, [fp, #-12]
   15688:	e08c1001 	add	r1, ip, r1
   1568c:	e1a01181 	lsl	r1, r1, #3
   15690:	e0801001 	add	r1, r0, r1
   15694:	ed916b00 	vldr	d6, [r1]
   15698:	e51b1018 	ldr	r1, [fp, #-24]	; 0xffffffe8
   1569c:	e5910008 	ldr	r0, [r1, #8]
   156a0:	e51b1018 	ldr	r1, [fp, #-24]	; 0xffffffe8
   156a4:	e5911004 	ldr	r1, [r1, #4]
   156a8:	e51bc010 	ldr	ip, [fp, #-16]
   156ac:	e00c019c 	mul	ip, ip, r1
   156b0:	e51b1008 	ldr	r1, [fp, #-8]
   156b4:	e08c1001 	add	r1, ip, r1
   156b8:	e1a01181 	lsl	r1, r1, #3
   156bc:	e0801001 	add	r1, r0, r1
   156c0:	ed915b00 	vldr	d5, [r1]
   156c4:	e51b101c 	ldr	r1, [fp, #-28]	; 0xffffffe4
   156c8:	e5910008 	ldr	r0, [r1, #8]
   156cc:	e51b101c 	ldr	r1, [fp, #-28]	; 0xffffffe4
   156d0:	e5911004 	ldr	r1, [r1, #4]
   156d4:	e51bc00c 	ldr	ip, [fp, #-12]
   156d8:	e00c019c 	mul	ip, ip, r1
   156dc:	e51b1008 	ldr	r1, [fp, #-8]
   156e0:	e08c1001 	add	r1, ip, r1
   156e4:	e1a01181 	lsl	r1, r1, #3
   156e8:	e0801001 	add	r1, r0, r1
   156ec:	ed917b00 	vldr	d7, [r1]
   156f0:	ee257b07 	vmul.f64	d7, d5, d7
   156f4:	ee367b07 	vadd.f64	d7, d6, d7
   156f8:	e1a03183 	lsl	r3, r3, #3
   156fc:	e0823003 	add	r3, r2, r3
   15700:	ed837b00 	vstr	d7, [r3]
   15704:	e51b3008 	ldr	r3, [fp, #-8]
   15708:	e2833001 	add	r3, r3, #1
   1570c:	e50b3008 	str	r3, [fp, #-8]
   15710:	e51b3018 	ldr	r3, [fp, #-24]	; 0xffffffe8
   15714:	e5932004 	ldr	r2, [r3, #4]
   15718:	e51b3008 	ldr	r3, [fp, #-8]
   1571c:	e1520003 	cmp	r2, r3
   15720:	caffffc9 	bgt	1564c <mat_mul_1+0xb8>
   15724:	e51b3010 	ldr	r3, [fp, #-16]
   15728:	e2833001 	add	r3, r3, #1
   1572c:	e50b3010 	str	r3, [fp, #-16]
   15730:	e51b3020 	ldr	r3, [fp, #-32]	; 0xffffffe0
   15734:	e5932000 	ldr	r2, [r3]
   15738:	e51b3010 	ldr	r3, [fp, #-16]
   1573c:	e1520003 	cmp	r2, r3
   15740:	caffffb1 	bgt	1560c <mat_mul_1+0x78>
   15744:	e51b300c 	ldr	r3, [fp, #-12]
   15748:	e2833001 	add	r3, r3, #1
   1574c:	e50b300c 	str	r3, [fp, #-12]
   15750:	e51b3020 	ldr	r3, [fp, #-32]	; 0xffffffe0
   15754:	e5932004 	ldr	r2, [r3, #4]
   15758:	e51b300c 	ldr	r3, [fp, #-12]
   1575c:	e1520003 	cmp	r2, r3
   15760:	caffffa6 	bgt	15600 <mat_mul_1+0x6c>
   15764:	ea000000 	b	1576c <mat_mul_1+0x1d8>
   15768:	e1a00000 	nop			; (mov r0, r0)
   1576c:	e28bd000 	add	sp, fp, #0
   15770:	e49db004 	pop	{fp}		; (ldr fp, [sp], #4)
   15774:	e12fff1e 	bx	lr

00015778 <mat_mul_1b>:
   15778:	e52db004 	push	{fp}		; (str fp, [sp, #-4]!)
   1577c:	e28db000 	add	fp, sp, #0
   15780:	e24dd024 	sub	sp, sp, #36	; 0x24
   15784:	e50b0018 	str	r0, [fp, #-24]	; 0xffffffe8
   15788:	e50b101c 	str	r1, [fp, #-28]	; 0xffffffe4
   1578c:	e50b2020 	str	r2, [fp, #-32]	; 0xffffffe0
   15790:	e51b3018 	ldr	r3, [fp, #-24]	; 0xffffffe8
   15794:	e5932000 	ldr	r2, [r3]
   15798:	e51b301c 	ldr	r3, [fp, #-28]	; 0xffffffe4
   1579c:	e5933000 	ldr	r3, [r3]
   157a0:	e1520003 	cmp	r2, r3
   157a4:	1a000068 	bne	1594c <mat_mul_1b+0x1d4>
   157a8:	e51b3020 	ldr	r3, [fp, #-32]	; 0xffffffe0
   157ac:	e5932000 	ldr	r2, [r3]
   157b0:	e51b3018 	ldr	r3, [fp, #-24]	; 0xffffffe8
   157b4:	e5933004 	ldr	r3, [r3, #4]
   157b8:	e1520003 	cmp	r2, r3
   157bc:	1a000062 	bne	1594c <mat_mul_1b+0x1d4>
   157c0:	e51b3020 	ldr	r3, [fp, #-32]	; 0xffffffe0
   157c4:	e5932004 	ldr	r2, [r3, #4]
   157c8:	e51b301c 	ldr	r3, [fp, #-28]	; 0xffffffe4
   157cc:	e5933004 	ldr	r3, [r3, #4]
   157d0:	e1520003 	cmp	r2, r3
   157d4:	1a00005c 	bne	1594c <mat_mul_1b+0x1d4>
   157d8:	e3a03000 	mov	r3, #0
   157dc:	e50b300c 	str	r3, [fp, #-12]
   157e0:	ea000053 	b	15934 <mat_mul_1b+0x1bc>
   157e4:	e3a03000 	mov	r3, #0
   157e8:	e50b3010 	str	r3, [fp, #-16]
   157ec:	ea000048 	b	15914 <mat_mul_1b+0x19c>
   157f0:	e51b3020 	ldr	r3, [fp, #-32]	; 0xffffffe0
   157f4:	e5932008 	ldr	r2, [r3, #8]
   157f8:	e51b3020 	ldr	r3, [fp, #-32]	; 0xffffffe0
   157fc:	e5933004 	ldr	r3, [r3, #4]
   15800:	e51b1010 	ldr	r1, [fp, #-16]
   15804:	e0010391 	mul	r1, r1, r3
   15808:	e51b300c 	ldr	r3, [fp, #-12]
   1580c:	e0813003 	add	r3, r1, r3
   15810:	e1a03183 	lsl	r3, r3, #3
   15814:	e0821003 	add	r1, r2, r3
   15818:	e3a02000 	mov	r2, #0
   1581c:	e3a03000 	mov	r3, #0
   15820:	e1c120f0 	strd	r2, [r1]
   15824:	e3a03000 	mov	r3, #0
   15828:	e50b3008 	str	r3, [fp, #-8]
   1582c:	ea000030 	b	158f4 <mat_mul_1b+0x17c>
   15830:	e51b3020 	ldr	r3, [fp, #-32]	; 0xffffffe0
   15834:	e5932008 	ldr	r2, [r3, #8]
   15838:	e51b3020 	ldr	r3, [fp, #-32]	; 0xffffffe0
   1583c:	e5933004 	ldr	r3, [r3, #4]
   15840:	e51b1010 	ldr	r1, [fp, #-16]
   15844:	e0010391 	mul	r1, r1, r3
   15848:	e51b300c 	ldr	r3, [fp, #-12]
   1584c:	e0813003 	add	r3, r1, r3
   15850:	e51b1020 	ldr	r1, [fp, #-32]	; 0xffffffe0
   15854:	e5910008 	ldr	r0, [r1, #8]
   15858:	e51b1020 	ldr	r1, [fp, #-32]	; 0xffffffe0
   1585c:	e5911004 	ldr	r1, [r1, #4]
   15860:	e51bc010 	ldr	ip, [fp, #-16]
   15864:	e00c019c 	mul	ip, ip, r1
   15868:	e51b100c 	ldr	r1, [fp, #-12]
   1586c:	e08c1001 	add	r1, ip, r1
   15870:	e1a01181 	lsl	r1, r1, #3
   15874:	e0801001 	add	r1, r0, r1
   15878:	ed916b00 	vldr	d6, [r1]
   1587c:	e51b1018 	ldr	r1, [fp, #-24]	; 0xffffffe8
   15880:	e5910008 	ldr	r0, [r1, #8]
   15884:	e51b1018 	ldr	r1, [fp, #-24]	; 0xffffffe8
   15888:	e5911004 	ldr	r1, [r1, #4]
   1588c:	e51bc008 	ldr	ip, [fp, #-8]
   15890:	e00c019c 	mul	ip, ip, r1
   15894:	e51b1010 	ldr	r1, [fp, #-16]
   15898:	e08c1001 	add	r1, ip, r1
   1589c:	e1a01181 	lsl	r1, r1, #3
   158a0:	e0801001 	add	r1, r0, r1
   158a4:	ed915b00 	vldr	d5, [r1]
   158a8:	e51b101c 	ldr	r1, [fp, #-28]	; 0xffffffe4
   158ac:	e5910008 	ldr	r0, [r1, #8]
   158b0:	e51b101c 	ldr	r1, [fp, #-28]	; 0xffffffe4
   158b4:	e5911004 	ldr	r1, [r1, #4]
   158b8:	e51bc008 	ldr	ip, [fp, #-8]
   158bc:	e00c019c 	mul	ip, ip, r1
   158c0:	e51b100c 	ldr	r1, [fp, #-12]
   158c4:	e08c1001 	add	r1, ip, r1
   158c8:	e1a01181 	lsl	r1, r1, #3
   158cc:	e0801001 	add	r1, r0, r1
   158d0:	ed917b00 	vldr	d7, [r1]
   158d4:	ee257b07 	vmul.f64	d7, d5, d7
   158d8:	ee367b07 	vadd.f64	d7, d6, d7
   158dc:	e1a03183 	lsl	r3, r3, #3
   158e0:	e0823003 	add	r3, r2, r3
   158e4:	ed837b00 	vstr	d7, [r3]
   158e8:	e51b3008 	ldr	r3, [fp, #-8]
   158ec:	e2833001 	add	r3, r3, #1
   158f0:	e50b3008 	str	r3, [fp, #-8]
   158f4:	e51b3018 	ldr	r3, [fp, #-24]	; 0xffffffe8
   158f8:	e5932000 	ldr	r2, [r3]
   158fc:	e51b3008 	ldr	r3, [fp, #-8]
   15900:	e1520003 	cmp	r2, r3
   15904:	caffffc9 	bgt	15830 <mat_mul_1b+0xb8>
   15908:	e51b3010 	ldr	r3, [fp, #-16]
   1590c:	e2833001 	add	r3, r3, #1
   15910:	e50b3010 	str	r3, [fp, #-16]
   15914:	e51b3020 	ldr	r3, [fp, #-32]	; 0xffffffe0
   15918:	e5932000 	ldr	r2, [r3]
   1591c:	e51b3010 	ldr	r3, [fp, #-16]
   15920:	e1520003 	cmp	r2, r3
   15924:	caffffb1 	bgt	157f0 <mat_mul_1b+0x78>
   15928:	e51b300c 	ldr	r3, [fp, #-12]
   1592c:	e2833001 	add	r3, r3, #1
   15930:	e50b300c 	str	r3, [fp, #-12]
   15934:	e51b3020 	ldr	r3, [fp, #-32]	; 0xffffffe0
   15938:	e5932004 	ldr	r2, [r3, #4]
   1593c:	e51b300c 	ldr	r3, [fp, #-12]
   15940:	e1520003 	cmp	r2, r3
   15944:	caffffa6 	bgt	157e4 <mat_mul_1b+0x6c>
   15948:	ea000000 	b	15950 <mat_mul_1b+0x1d8>
   1594c:	e1a00000 	nop			; (mov r0, r0)
   15950:	e28bd000 	add	sp, fp, #0
   15954:	e49db004 	pop	{fp}		; (ldr fp, [sp], #4)
   15958:	e12fff1e 	bx	lr

0001595c <mat_mul_2>:
   1595c:	e92d4800 	push	{fp, lr}
   15960:	e28db004 	add	fp, sp, #4
   15964:	e24dd020 	sub	sp, sp, #32
   15968:	e50b0018 	str	r0, [fp, #-24]	; 0xffffffe8
   1596c:	e50b101c 	str	r1, [fp, #-28]	; 0xffffffe4
   15970:	e50b2020 	str	r2, [fp, #-32]	; 0xffffffe0
   15974:	e51b301c 	ldr	r3, [fp, #-28]	; 0xffffffe4
   15978:	e5930000 	ldr	r0, [r3]
   1597c:	e51b3018 	ldr	r3, [fp, #-24]	; 0xffffffe8
   15980:	e5933000 	ldr	r3, [r3]
   15984:	e24b2010 	sub	r2, fp, #16
   15988:	e1a01003 	mov	r1, r3
   1598c:	eb00002c 	bl	15a44 <mat_create>
   15990:	e24b3010 	sub	r3, fp, #16
   15994:	e1a02003 	mov	r2, r3
   15998:	e51b1018 	ldr	r1, [fp, #-24]	; 0xffffffe8
   1599c:	e51b001c 	ldr	r0, [fp, #-28]	; 0xffffffe4
   159a0:	ebfffefb 	bl	15594 <mat_mul_1>
   159a4:	e24b3010 	sub	r3, fp, #16
   159a8:	e51b2020 	ldr	r2, [fp, #-32]	; 0xffffffe0
   159ac:	e1a01003 	mov	r1, r3
   159b0:	e51b0018 	ldr	r0, [fp, #-24]	; 0xffffffe8
   159b4:	ebfffe7d 	bl	153b0 <mat_mul>
   159b8:	e24b3010 	sub	r3, fp, #16
   159bc:	e1a00003 	mov	r0, r3
   159c0:	eb00005a 	bl	15b30 <mat_del>
   159c4:	e1a00000 	nop			; (mov r0, r0)
   159c8:	e24bd004 	sub	sp, fp, #4
   159cc:	e8bd8800 	pop	{fp, pc}

000159d0 <mat_mul_2b>:
   159d0:	e92d4800 	push	{fp, lr}
   159d4:	e28db004 	add	fp, sp, #4
   159d8:	e24dd020 	sub	sp, sp, #32
   159dc:	e50b0018 	str	r0, [fp, #-24]	; 0xffffffe8
   159e0:	e50b101c 	str	r1, [fp, #-28]	; 0xffffffe4
   159e4:	e50b2020 	str	r2, [fp, #-32]	; 0xffffffe0
   159e8:	e51b301c 	ldr	r3, [fp, #-28]	; 0xffffffe4
   159ec:	e5930000 	ldr	r0, [r3]
   159f0:	e51b3018 	ldr	r3, [fp, #-24]	; 0xffffffe8
   159f4:	e5933004 	ldr	r3, [r3, #4]
   159f8:	e24b2010 	sub	r2, fp, #16
   159fc:	e1a01003 	mov	r1, r3
   15a00:	eb00000f 	bl	15a44 <mat_create>
   15a04:	e24b3010 	sub	r3, fp, #16
   15a08:	e1a02003 	mov	r2, r3
   15a0c:	e51b1018 	ldr	r1, [fp, #-24]	; 0xffffffe8
   15a10:	e51b001c 	ldr	r0, [fp, #-28]	; 0xffffffe4
   15a14:	ebfffe65 	bl	153b0 <mat_mul>
   15a18:	e24b3010 	sub	r3, fp, #16
   15a1c:	e51b2020 	ldr	r2, [fp, #-32]	; 0xffffffe0
   15a20:	e1a01003 	mov	r1, r3
   15a24:	e51b0018 	ldr	r0, [fp, #-24]	; 0xffffffe8
   15a28:	ebffff52 	bl	15778 <mat_mul_1b>
   15a2c:	e24b3010 	sub	r3, fp, #16
   15a30:	e1a00003 	mov	r0, r3
   15a34:	eb00003d 	bl	15b30 <mat_del>
   15a38:	e1a00000 	nop			; (mov r0, r0)
   15a3c:	e24bd004 	sub	sp, fp, #4
   15a40:	e8bd8800 	pop	{fp, pc}

00015a44 <mat_create>:
   15a44:	e92d4800 	push	{fp, lr}
   15a48:	e28db004 	add	fp, sp, #4
   15a4c:	e24dd018 	sub	sp, sp, #24
   15a50:	e50b0010 	str	r0, [fp, #-16]
   15a54:	e50b1014 	str	r1, [fp, #-20]	; 0xffffffec
   15a58:	e50b2018 	str	r2, [fp, #-24]	; 0xffffffe8
   15a5c:	e51b3010 	ldr	r3, [fp, #-16]
   15a60:	e51b2014 	ldr	r2, [fp, #-20]	; 0xffffffec
   15a64:	e0030392 	mul	r3, r2, r3
   15a68:	e1a03183 	lsl	r3, r3, #3
   15a6c:	e1a00003 	mov	r0, r3
   15a70:	ebffeb14 	bl	106c8 <malloc@plt>
   15a74:	e1a03000 	mov	r3, r0
   15a78:	e1a02003 	mov	r2, r3
   15a7c:	e51b3018 	ldr	r3, [fp, #-24]	; 0xffffffe8
   15a80:	e5832008 	str	r2, [r3, #8]
   15a84:	e51b3018 	ldr	r3, [fp, #-24]	; 0xffffffe8
   15a88:	e51b2010 	ldr	r2, [fp, #-16]
   15a8c:	e5832000 	str	r2, [r3]
   15a90:	e51b3018 	ldr	r3, [fp, #-24]	; 0xffffffe8
   15a94:	e51b2014 	ldr	r2, [fp, #-20]	; 0xffffffec
   15a98:	e5832004 	str	r2, [r3, #4]
   15a9c:	e3a03000 	mov	r3, #0
   15aa0:	e50b3008 	str	r3, [fp, #-8]
   15aa4:	ea000019 	b	15b10 <mat_create+0xcc>
   15aa8:	e3a03000 	mov	r3, #0
   15aac:	e50b300c 	str	r3, [fp, #-12]
   15ab0:	ea00000e 	b	15af0 <mat_create+0xac>
   15ab4:	e51b3018 	ldr	r3, [fp, #-24]	; 0xffffffe8
   15ab8:	e5932008 	ldr	r2, [r3, #8]
   15abc:	e51b300c 	ldr	r3, [fp, #-12]
   15ac0:	e51b1014 	ldr	r1, [fp, #-20]	; 0xffffffec
   15ac4:	e0010391 	mul	r1, r1, r3
   15ac8:	e51b3008 	ldr	r3, [fp, #-8]
   15acc:	e0813003 	add	r3, r1, r3
   15ad0:	e1a03183 	lsl	r3, r3, #3
   15ad4:	e0821003 	add	r1, r2, r3
   15ad8:	e3a02000 	mov	r2, #0
   15adc:	e3a03000 	mov	r3, #0
   15ae0:	e1c120f0 	strd	r2, [r1]
   15ae4:	e51b300c 	ldr	r3, [fp, #-12]
   15ae8:	e2833001 	add	r3, r3, #1
   15aec:	e50b300c 	str	r3, [fp, #-12]
   15af0:	e51b3018 	ldr	r3, [fp, #-24]	; 0xffffffe8
   15af4:	e5932000 	ldr	r2, [r3]
   15af8:	e51b300c 	ldr	r3, [fp, #-12]
   15afc:	e1520003 	cmp	r2, r3
   15b00:	caffffeb 	bgt	15ab4 <mat_create+0x70>
   15b04:	e51b3008 	ldr	r3, [fp, #-8]
   15b08:	e2833001 	add	r3, r3, #1
   15b0c:	e50b3008 	str	r3, [fp, #-8]
   15b10:	e51b3018 	ldr	r3, [fp, #-24]	; 0xffffffe8
   15b14:	e5932004 	ldr	r2, [r3, #4]
   15b18:	e51b3008 	ldr	r3, [fp, #-8]
   15b1c:	e1520003 	cmp	r2, r3
   15b20:	caffffe0 	bgt	15aa8 <mat_create+0x64>
   15b24:	e1a00000 	nop			; (mov r0, r0)
   15b28:	e24bd004 	sub	sp, fp, #4
   15b2c:	e8bd8800 	pop	{fp, pc}

00015b30 <mat_del>:
   15b30:	e92d4800 	push	{fp, lr}
   15b34:	e28db004 	add	fp, sp, #4
   15b38:	e24dd008 	sub	sp, sp, #8
   15b3c:	e50b0008 	str	r0, [fp, #-8]
   15b40:	e51b3008 	ldr	r3, [fp, #-8]
   15b44:	e5933008 	ldr	r3, [r3, #8]
   15b48:	e1a00003 	mov	r0, r3
   15b4c:	ebffeacb 	bl	10680 <free@plt>
   15b50:	e1a00000 	nop			; (mov r0, r0)
   15b54:	e24bd004 	sub	sp, fp, #4
   15b58:	e8bd8800 	pop	{fp, pc}

00015b5c <mat_det>:
   15b5c:	e52db004 	push	{fp}		; (str fp, [sp, #-4]!)
   15b60:	e28db000 	add	fp, sp, #0
   15b64:	e24dd014 	sub	sp, sp, #20
   15b68:	e50b0010 	str	r0, [fp, #-16]
   15b6c:	e50b1014 	str	r1, [fp, #-20]	; 0xffffffec
   15b70:	e51b3010 	ldr	r3, [fp, #-16]
   15b74:	e5932000 	ldr	r2, [r3]
   15b78:	e51b3010 	ldr	r3, [fp, #-16]
   15b7c:	e5933004 	ldr	r3, [r3, #4]
   15b80:	e1520003 	cmp	r2, r3
   15b84:	1a000051 	bne	15cd0 <mat_det+0x174>
   15b88:	e51b3010 	ldr	r3, [fp, #-16]
   15b8c:	e5933000 	ldr	r3, [r3]
   15b90:	e3530002 	cmp	r3, #2
   15b94:	0a00000a 	beq	15bc4 <mat_det+0x68>
   15b98:	e3530003 	cmp	r3, #3
   15b9c:	0a000019 	beq	15c08 <mat_det+0xac>
   15ba0:	e3530001 	cmp	r3, #1
   15ba4:	0a000000 	beq	15bac <mat_det+0x50>
   15ba8:	ea000049 	b	15cd4 <mat_det+0x178>
   15bac:	e51b3010 	ldr	r3, [fp, #-16]
   15bb0:	e5933008 	ldr	r3, [r3, #8]
   15bb4:	e1c320d0 	ldrd	r2, [r3]
   15bb8:	e51b1014 	ldr	r1, [fp, #-20]	; 0xffffffec
   15bbc:	e1c120f0 	strd	r2, [r1]
   15bc0:	ea000043 	b	15cd4 <mat_det+0x178>
   15bc4:	e51b3010 	ldr	r3, [fp, #-16]
   15bc8:	e5933008 	ldr	r3, [r3, #8]
   15bcc:	e50b3008 	str	r3, [fp, #-8]
   15bd0:	e51b3008 	ldr	r3, [fp, #-8]
   15bd4:	ed936b00 	vldr	d6, [r3]
   15bd8:	e51b3008 	ldr	r3, [fp, #-8]
   15bdc:	ed937b06 	vldr	d7, [r3, #24]
   15be0:	ee266b07 	vmul.f64	d6, d6, d7
   15be4:	e51b3008 	ldr	r3, [fp, #-8]
   15be8:	ed935b02 	vldr	d5, [r3, #8]
   15bec:	e51b3008 	ldr	r3, [fp, #-8]
   15bf0:	ed937b04 	vldr	d7, [r3, #16]
   15bf4:	ee257b07 	vmul.f64	d7, d5, d7
   15bf8:	ee367b47 	vsub.f64	d7, d6, d7
   15bfc:	e51b3014 	ldr	r3, [fp, #-20]	; 0xffffffec
   15c00:	ed837b00 	vstr	d7, [r3]
   15c04:	ea000032 	b	15cd4 <mat_det+0x178>
   15c08:	e51b3010 	ldr	r3, [fp, #-16]
   15c0c:	e5933008 	ldr	r3, [r3, #8]
   15c10:	e50b300c 	str	r3, [fp, #-12]
   15c14:	e51b300c 	ldr	r3, [fp, #-12]
   15c18:	ed936b00 	vldr	d6, [r3]
   15c1c:	e51b300c 	ldr	r3, [fp, #-12]
   15c20:	ed935b08 	vldr	d5, [r3, #32]
   15c24:	e51b300c 	ldr	r3, [fp, #-12]
   15c28:	ed937b10 	vldr	d7, [r3, #64]	; 0x40
   15c2c:	ee255b07 	vmul.f64	d5, d5, d7
   15c30:	e51b300c 	ldr	r3, [fp, #-12]
   15c34:	ed934b0e 	vldr	d4, [r3, #56]	; 0x38
   15c38:	e51b300c 	ldr	r3, [fp, #-12]
   15c3c:	ed937b0a 	vldr	d7, [r3, #40]	; 0x28
   15c40:	ee247b07 	vmul.f64	d7, d4, d7
   15c44:	ee357b47 	vsub.f64	d7, d5, d7
   15c48:	ee266b07 	vmul.f64	d6, d6, d7
   15c4c:	e51b300c 	ldr	r3, [fp, #-12]
   15c50:	ed935b06 	vldr	d5, [r3, #24]
   15c54:	e51b300c 	ldr	r3, [fp, #-12]
   15c58:	ed934b02 	vldr	d4, [r3, #8]
   15c5c:	e51b300c 	ldr	r3, [fp, #-12]
   15c60:	ed937b10 	vldr	d7, [r3, #64]	; 0x40
   15c64:	ee244b07 	vmul.f64	d4, d4, d7
   15c68:	e51b300c 	ldr	r3, [fp, #-12]
   15c6c:	ed933b0e 	vldr	d3, [r3, #56]	; 0x38
   15c70:	e51b300c 	ldr	r3, [fp, #-12]
   15c74:	ed937b04 	vldr	d7, [r3, #16]
   15c78:	ee237b07 	vmul.f64	d7, d3, d7
   15c7c:	ee347b47 	vsub.f64	d7, d4, d7
   15c80:	ee257b07 	vmul.f64	d7, d5, d7
   15c84:	ee366b47 	vsub.f64	d6, d6, d7
   15c88:	e51b300c 	ldr	r3, [fp, #-12]
   15c8c:	ed935b0c 	vldr	d5, [r3, #48]	; 0x30
   15c90:	e51b300c 	ldr	r3, [fp, #-12]
   15c94:	ed934b02 	vldr	d4, [r3, #8]
   15c98:	e51b300c 	ldr	r3, [fp, #-12]
   15c9c:	ed937b0a 	vldr	d7, [r3, #40]	; 0x28
   15ca0:	ee244b07 	vmul.f64	d4, d4, d7
   15ca4:	e51b300c 	ldr	r3, [fp, #-12]
   15ca8:	ed933b08 	vldr	d3, [r3, #32]
   15cac:	e51b300c 	ldr	r3, [fp, #-12]
   15cb0:	ed937b04 	vldr	d7, [r3, #16]
   15cb4:	ee237b07 	vmul.f64	d7, d3, d7
   15cb8:	ee347b47 	vsub.f64	d7, d4, d7
   15cbc:	ee257b07 	vmul.f64	d7, d5, d7
   15cc0:	ee367b07 	vadd.f64	d7, d6, d7
   15cc4:	e51b3014 	ldr	r3, [fp, #-20]	; 0xffffffec
   15cc8:	ed837b00 	vstr	d7, [r3]
   15ccc:	ea000000 	b	15cd4 <mat_det+0x178>
   15cd0:	e1a00000 	nop			; (mov r0, r0)
   15cd4:	e28bd000 	add	sp, fp, #0
   15cd8:	e49db004 	pop	{fp}		; (ldr fp, [sp], #4)
   15cdc:	e12fff1e 	bx	lr

00015ce0 <mat_inv>:
   15ce0:	e92d4800 	push	{fp, lr}
   15ce4:	e28db004 	add	fp, sp, #4
   15ce8:	e24dd020 	sub	sp, sp, #32
   15cec:	e50b0020 	str	r0, [fp, #-32]	; 0xffffffe0
   15cf0:	e50b1024 	str	r1, [fp, #-36]	; 0xffffffdc
   15cf4:	e51b3020 	ldr	r3, [fp, #-32]	; 0xffffffe0
   15cf8:	e5932000 	ldr	r2, [r3]
   15cfc:	e51b3020 	ldr	r3, [fp, #-32]	; 0xffffffe0
   15d00:	e5933004 	ldr	r3, [r3, #4]
   15d04:	e1520003 	cmp	r2, r3
   15d08:	1a0000c9 	bne	16034 <mat_inv+0x354>
   15d0c:	e51b3024 	ldr	r3, [fp, #-36]	; 0xffffffdc
   15d10:	e5932000 	ldr	r2, [r3]
   15d14:	e51b3024 	ldr	r3, [fp, #-36]	; 0xffffffdc
   15d18:	e5933004 	ldr	r3, [r3, #4]
   15d1c:	e1520003 	cmp	r2, r3
   15d20:	1a0000c3 	bne	16034 <mat_inv+0x354>
   15d24:	e51b3024 	ldr	r3, [fp, #-36]	; 0xffffffdc
   15d28:	e5932000 	ldr	r2, [r3]
   15d2c:	e51b3020 	ldr	r3, [fp, #-32]	; 0xffffffe0
   15d30:	e5933000 	ldr	r3, [r3]
   15d34:	e1520003 	cmp	r2, r3
   15d38:	1a0000bd 	bne	16034 <mat_inv+0x354>
   15d3c:	e24b301c 	sub	r3, fp, #28
   15d40:	e1a01003 	mov	r1, r3
   15d44:	e51b0020 	ldr	r0, [fp, #-32]	; 0xffffffe0
   15d48:	ebffff83 	bl	15b5c <mat_det>
   15d4c:	ed1b7b07 	vldr	d7, [fp, #-28]	; 0xffffffe4
   15d50:	eeb57b40 	vcmp.f64	d7, #0.0
   15d54:	eef1fa10 	vmrs	APSR_nzcv, fpscr
   15d58:	0a0000b7 	beq	1603c <mat_inv+0x35c>
   15d5c:	e51b3020 	ldr	r3, [fp, #-32]	; 0xffffffe0
   15d60:	e5933000 	ldr	r3, [r3]
   15d64:	e3530002 	cmp	r3, #2
   15d68:	0a00000b 	beq	15d9c <mat_inv+0xbc>
   15d6c:	e3530003 	cmp	r3, #3
   15d70:	0a000028 	beq	15e18 <mat_inv+0x138>
   15d74:	e3530001 	cmp	r3, #1
   15d78:	0a000000 	beq	15d80 <mat_inv+0xa0>
   15d7c:	ea0000af 	b	16040 <mat_inv+0x360>
   15d80:	e51b3024 	ldr	r3, [fp, #-36]	; 0xffffffdc
   15d84:	e5933008 	ldr	r3, [r3, #8]
   15d88:	ed1b6b07 	vldr	d6, [fp, #-28]	; 0xffffffe4
   15d8c:	ed9f5bad 	vldr	d5, [pc, #692]	; 16048 <mat_inv+0x368>
   15d90:	ee857b06 	vdiv.f64	d7, d5, d6
   15d94:	ed837b00 	vstr	d7, [r3]
   15d98:	ea0000a4 	b	16030 <mat_inv+0x350>
   15d9c:	e51b3020 	ldr	r3, [fp, #-32]	; 0xffffffe0
   15da0:	e5933008 	ldr	r3, [r3, #8]
   15da4:	e50b3008 	str	r3, [fp, #-8]
   15da8:	e51b3024 	ldr	r3, [fp, #-36]	; 0xffffffdc
   15dac:	e5933008 	ldr	r3, [r3, #8]
   15db0:	e50b300c 	str	r3, [fp, #-12]
   15db4:	e51b3008 	ldr	r3, [fp, #-8]
   15db8:	e1c321d8 	ldrd	r2, [r3, #24]
   15dbc:	e51b100c 	ldr	r1, [fp, #-12]
   15dc0:	e1c120f0 	strd	r2, [r1]
   15dc4:	e51b3008 	ldr	r3, [fp, #-8]
   15dc8:	ed937b02 	vldr	d7, [r3, #8]
   15dcc:	eeb17b47 	vneg.f64	d7, d7
   15dd0:	e51b300c 	ldr	r3, [fp, #-12]
   15dd4:	ed837b02 	vstr	d7, [r3, #8]
   15dd8:	e51b3008 	ldr	r3, [fp, #-8]
   15ddc:	ed937b04 	vldr	d7, [r3, #16]
   15de0:	eeb17b47 	vneg.f64	d7, d7
   15de4:	e51b300c 	ldr	r3, [fp, #-12]
   15de8:	ed837b04 	vstr	d7, [r3, #16]
   15dec:	e51b3008 	ldr	r3, [fp, #-8]
   15df0:	e1c320d0 	ldrd	r2, [r3]
   15df4:	e51b100c 	ldr	r1, [fp, #-12]
   15df8:	e1c121f8 	strd	r2, [r1, #24]
   15dfc:	ed1b7b07 	vldr	d7, [fp, #-28]	; 0xffffffe4
   15e00:	ed9f6b90 	vldr	d6, [pc, #576]	; 16048 <mat_inv+0x368>
   15e04:	ee865b07 	vdiv.f64	d5, d6, d7
   15e08:	eeb00b45 	vmov.f64	d0, d5
   15e0c:	e51b0024 	ldr	r0, [fp, #-36]	; 0xffffffdc
   15e10:	ebfffc56 	bl	14f70 <mat_mul_scal>
   15e14:	ea000085 	b	16030 <mat_inv+0x350>
   15e18:	e51b3020 	ldr	r3, [fp, #-32]	; 0xffffffe0
   15e1c:	e5933008 	ldr	r3, [r3, #8]
   15e20:	e50b3010 	str	r3, [fp, #-16]
   15e24:	e51b3024 	ldr	r3, [fp, #-36]	; 0xffffffdc
   15e28:	e5933008 	ldr	r3, [r3, #8]
   15e2c:	e50b3014 	str	r3, [fp, #-20]	; 0xffffffec
   15e30:	e51b3010 	ldr	r3, [fp, #-16]
   15e34:	ed936b08 	vldr	d6, [r3, #32]
   15e38:	e51b3010 	ldr	r3, [fp, #-16]
   15e3c:	ed937b10 	vldr	d7, [r3, #64]	; 0x40
   15e40:	ee266b07 	vmul.f64	d6, d6, d7
   15e44:	e51b3010 	ldr	r3, [fp, #-16]
   15e48:	ed935b0e 	vldr	d5, [r3, #56]	; 0x38
   15e4c:	e51b3010 	ldr	r3, [fp, #-16]
   15e50:	ed937b0a 	vldr	d7, [r3, #40]	; 0x28
   15e54:	ee257b07 	vmul.f64	d7, d5, d7
   15e58:	ee367b47 	vsub.f64	d7, d6, d7
   15e5c:	e51b3014 	ldr	r3, [fp, #-20]	; 0xffffffec
   15e60:	ed837b00 	vstr	d7, [r3]
   15e64:	e51b3010 	ldr	r3, [fp, #-16]
   15e68:	ed936b02 	vldr	d6, [r3, #8]
   15e6c:	e51b3010 	ldr	r3, [fp, #-16]
   15e70:	ed937b10 	vldr	d7, [r3, #64]	; 0x40
   15e74:	ee266b07 	vmul.f64	d6, d6, d7
   15e78:	e51b3010 	ldr	r3, [fp, #-16]
   15e7c:	ed935b0e 	vldr	d5, [r3, #56]	; 0x38
   15e80:	e51b3010 	ldr	r3, [fp, #-16]
   15e84:	ed937b04 	vldr	d7, [r3, #16]
   15e88:	ee257b07 	vmul.f64	d7, d5, d7
   15e8c:	ee367b47 	vsub.f64	d7, d6, d7
   15e90:	eeb17b47 	vneg.f64	d7, d7
   15e94:	e51b3014 	ldr	r3, [fp, #-20]	; 0xffffffec
   15e98:	ed837b02 	vstr	d7, [r3, #8]
   15e9c:	e51b3010 	ldr	r3, [fp, #-16]
   15ea0:	ed936b02 	vldr	d6, [r3, #8]
   15ea4:	e51b3010 	ldr	r3, [fp, #-16]
   15ea8:	ed937b0a 	vldr	d7, [r3, #40]	; 0x28
   15eac:	ee266b07 	vmul.f64	d6, d6, d7
   15eb0:	e51b3010 	ldr	r3, [fp, #-16]
   15eb4:	ed935b08 	vldr	d5, [r3, #32]
   15eb8:	e51b3010 	ldr	r3, [fp, #-16]
   15ebc:	ed937b04 	vldr	d7, [r3, #16]
   15ec0:	ee257b07 	vmul.f64	d7, d5, d7
   15ec4:	ee367b47 	vsub.f64	d7, d6, d7
   15ec8:	e51b3014 	ldr	r3, [fp, #-20]	; 0xffffffec
   15ecc:	ed837b04 	vstr	d7, [r3, #16]
   15ed0:	e51b3010 	ldr	r3, [fp, #-16]
   15ed4:	ed936b06 	vldr	d6, [r3, #24]
   15ed8:	e51b3010 	ldr	r3, [fp, #-16]
   15edc:	ed937b10 	vldr	d7, [r3, #64]	; 0x40
   15ee0:	ee266b07 	vmul.f64	d6, d6, d7
   15ee4:	e51b3010 	ldr	r3, [fp, #-16]
   15ee8:	ed935b0c 	vldr	d5, [r3, #48]	; 0x30
   15eec:	e51b3010 	ldr	r3, [fp, #-16]
   15ef0:	ed937b0a 	vldr	d7, [r3, #40]	; 0x28
   15ef4:	ee257b07 	vmul.f64	d7, d5, d7
   15ef8:	ee367b47 	vsub.f64	d7, d6, d7
   15efc:	eeb17b47 	vneg.f64	d7, d7
   15f00:	e51b3014 	ldr	r3, [fp, #-20]	; 0xffffffec
   15f04:	ed837b06 	vstr	d7, [r3, #24]
   15f08:	e51b3010 	ldr	r3, [fp, #-16]
   15f0c:	ed936b00 	vldr	d6, [r3]
   15f10:	e51b3010 	ldr	r3, [fp, #-16]
   15f14:	ed937b10 	vldr	d7, [r3, #64]	; 0x40
   15f18:	ee266b07 	vmul.f64	d6, d6, d7
   15f1c:	e51b3010 	ldr	r3, [fp, #-16]
   15f20:	ed935b0c 	vldr	d5, [r3, #48]	; 0x30
   15f24:	e51b3010 	ldr	r3, [fp, #-16]
   15f28:	ed937b04 	vldr	d7, [r3, #16]
   15f2c:	ee257b07 	vmul.f64	d7, d5, d7
   15f30:	ee367b47 	vsub.f64	d7, d6, d7
   15f34:	e51b3014 	ldr	r3, [fp, #-20]	; 0xffffffec
   15f38:	ed837b08 	vstr	d7, [r3, #32]
   15f3c:	e51b3010 	ldr	r3, [fp, #-16]
   15f40:	ed936b00 	vldr	d6, [r3]
   15f44:	e51b3010 	ldr	r3, [fp, #-16]
   15f48:	ed937b0a 	vldr	d7, [r3, #40]	; 0x28
   15f4c:	ee266b07 	vmul.f64	d6, d6, d7
   15f50:	e51b3010 	ldr	r3, [fp, #-16]
   15f54:	ed935b06 	vldr	d5, [r3, #24]
   15f58:	e51b3010 	ldr	r3, [fp, #-16]
   15f5c:	ed937b04 	vldr	d7, [r3, #16]
   15f60:	ee257b07 	vmul.f64	d7, d5, d7
   15f64:	ee367b47 	vsub.f64	d7, d6, d7
   15f68:	eeb17b47 	vneg.f64	d7, d7
   15f6c:	e51b3014 	ldr	r3, [fp, #-20]	; 0xffffffec
   15f70:	ed837b0a 	vstr	d7, [r3, #40]	; 0x28
   15f74:	e51b3010 	ldr	r3, [fp, #-16]
   15f78:	ed936b06 	vldr	d6, [r3, #24]
   15f7c:	e51b3010 	ldr	r3, [fp, #-16]
   15f80:	ed937b0e 	vldr	d7, [r3, #56]	; 0x38
   15f84:	ee266b07 	vmul.f64	d6, d6, d7
   15f88:	e51b3010 	ldr	r3, [fp, #-16]
   15f8c:	ed935b0c 	vldr	d5, [r3, #48]	; 0x30
   15f90:	e51b3010 	ldr	r3, [fp, #-16]
   15f94:	ed937b08 	vldr	d7, [r3, #32]
   15f98:	ee257b07 	vmul.f64	d7, d5, d7
   15f9c:	ee367b47 	vsub.f64	d7, d6, d7
   15fa0:	e51b3014 	ldr	r3, [fp, #-20]	; 0xffffffec
   15fa4:	ed837b0c 	vstr	d7, [r3, #48]	; 0x30
   15fa8:	e51b3010 	ldr	r3, [fp, #-16]
   15fac:	ed936b00 	vldr	d6, [r3]
   15fb0:	e51b3010 	ldr	r3, [fp, #-16]
   15fb4:	ed937b0e 	vldr	d7, [r3, #56]	; 0x38
   15fb8:	ee266b07 	vmul.f64	d6, d6, d7
   15fbc:	e51b3010 	ldr	r3, [fp, #-16]
   15fc0:	ed935b0c 	vldr	d5, [r3, #48]	; 0x30
   15fc4:	e51b3010 	ldr	r3, [fp, #-16]
   15fc8:	ed937b02 	vldr	d7, [r3, #8]
   15fcc:	ee257b07 	vmul.f64	d7, d5, d7
   15fd0:	ee367b47 	vsub.f64	d7, d6, d7
   15fd4:	eeb17b47 	vneg.f64	d7, d7
   15fd8:	e51b3014 	ldr	r3, [fp, #-20]	; 0xffffffec
   15fdc:	ed837b0e 	vstr	d7, [r3, #56]	; 0x38
   15fe0:	e51b3010 	ldr	r3, [fp, #-16]
   15fe4:	ed936b00 	vldr	d6, [r3]
   15fe8:	e51b3010 	ldr	r3, [fp, #-16]
   15fec:	ed937b08 	vldr	d7, [r3, #32]
   15ff0:	ee266b07 	vmul.f64	d6, d6, d7
   15ff4:	e51b3010 	ldr	r3, [fp, #-16]
   15ff8:	ed935b06 	vldr	d5, [r3, #24]
   15ffc:	e51b3010 	ldr	r3, [fp, #-16]
   16000:	ed937b02 	vldr	d7, [r3, #8]
   16004:	ee257b07 	vmul.f64	d7, d5, d7
   16008:	ee367b47 	vsub.f64	d7, d6, d7
   1600c:	e51b3014 	ldr	r3, [fp, #-20]	; 0xffffffec
   16010:	ed837b10 	vstr	d7, [r3, #64]	; 0x40
   16014:	ed1b7b07 	vldr	d7, [fp, #-28]	; 0xffffffe4
   16018:	ed9f6b0a 	vldr	d6, [pc, #40]	; 16048 <mat_inv+0x368>
   1601c:	ee865b07 	vdiv.f64	d5, d6, d7
   16020:	eeb00b45 	vmov.f64	d0, d5
   16024:	e51b0024 	ldr	r0, [fp, #-36]	; 0xffffffdc
   16028:	ebfffbd0 	bl	14f70 <mat_mul_scal>
   1602c:	e1a00000 	nop			; (mov r0, r0)
   16030:	ea000002 	b	16040 <mat_inv+0x360>
   16034:	e1a00000 	nop			; (mov r0, r0)
   16038:	ea000000 	b	16040 <mat_inv+0x360>
   1603c:	e1a00000 	nop			; (mov r0, r0)
   16040:	e24bd004 	sub	sp, fp, #4
   16044:	e8bd8800 	pop	{fp, pc}
   16048:	00000000 	andeq	r0, r0, r0
   1604c:	3ff00000 	svccc	0x00f00000	; IMB

00016050 <mat_transp>:
   16050:	e52db004 	push	{fp}		; (str fp, [sp, #-4]!)
   16054:	e28db000 	add	fp, sp, #0
   16058:	e24dd014 	sub	sp, sp, #20
   1605c:	e50b0010 	str	r0, [fp, #-16]
   16060:	e50b1014 	str	r1, [fp, #-20]	; 0xffffffec
   16064:	e51b3010 	ldr	r3, [fp, #-16]
   16068:	e5932000 	ldr	r2, [r3]
   1606c:	e51b3014 	ldr	r3, [fp, #-20]	; 0xffffffec
   16070:	e5933004 	ldr	r3, [r3, #4]
   16074:	e1520003 	cmp	r2, r3
   16078:	1a000032 	bne	16148 <mat_transp+0xf8>
   1607c:	e51b3010 	ldr	r3, [fp, #-16]
   16080:	e5932004 	ldr	r2, [r3, #4]
   16084:	e51b3014 	ldr	r3, [fp, #-20]	; 0xffffffec
   16088:	e5933000 	ldr	r3, [r3]
   1608c:	e1520003 	cmp	r2, r3
   16090:	1a00002c 	bne	16148 <mat_transp+0xf8>
   16094:	e3a03000 	mov	r3, #0
   16098:	e50b3008 	str	r3, [fp, #-8]
   1609c:	ea000023 	b	16130 <mat_transp+0xe0>
   160a0:	e3a03000 	mov	r3, #0
   160a4:	e50b300c 	str	r3, [fp, #-12]
   160a8:	ea000018 	b	16110 <mat_transp+0xc0>
   160ac:	e51b3014 	ldr	r3, [fp, #-20]	; 0xffffffec
   160b0:	e5930008 	ldr	r0, [r3, #8]
   160b4:	e51b3014 	ldr	r3, [fp, #-20]	; 0xffffffec
   160b8:	e5933004 	ldr	r3, [r3, #4]
   160bc:	e51b2008 	ldr	r2, [fp, #-8]
   160c0:	e0020392 	mul	r2, r2, r3
   160c4:	e51b300c 	ldr	r3, [fp, #-12]
   160c8:	e0821003 	add	r1, r2, r3
   160cc:	e51b3010 	ldr	r3, [fp, #-16]
   160d0:	e5932008 	ldr	r2, [r3, #8]
   160d4:	e51b3010 	ldr	r3, [fp, #-16]
   160d8:	e5933004 	ldr	r3, [r3, #4]
   160dc:	e51bc00c 	ldr	ip, [fp, #-12]
   160e0:	e00c039c 	mul	ip, ip, r3
   160e4:	e51b3008 	ldr	r3, [fp, #-8]
   160e8:	e08c3003 	add	r3, ip, r3
   160ec:	e1a03183 	lsl	r3, r3, #3
   160f0:	e0823003 	add	r3, r2, r3
   160f4:	e1c320d0 	ldrd	r2, [r3]
   160f8:	e1a01181 	lsl	r1, r1, #3
   160fc:	e0801001 	add	r1, r0, r1
   16100:	e1c120f0 	strd	r2, [r1]
   16104:	e51b300c 	ldr	r3, [fp, #-12]
   16108:	e2833001 	add	r3, r3, #1
   1610c:	e50b300c 	str	r3, [fp, #-12]
   16110:	e51b3010 	ldr	r3, [fp, #-16]
   16114:	e5932000 	ldr	r2, [r3]
   16118:	e51b300c 	ldr	r3, [fp, #-12]
   1611c:	e1520003 	cmp	r2, r3
   16120:	caffffe1 	bgt	160ac <mat_transp+0x5c>
   16124:	e51b3008 	ldr	r3, [fp, #-8]
   16128:	e2833001 	add	r3, r3, #1
   1612c:	e50b3008 	str	r3, [fp, #-8]
   16130:	e51b3010 	ldr	r3, [fp, #-16]
   16134:	e5932004 	ldr	r2, [r3, #4]
   16138:	e51b3008 	ldr	r3, [fp, #-8]
   1613c:	e1520003 	cmp	r2, r3
   16140:	caffffd6 	bgt	160a0 <mat_transp+0x50>
   16144:	ea000000 	b	1614c <mat_transp+0xfc>
   16148:	e1a00000 	nop			; (mov r0, r0)
   1614c:	e28bd000 	add	sp, fp, #0
   16150:	e49db004 	pop	{fp}		; (ldr fp, [sp], #4)
   16154:	e12fff1e 	bx	lr

00016158 <my_delay>:
   16158:	e92d4800 	push	{fp, lr}
   1615c:	e28db004 	add	fp, sp, #4
   16160:	e24dd010 	sub	sp, sp, #16
   16164:	e50b0010 	str	r0, [fp, #-16]
   16168:	ebffe95f 	bl	106ec <clock@plt>
   1616c:	e50b0008 	str	r0, [fp, #-8]
   16170:	ebffe95d 	bl	106ec <clock@plt>
   16174:	e50b000c 	str	r0, [fp, #-12]
   16178:	e51b200c 	ldr	r2, [fp, #-12]
   1617c:	e51b3008 	ldr	r3, [fp, #-8]
   16180:	e0422003 	sub	r2, r2, r3
   16184:	e51b3010 	ldr	r3, [fp, #-16]
   16188:	e59f1014 	ldr	r1, [pc, #20]	; 161a4 <my_delay+0x4c>
   1618c:	e0030391 	mul	r3, r1, r3
   16190:	e1520003 	cmp	r2, r3
   16194:	dafffff5 	ble	16170 <my_delay+0x18>
   16198:	e1a00000 	nop			; (mov r0, r0)
   1619c:	e24bd004 	sub	sp, fp, #4
   161a0:	e8bd8800 	pop	{fp, pc}
   161a4:	000f4240 	andeq	r4, pc, r0, asr #4

000161a8 <start_thread>:
   161a8:	e92d4800 	push	{fp, lr}
   161ac:	e28db004 	add	fp, sp, #4
   161b0:	e24dd010 	sub	sp, sp, #16
   161b4:	e50b0008 	str	r0, [fp, #-8]
   161b8:	e50b100c 	str	r1, [fp, #-12]
   161bc:	e50b2010 	str	r2, [fp, #-16]
   161c0:	e50b3014 	str	r3, [fp, #-20]	; 0xffffffec
   161c4:	e51b3014 	ldr	r3, [fp, #-20]	; 0xffffffec
   161c8:	e51b2010 	ldr	r2, [fp, #-16]
   161cc:	e51b100c 	ldr	r1, [fp, #-12]
   161d0:	e51b0008 	ldr	r0, [fp, #-8]
   161d4:	ebffe935 	bl	106b0 <pthread_create@plt>
   161d8:	e1a03000 	mov	r3, r0
   161dc:	e3730001 	cmn	r3, #1
   161e0:	1a000003 	bne	161f4 <start_thread+0x4c>
   161e4:	e59f0014 	ldr	r0, [pc, #20]	; 16200 <start_thread+0x58>
   161e8:	ebffe92d 	bl	106a4 <perror@plt>
   161ec:	e3a03001 	mov	r3, #1
   161f0:	eaffffff 	b	161f4 <start_thread+0x4c>
   161f4:	e1a00003 	mov	r0, r3
   161f8:	e24bd004 	sub	sp, fp, #4
   161fc:	e8bd8800 	pop	{fp, pc}
   16200:	00016984 	andeq	r6, r1, r4, lsl #19

00016204 <end_thread>:
   16204:	e92d4800 	push	{fp, lr}
   16208:	e28db004 	add	fp, sp, #4
   1620c:	e24dd008 	sub	sp, sp, #8
   16210:	e50b0008 	str	r0, [fp, #-8]
   16214:	e50b100c 	str	r1, [fp, #-12]
   16218:	e51b100c 	ldr	r1, [fp, #-12]
   1621c:	e51b0008 	ldr	r0, [fp, #-8]
   16220:	ebffe943 	bl	10734 <pthread_join@plt>
   16224:	e1a03000 	mov	r3, r0
   16228:	e3530000 	cmp	r3, #0
   1622c:	0a000003 	beq	16240 <end_thread+0x3c>
   16230:	e59f0014 	ldr	r0, [pc, #20]	; 1624c <end_thread+0x48>
   16234:	ebffe91a 	bl	106a4 <perror@plt>
   16238:	e3a03001 	mov	r3, #1
   1623c:	eaffffff 	b	16240 <end_thread+0x3c>
   16240:	e1a00003 	mov	r0, r3
   16244:	e24bd004 	sub	sp, fp, #4
   16248:	e8bd8800 	pop	{fp, pc}
   1624c:	00016994 	muleq	r1, r4, r9

00016250 <safe_alloc>:
   16250:	e92d4800 	push	{fp, lr}
   16254:	e28db004 	add	fp, sp, #4
   16258:	e24dd010 	sub	sp, sp, #16
   1625c:	e50b0010 	str	r0, [fp, #-16]
   16260:	e51b3010 	ldr	r3, [fp, #-16]
   16264:	e1a00003 	mov	r0, r3
   16268:	ebffe916 	bl	106c8 <malloc@plt>
   1626c:	e1a03000 	mov	r3, r0
   16270:	e50b3008 	str	r3, [fp, #-8]
   16274:	e51b3008 	ldr	r3, [fp, #-8]
   16278:	e3530000 	cmp	r3, #0
   1627c:	1a000001 	bne	16288 <safe_alloc+0x38>
   16280:	e3a03001 	mov	r3, #1
   16284:	ea000000 	b	1628c <safe_alloc+0x3c>
   16288:	e51b3008 	ldr	r3, [fp, #-8]
   1628c:	e1a00003 	mov	r0, r3
   16290:	e24bd004 	sub	sp, fp, #4
   16294:	e8bd8800 	pop	{fp, pc}

00016298 <__divsi3>:
   16298:	e3510000 	cmp	r1, #0
   1629c:	0a000081 	beq	164a8 <.divsi3_skip_div0_test+0x208>

000162a0 <.divsi3_skip_div0_test>:
   162a0:	e020c001 	eor	ip, r0, r1
   162a4:	42611000 	rsbmi	r1, r1, #0
   162a8:	e2512001 	subs	r2, r1, #1
   162ac:	0a000070 	beq	16474 <.divsi3_skip_div0_test+0x1d4>
   162b0:	e1b03000 	movs	r3, r0
   162b4:	42603000 	rsbmi	r3, r0, #0
   162b8:	e1530001 	cmp	r3, r1
   162bc:	9a00006f 	bls	16480 <.divsi3_skip_div0_test+0x1e0>
   162c0:	e1110002 	tst	r1, r2
   162c4:	0a000071 	beq	16490 <.divsi3_skip_div0_test+0x1f0>
   162c8:	e16f2f13 	clz	r2, r3
   162cc:	e16f0f11 	clz	r0, r1
   162d0:	e0402002 	sub	r2, r0, r2
   162d4:	e272201f 	rsbs	r2, r2, #31
   162d8:	10822082 	addne	r2, r2, r2, lsl #1
   162dc:	e3a00000 	mov	r0, #0
   162e0:	108ff102 	addne	pc, pc, r2, lsl #2
   162e4:	e1a00000 	nop			; (mov r0, r0)
   162e8:	e1530f81 	cmp	r3, r1, lsl #31
   162ec:	e0a00000 	adc	r0, r0, r0
   162f0:	20433f81 	subcs	r3, r3, r1, lsl #31
   162f4:	e1530f01 	cmp	r3, r1, lsl #30
   162f8:	e0a00000 	adc	r0, r0, r0
   162fc:	20433f01 	subcs	r3, r3, r1, lsl #30
   16300:	e1530e81 	cmp	r3, r1, lsl #29
   16304:	e0a00000 	adc	r0, r0, r0
   16308:	20433e81 	subcs	r3, r3, r1, lsl #29
   1630c:	e1530e01 	cmp	r3, r1, lsl #28
   16310:	e0a00000 	adc	r0, r0, r0
   16314:	20433e01 	subcs	r3, r3, r1, lsl #28
   16318:	e1530d81 	cmp	r3, r1, lsl #27
   1631c:	e0a00000 	adc	r0, r0, r0
   16320:	20433d81 	subcs	r3, r3, r1, lsl #27
   16324:	e1530d01 	cmp	r3, r1, lsl #26
   16328:	e0a00000 	adc	r0, r0, r0
   1632c:	20433d01 	subcs	r3, r3, r1, lsl #26
   16330:	e1530c81 	cmp	r3, r1, lsl #25
   16334:	e0a00000 	adc	r0, r0, r0
   16338:	20433c81 	subcs	r3, r3, r1, lsl #25
   1633c:	e1530c01 	cmp	r3, r1, lsl #24
   16340:	e0a00000 	adc	r0, r0, r0
   16344:	20433c01 	subcs	r3, r3, r1, lsl #24
   16348:	e1530b81 	cmp	r3, r1, lsl #23
   1634c:	e0a00000 	adc	r0, r0, r0
   16350:	20433b81 	subcs	r3, r3, r1, lsl #23
   16354:	e1530b01 	cmp	r3, r1, lsl #22
   16358:	e0a00000 	adc	r0, r0, r0
   1635c:	20433b01 	subcs	r3, r3, r1, lsl #22
   16360:	e1530a81 	cmp	r3, r1, lsl #21
   16364:	e0a00000 	adc	r0, r0, r0
   16368:	20433a81 	subcs	r3, r3, r1, lsl #21
   1636c:	e1530a01 	cmp	r3, r1, lsl #20
   16370:	e0a00000 	adc	r0, r0, r0
   16374:	20433a01 	subcs	r3, r3, r1, lsl #20
   16378:	e1530981 	cmp	r3, r1, lsl #19
   1637c:	e0a00000 	adc	r0, r0, r0
   16380:	20433981 	subcs	r3, r3, r1, lsl #19
   16384:	e1530901 	cmp	r3, r1, lsl #18
   16388:	e0a00000 	adc	r0, r0, r0
   1638c:	20433901 	subcs	r3, r3, r1, lsl #18
   16390:	e1530881 	cmp	r3, r1, lsl #17
   16394:	e0a00000 	adc	r0, r0, r0
   16398:	20433881 	subcs	r3, r3, r1, lsl #17
   1639c:	e1530801 	cmp	r3, r1, lsl #16
   163a0:	e0a00000 	adc	r0, r0, r0
   163a4:	20433801 	subcs	r3, r3, r1, lsl #16
   163a8:	e1530781 	cmp	r3, r1, lsl #15
   163ac:	e0a00000 	adc	r0, r0, r0
   163b0:	20433781 	subcs	r3, r3, r1, lsl #15
   163b4:	e1530701 	cmp	r3, r1, lsl #14
   163b8:	e0a00000 	adc	r0, r0, r0
   163bc:	20433701 	subcs	r3, r3, r1, lsl #14
   163c0:	e1530681 	cmp	r3, r1, lsl #13
   163c4:	e0a00000 	adc	r0, r0, r0
   163c8:	20433681 	subcs	r3, r3, r1, lsl #13
   163cc:	e1530601 	cmp	r3, r1, lsl #12
   163d0:	e0a00000 	adc	r0, r0, r0
   163d4:	20433601 	subcs	r3, r3, r1, lsl #12
   163d8:	e1530581 	cmp	r3, r1, lsl #11
   163dc:	e0a00000 	adc	r0, r0, r0
   163e0:	20433581 	subcs	r3, r3, r1, lsl #11
   163e4:	e1530501 	cmp	r3, r1, lsl #10
   163e8:	e0a00000 	adc	r0, r0, r0
   163ec:	20433501 	subcs	r3, r3, r1, lsl #10
   163f0:	e1530481 	cmp	r3, r1, lsl #9
   163f4:	e0a00000 	adc	r0, r0, r0
   163f8:	20433481 	subcs	r3, r3, r1, lsl #9
   163fc:	e1530401 	cmp	r3, r1, lsl #8
   16400:	e0a00000 	adc	r0, r0, r0
   16404:	20433401 	subcs	r3, r3, r1, lsl #8
   16408:	e1530381 	cmp	r3, r1, lsl #7
   1640c:	e0a00000 	adc	r0, r0, r0
   16410:	20433381 	subcs	r3, r3, r1, lsl #7
   16414:	e1530301 	cmp	r3, r1, lsl #6
   16418:	e0a00000 	adc	r0, r0, r0
   1641c:	20433301 	subcs	r3, r3, r1, lsl #6
   16420:	e1530281 	cmp	r3, r1, lsl #5
   16424:	e0a00000 	adc	r0, r0, r0
   16428:	20433281 	subcs	r3, r3, r1, lsl #5
   1642c:	e1530201 	cmp	r3, r1, lsl #4
   16430:	e0a00000 	adc	r0, r0, r0
   16434:	20433201 	subcs	r3, r3, r1, lsl #4
   16438:	e1530181 	cmp	r3, r1, lsl #3
   1643c:	e0a00000 	adc	r0, r0, r0
   16440:	20433181 	subcs	r3, r3, r1, lsl #3
   16444:	e1530101 	cmp	r3, r1, lsl #2
   16448:	e0a00000 	adc	r0, r0, r0
   1644c:	20433101 	subcs	r3, r3, r1, lsl #2
   16450:	e1530081 	cmp	r3, r1, lsl #1
   16454:	e0a00000 	adc	r0, r0, r0
   16458:	20433081 	subcs	r3, r3, r1, lsl #1
   1645c:	e1530001 	cmp	r3, r1
   16460:	e0a00000 	adc	r0, r0, r0
   16464:	20433001 	subcs	r3, r3, r1
   16468:	e35c0000 	cmp	ip, #0
   1646c:	42600000 	rsbmi	r0, r0, #0
   16470:	e12fff1e 	bx	lr
   16474:	e13c0000 	teq	ip, r0
   16478:	42600000 	rsbmi	r0, r0, #0
   1647c:	e12fff1e 	bx	lr
   16480:	33a00000 	movcc	r0, #0
   16484:	01a00fcc 	asreq	r0, ip, #31
   16488:	03800001 	orreq	r0, r0, #1
   1648c:	e12fff1e 	bx	lr
   16490:	e16f2f11 	clz	r2, r1
   16494:	e262201f 	rsb	r2, r2, #31
   16498:	e35c0000 	cmp	ip, #0
   1649c:	e1a00233 	lsr	r0, r3, r2
   164a0:	42600000 	rsbmi	r0, r0, #0
   164a4:	e12fff1e 	bx	lr
   164a8:	e3500000 	cmp	r0, #0
   164ac:	c3e00102 	mvngt	r0, #-2147483648	; 0x80000000
   164b0:	b3a00102 	movlt	r0, #-2147483648	; 0x80000000
   164b4:	ea000007 	b	164d8 <__aeabi_idiv0>

000164b8 <__aeabi_idivmod>:
   164b8:	e3510000 	cmp	r1, #0
   164bc:	0afffff9 	beq	164a8 <.divsi3_skip_div0_test+0x208>
   164c0:	e92d4003 	push	{r0, r1, lr}
   164c4:	ebffff75 	bl	162a0 <.divsi3_skip_div0_test>
   164c8:	e8bd4006 	pop	{r1, r2, lr}
   164cc:	e0030092 	mul	r3, r2, r0
   164d0:	e0411003 	sub	r1, r1, r3
   164d4:	e12fff1e 	bx	lr

000164d8 <__aeabi_idiv0>:
   164d8:	e92d4002 	push	{r1, lr}
   164dc:	e3a00008 	mov	r0, #8
   164e0:	ebffe860 	bl	10668 <raise@plt>
   164e4:	e8bd8002 	pop	{r1, pc}

000164e8 <__libc_csu_init>:
   164e8:	e92d47f0 	push	{r4, r5, r6, r7, r8, r9, sl, lr}
   164ec:	e1a07000 	mov	r7, r0
   164f0:	e59f6048 	ldr	r6, [pc, #72]	; 16540 <__libc_csu_init+0x58>
   164f4:	e59f5048 	ldr	r5, [pc, #72]	; 16544 <__libc_csu_init+0x5c>
   164f8:	e08f6006 	add	r6, pc, r6
   164fc:	e08f5005 	add	r5, pc, r5
   16500:	e0466005 	sub	r6, r6, r5
   16504:	e1a08001 	mov	r8, r1
   16508:	e1a09002 	mov	r9, r2
   1650c:	ebffe84d 	bl	10648 <_init>
   16510:	e1b06146 	asrs	r6, r6, #2
   16514:	08bd87f0 	popeq	{r4, r5, r6, r7, r8, r9, sl, pc}
   16518:	e3a04000 	mov	r4, #0
   1651c:	e2844001 	add	r4, r4, #1
   16520:	e4953004 	ldr	r3, [r5], #4
   16524:	e1a02009 	mov	r2, r9
   16528:	e1a01008 	mov	r1, r8
   1652c:	e1a00007 	mov	r0, r7
   16530:	e12fff33 	blx	r3
   16534:	e1560004 	cmp	r6, r4
   16538:	1afffff7 	bne	1651c <__libc_csu_init+0x34>
   1653c:	e8bd87f0 	pop	{r4, r5, r6, r7, r8, r9, sl, pc}
   16540:	00010a00 	andeq	r0, r1, r0, lsl #20
   16544:	000109f8 	strdeq	r0, [r1], -r8

00016548 <__libc_csu_fini>:
   16548:	e12fff1e 	bx	lr

Déassemblage de la section .fini :

0001654c <_fini>:
   1654c:	e92d4008 	push	{r3, lr}
   16550:	e8bd8008 	pop	{r3, pc}

Déassemblage de la section .rodata :

00016558 <_IO_stdin_used>:
   16558:	00020001 	andeq	r0, r2, r1
	...
   16564:	3ff00000 	svccc	0x00f00000	; IMB
	...
   16584:	3ff00000 	svccc	0x00f00000	; IMB
	...
   165a4:	3ff00000 	svccc	0x00f00000	; IMB
   165a8:	0073250a 	rsbseq	r2, r3, sl, lsl #10
   165ac:	4f525245 	svcmi	0x00525245
   165b0:	6e692052 	mcrvs	0, 3, r2, cr9, cr2, {2}
   165b4:	4e415220 	cdpmi	2, 4, cr5, cr1, cr0, {1}
   165b8:	5f4d4f44 	svcpl	0x004d4f44
   165bc:	20535047 	subscs	r5, r3, r7, asr #32
   165c0:	46203e2d 	strtmi	r3, [r0], -sp, lsr #28
   165c4:	5f514552 	svcpl	0x00514552
   165c8:	204c4156 	subcs	r4, ip, r6, asr r1
   165cc:	7473756d 	ldrbtvc	r7, [r3], #-1389	; 0xfffffa93
   165d0:	20656220 	rsbcs	r6, r5, r0, lsr #4
   165d4:	5b206e69 	blpl	831f80 <__bss_end__+0x807014>
   165d8:	2c302e30 	ldccs	14, cr2, [r0], #-192	; 0xffffff40
   165dc:	302e3120 	eorcc	r3, lr, r0, lsr #2
   165e0:	2121215d 			; <UNDEFINED> instruction: 0x2121215d
   165e4:	0000000a 	andeq	r0, r0, sl
   165e8:	4f525245 	svcmi	0x00525245
   165ec:	6e692052 	mcrvs	0, 3, r2, cr9, cr2, {2}
   165f0:	4e415220 	cdpmi	2, 4, cr5, cr1, cr0, {1}
   165f4:	5f4d4f44 	svcpl	0x004d4f44
   165f8:	20535047 	subscs	r5, r3, r7, asr #32
   165fc:	46203e2d 	strtmi	r3, [r0], -sp, lsr #28
   16600:	5f514552 	svcpl	0x00514552
   16604:	53494f4e 	movtpl	r4, #40782	; 0x9f4e
   16608:	756d2045 	strbvc	r2, [sp, #-69]!	; 0xffffffbb
   1660c:	62207473 	eorvs	r7, r0, #1929379840	; 0x73000000
   16610:	6e692065 	cdpvs	0, 6, cr2, cr9, cr5, {3}
   16614:	2e305b20 	vaddcs.f64	d5, d0, d16
   16618:	31202c30 			; <UNDEFINED> instruction: 0x31202c30
   1661c:	205d302e 	subscs	r3, sp, lr, lsr #32
   16620:	20646e61 	rsbcs	r6, r4, r1, ror #28
   16624:	53494f4e 	movtpl	r4, #40782	; 0x9f4e
   16628:	4d415f45 	stclmi	15, cr5, [r1, #-276]	; 0xfffffeec
   1662c:	54494c50 	strbpl	r4, [r9], #-3152	; 0xfffff3b0
   16630:	20454455 	subcs	r4, r5, r5, asr r4
   16634:	30203d3e 	eorcc	r3, r0, lr, lsr sp
   16638:	2121302e 			; <UNDEFINED> instruction: 0x2121302e
   1663c:	00000a21 	andeq	r0, r0, r1, lsr #20
   16640:	4f525245 	svcmi	0x00525245
   16644:	6e692052 	mcrvs	0, 3, r2, cr9, cr2, {2}
   16648:	4e415220 	cdpmi	2, 4, cr5, cr1, cr0, {1}
   1664c:	5f4d4f44 	svcpl	0x004d4f44
   16650:	504d4f43 	subpl	r4, sp, r3, asr #30
   16654:	20535341 	subscs	r5, r3, r1, asr #6
   16658:	46203e2d 	strtmi	r3, [r0], -sp, lsr #28
   1665c:	5f514552 	svcpl	0x00514552
   16660:	204c4156 	subcs	r4, ip, r6, asr r1
   16664:	7473756d 	ldrbtvc	r7, [r3], #-1389	; 0xfffffa93
   16668:	20656220 	rsbcs	r6, r5, r0, lsr #4
   1666c:	5b206e69 	blpl	832018 <__bss_end__+0x8070ac>
   16670:	2c302e30 	ldccs	14, cr2, [r0], #-192	; 0xffffff40
   16674:	302e3120 	eorcc	r3, lr, r0, lsr #2
   16678:	2121215d 			; <UNDEFINED> instruction: 0x2121215d
   1667c:	0000000a 	andeq	r0, r0, sl
   16680:	4f525245 	svcmi	0x00525245
   16684:	6e692052 	mcrvs	0, 3, r2, cr9, cr2, {2}
   16688:	4e415220 	cdpmi	2, 4, cr5, cr1, cr0, {1}
   1668c:	5f4d4f44 	svcpl	0x004d4f44
   16690:	504d4f43 	subpl	r4, sp, r3, asr #30
   16694:	20535341 	subscs	r5, r3, r1, asr #6
   16698:	46203e2d 	strtmi	r3, [r0], -sp, lsr #28
   1669c:	5f514552 	svcpl	0x00514552
   166a0:	53494f4e 	movtpl	r4, #40782	; 0x9f4e
   166a4:	756d2045 	strbvc	r2, [sp, #-69]!	; 0xffffffbb
   166a8:	62207473 	eorvs	r7, r0, #1929379840	; 0x73000000
   166ac:	6e692065 	cdpvs	0, 6, cr2, cr9, cr5, {3}
   166b0:	2e305b20 	vaddcs.f64	d5, d0, d16
   166b4:	31202c30 			; <UNDEFINED> instruction: 0x31202c30
   166b8:	205d302e 	subscs	r3, sp, lr, lsr #32
   166bc:	20646e61 	rsbcs	r6, r4, r1, ror #28
   166c0:	53494f4e 	movtpl	r4, #40782	; 0x9f4e
   166c4:	4d415f45 	stclmi	15, cr5, [r1, #-276]	; 0xfffffeec
   166c8:	54494c50 	strbpl	r4, [r9], #-3152	; 0xfffff3b0
   166cc:	20454455 	subcs	r4, r5, r5, asr r4
   166d0:	7473756d 	ldrbtvc	r7, [r3], #-1389	; 0xfffffa93
   166d4:	20656220 	rsbcs	r6, r5, r0, lsr #4
   166d8:	5b206e69 	blpl	832084 <__bss_end__+0x807118>
   166dc:	2c302e30 	ldccs	14, cr2, [r0], #-192	; 0xffffff40
   166e0:	30363320 	eorscc	r3, r6, r0, lsr #6
   166e4:	215d302e 	cmpcs	sp, lr, lsr #32
   166e8:	000a2121 	andeq	r2, sl, r1, lsr #2
   166ec:	4f525245 	svcmi	0x00525245
   166f0:	6e692052 	mcrvs	0, 3, r2, cr9, cr2, {2}
   166f4:	4e415220 	cdpmi	2, 4, cr5, cr1, cr0, {1}
   166f8:	5f4d4f44 	svcpl	0x004d4f44
   166fc:	4d4f444f 	cfstrdmi	mvd4, [pc, #-316]	; 165c8 <_IO_stdin_used+0x70>
   16700:	59525445 	ldmdbpl	r2, {r0, r2, r6, sl, ip, lr}^
   16704:	203e2d20 	eorscs	r2, lr, r0, lsr #26
   16708:	51455246 	cmppl	r5, r6, asr #4
   1670c:	4c41565f 	mcrrmi	6, 5, r5, r1, cr15
   16710:	73756d20 	cmnvc	r5, #32, 26	; 0x800
   16714:	65622074 	strbvs	r2, [r2, #-116]!	; 0xffffff8c
   16718:	206e6920 	rsbcs	r6, lr, r0, lsr #18
   1671c:	302e305b 	eorcc	r3, lr, fp, asr r0
   16720:	2e31202c 	cdpcs	0, 3, cr2, cr1, cr12, {1}
   16724:	21215d30 			; <UNDEFINED> instruction: 0x21215d30
   16728:	00000a21 	andeq	r0, r0, r1, lsr #20
   1672c:	4f525245 	svcmi	0x00525245
   16730:	6e692052 	mcrvs	0, 3, r2, cr9, cr2, {2}
   16734:	4e415220 	cdpmi	2, 4, cr5, cr1, cr0, {1}
   16738:	5f4d4f44 	svcpl	0x004d4f44
   1673c:	4d4f444f 	cfstrdmi	mvd4, [pc, #-316]	; 16608 <_IO_stdin_used+0xb0>
   16740:	59525445 	ldmdbpl	r2, {r0, r2, r6, sl, ip, lr}^
   16744:	203e2d20 	eorscs	r2, lr, r0, lsr #26
   16748:	51455246 	cmppl	r5, r6, asr #4
   1674c:	494f4e5f 	stmdbmi	pc, {r0, r1, r2, r3, r4, r6, r9, sl, fp, lr}^	; <UNPREDICTABLE>
   16750:	6d204553 	cfstr32vs	mvfx4, [r0, #-332]!	; 0xfffffeb4
   16754:	20747375 	rsbscs	r7, r4, r5, ror r3
   16758:	69206562 	stmdbvs	r0!, {r1, r5, r6, r8, sl, sp, lr}
   1675c:	305b206e 	subscc	r2, fp, lr, rrx
   16760:	202c302e 	eorcs	r3, ip, lr, lsr #32
   16764:	5d302e31 	ldcpl	14, cr2, [r0, #-196]!	; 0xffffff3c
   16768:	646e6120 	strbtvs	r6, [lr], #-288	; 0xfffffee0
   1676c:	494f4e20 	stmdbmi	pc, {r5, r9, sl, fp, lr}^	; <UNPREDICTABLE>
   16770:	415f4553 	cmpmi	pc, r3, asr r5	; <UNPREDICTABLE>
   16774:	494c504d 	stmdbmi	ip, {r0, r2, r3, r6, ip, lr}^
   16778:	45445554 	strbmi	r5, [r4, #-1364]	; 0xfffffaac
   1677c:	203d3e20 	eorscs	r3, sp, r0, lsr #28
   16780:	21302e30 	teqcs	r0, r0, lsr lr
   16784:	000a2121 	andeq	r2, sl, r1, lsr #2

00016788 <K_rp>:
   16788:	1eb851ec 	frdne<précision illégale>z	f5, f0, #4.0
   1678c:	3fb1eb85 	svccc	0x00b1eb85
   16790:	1eb851ec 	frdne<précision illégale>z	f5, f0, #4.0
   16794:	3fb1eb85 	svccc	0x00b1eb85
   16798:	33333333 	teqcc	r3, #-872415232	; 0xcc000000
   1679c:	3fd33333 	svccc	0x00d33333
   167a0:	1eb851ec 	frdne<précision illégale>z	f5, f0, #4.0
   167a4:	3ffbeb85 	svccc	0x00fbeb85
   167a8:	1eb851ec 	frdne<précision illégale>z	f5, f0, #4.0
   167ac:	3ffbeb85 	svccc	0x00fbeb85

000167b0 <Qd>:
   167b0:	47ae147b 			; <UNDEFINED> instruction: 0x47ae147b
   167b4:	3f847ae1 	svccc	0x00847ae1
	...
   167c8:	47ae147b 			; <UNDEFINED> instruction: 0x47ae147b
   167cc:	3f847ae1 	svccc	0x00847ae1

000167d0 <Q>:
   167d0:	00000002 	andeq	r0, r0, r2
   167d4:	00000002 	andeq	r0, r0, r2
   167d8:	000167b0 			; <UNDEFINED> instruction: 0x000167b0
   167dc:	00000000 	andeq	r0, r0, r0

000167e0 <K_mn>:
   167e0:	47ae147b 			; <UNDEFINED> instruction: 0x47ae147b
   167e4:	3f847ae1 	svccc	0x00847ae1
   167e8:	47ae147b 			; <UNDEFINED> instruction: 0x47ae147b
   167ec:	3f847ae1 	svccc	0x00847ae1
   167f0:	cac08312 	bgt	ff037440 <__bss_end__+0xff00c4d4>
   167f4:	3fb645a1 	svccc	0x00b645a1
	...

00016808 <RGPSd>:
   16808:	eb1c432d 	bl	7274c4 <__bss_end__+0x6fc558>
   1680c:	3f1a36e2 	svccc	0x001a36e2
	...
   16820:	eb1c432d 	bl	7274dc <__bss_end__+0x6fc570>
   16824:	3f1a36e2 	svccc	0x001a36e2

00016828 <RGPS>:
   16828:	00000002 	andeq	r0, r0, r2
   1682c:	00000002 	andeq	r0, r0, r2
   16830:	00016808 	andeq	r6, r1, r8, lsl #16
   16834:	00000000 	andeq	r0, r0, r0

00016838 <RCOMPd>:
   16838:	f76a2f48 			; <UNDEFINED> instruction: 0xf76a2f48
   1683c:	3f7f00ab 	svccc	0x007f00ab

00016840 <RCOMP>:
   16840:	00000001 	andeq	r0, r0, r1
   16844:	00000001 	andeq	r0, r0, r1
   16848:	00016838 	andeq	r6, r1, r8, lsr r8
   1684c:	00000000 	andeq	r0, r0, r0

00016850 <RGPSCOMPd>:
   16850:	eb1c432d 	bl	72750c <__bss_end__+0x6fc5a0>
   16854:	3f1a36e2 	svccc	0x001a36e2
	...
   16870:	eb1c432d 	bl	72752c <__bss_end__+0x6fc5c0>
   16874:	3f1a36e2 	svccc	0x001a36e2
	...
   16890:	f76a2f48 			; <UNDEFINED> instruction: 0xf76a2f48
   16894:	3f7f00ab 	svccc	0x007f00ab

00016898 <RGPSCOMP>:
   16898:	00000003 	andeq	r0, r0, r3
   1689c:	00000003 	andeq	r0, r0, r3
   168a0:	00016850 	andeq	r6, r1, r0, asr r8
   168a4:	00000000 	andeq	r0, r0, r0
   168a8:	6f636e69 	svcvs	0x00636e69
   168ac:	7369736e 	cmnvc	r9, #-1207959551	; 0xb8000001
   168b0:	746e6574 	strbtvc	r6, [lr], #-1396	; 0xfffffa8c
   168b4:	7a697320 	bvc	1a7353c <__bss_end__+0x1a485d0>
   168b8:	00007365 	andeq	r7, r0, r5, ror #6
   168bc:	676e6973 			; <UNDEFINED> instruction: 0x676e6973
   168c0:	72616c75 	rsbvc	r6, r1, #29952	; 0x7500
   168c4:	74616d20 	strbtvc	r6, [r1], #-3360	; 0xfffff2e0
   168c8:	00786972 	rsbseq	r6, r8, r2, ror r9
   168cc:	206e6f6e 	rsbcs	r6, lr, lr, ror #30
   168d0:	61757173 	cmnvs	r5, r3, ror r1
   168d4:	6d206572 	cfstr32vs	mvfx6, [r0, #-456]!	; 0xfffffe38
   168d8:	69727461 	ldmdbvs	r2!, {r0, r5, r6, sl, ip, sp, lr}^
   168dc:	00000078 	andeq	r0, r0, r8, ror r0
   168e0:	636e7566 	cmnvs	lr, #427819008	; 0x19800000
   168e4:	6e6f6974 			; <UNDEFINED> instruction: 0x6e6f6974
   168e8:	746f6e20 	strbtvc	r6, [pc], #-3616	; 168f0 <RGPSCOMP+0x58>
   168ec:	706d6920 	rsbvc	r6, sp, r0, lsr #18
   168f0:	656d656c 	strbvs	r6, [sp, #-1388]!	; 0xfffffa94
   168f4:	6465746e 	strbtvs	r7, [r5], #-1134	; 0xfffffb92
   168f8:	74657920 	strbtvc	r7, [r5], #-2336	; 0xfffff6e0
   168fc:	00000000 	andeq	r0, r0, r0
   16900:	6f706d69 	svcvs	0x00706d69
   16904:	62697373 	rsbvs	r7, r9, #-872415231	; 0xcc000001
   16908:	7420656c 	strtvc	r6, [r0], #-1388	; 0xfffffa94
   1690c:	6163206f 	cmnvs	r3, pc, rrx
   16910:	6c75636c 	ldclvs	3, cr6, [r5], #-432	; 0xfffffe50
   16914:	20657461 	rsbcs	r7, r5, r1, ror #8
   16918:	65676965 	strbvs	r6, [r7, #-2405]!	; 0xfffff69b
   1691c:	6c61766e 	stclvs	6, cr7, [r1], #-440	; 0xfffffe48
   16920:	2f736575 	svccs	0x00736575
   16924:	74636576 	strbtvc	r6, [r3], #-1398	; 0xfffffa8a
   16928:	0073726f 	rsbseq	r7, r3, pc, ror #4
   1692c:	00000000 	andeq	r0, r0, r0

00016930 <K_EYE_3_3d>:
   16930:	00000000 	andeq	r0, r0, r0
   16934:	3ff00000 	svccc	0x00f00000	; IMB
	...
   16954:	3ff00000 	svccc	0x00f00000	; IMB
	...
   16974:	3ff00000 	svccc	0x00f00000	; IMB

00016978 <K_EYE_3_3>:
   16978:	00000003 	andeq	r0, r0, r3
   1697c:	00000003 	andeq	r0, r0, r3
   16980:	00016930 	andeq	r6, r1, r0, lsr r9
   16984:	72687470 	rsbvc	r7, r8, #112, 8	; 0x70000000
   16988:	5f646165 	svcpl	0x00646165
   1698c:	61657263 	cmnvs	r5, r3, ror #4
   16990:	00006574 	andeq	r6, r0, r4, ror r5
   16994:	72687470 	rsbvc	r7, r8, #112, 8	; 0x70000000
   16998:	5f646165 	svcpl	0x00646165
   1699c:	6e696f6a 	cdpvs	15, 6, cr6, cr9, cr10, {3}
	...

Déassemblage de la section .ARM.exidx :

000169a4 <.ARM.exidx>:
   169a4:	7fff9dc4 	svcvc	0x00ff9dc4
   169a8:	00000001 	andeq	r0, r0, r1

Déassemblage de la section .eh_frame :

000169ac <__FRAME_END__>:
   169ac:	00000000 	andeq	r0, r0, r0

Déassemblage de la section .init_array :

00026efc <__frame_dummy_init_array_entry>:
   26efc:	00010858 	andeq	r0, r1, r8, asr r8

Déassemblage de la section .fini_array :

00026f00 <__do_global_dtors_aux_fini_array_entry>:
   26f00:	00010830 	andeq	r0, r1, r0, lsr r8

Déassemblage de la section .jcr :

00026f04 <__JCR_END__>:
   26f04:	00000000 	andeq	r0, r0, r0

Déassemblage de la section .dynamic :

00026f08 <_DYNAMIC>:
   26f08:	00000001 	andeq	r0, r0, r1
   26f0c:	00000001 	andeq	r0, r0, r1
   26f10:	00000001 	andeq	r0, r0, r1
   26f14:	00000077 	andeq	r0, r0, r7, ror r0
   26f18:	00000001 	andeq	r0, r0, r1
   26f1c:	000000a9 	andeq	r0, r0, r9, lsr #1
   26f20:	0000000c 	andeq	r0, r0, ip
   26f24:	00010648 	andeq	r0, r1, r8, asr #12
   26f28:	0000000d 	andeq	r0, r0, sp
   26f2c:	0001654c 	andeq	r6, r1, ip, asr #10
   26f30:	00000019 	andeq	r0, r0, r9, lsl r0
   26f34:	00026efc 	strdeq	r6, [r2], -ip
   26f38:	0000001b 	andeq	r0, r0, fp, lsl r0
   26f3c:	00000004 	andeq	r0, r0, r4
   26f40:	0000001a 	andeq	r0, r0, sl, lsl r0
   26f44:	00026f00 	andeq	r6, r2, r0, lsl #30
   26f48:	0000001c 	andeq	r0, r0, ip, lsl r0
   26f4c:	00000004 	andeq	r0, r0, r4
   26f50:	6ffffef5 	svcvs	0x00fffef5
   26f54:	000101b4 			; <UNDEFINED> instruction: 0x000101b4
   26f58:	00000005 	andeq	r0, r0, r5
   26f5c:	000103f8 	strdeq	r0, [r1], -r8
   26f60:	00000006 	andeq	r0, r0, r6
   26f64:	00010268 	andeq	r0, r1, r8, ror #4
   26f68:	0000000a 	andeq	r0, r0, sl
   26f6c:	0000010e 	andeq	r0, r0, lr, lsl #2
   26f70:	0000000b 	andeq	r0, r0, fp
   26f74:	00000010 	andeq	r0, r0, r0, lsl r0
   26f78:	00000015 	andeq	r0, r0, r5, lsl r0
   26f7c:	00000000 	andeq	r0, r0, r0
   26f80:	00000003 	andeq	r0, r0, r3
   26f84:	00027000 	andeq	r7, r2, r0
   26f88:	00000002 	andeq	r0, r0, r2
   26f8c:	000000a8 	andeq	r0, r0, r8, lsr #1
   26f90:	00000014 	andeq	r0, r0, r4, lsl r0
   26f94:	00000011 	andeq	r0, r0, r1, lsl r0
   26f98:	00000017 	andeq	r0, r0, r7, lsl r0
   26f9c:	000105a0 	andeq	r0, r1, r0, lsr #11
   26fa0:	00000011 	andeq	r0, r0, r1, lsl r0
   26fa4:	00010598 	muleq	r1, r8, r5
   26fa8:	00000012 	andeq	r0, r0, r2, lsl r0
   26fac:	00000008 	andeq	r0, r0, r8
   26fb0:	00000013 	andeq	r0, r0, r3, lsl r0
   26fb4:	00000008 	andeq	r0, r0, r8
   26fb8:	6ffffffe 	svcvs	0x00fffffe
   26fbc:	00010538 	andeq	r0, r1, r8, lsr r5
   26fc0:	6fffffff 	svcvs	0x00ffffff
   26fc4:	00000003 	andeq	r0, r0, r3
   26fc8:	6ffffff0 	svcvs	0x00fffff0
   26fcc:	00010506 	andeq	r0, r1, r6, lsl #10
	...

Déassemblage de la section .got :

00027000 <_GLOBAL_OFFSET_TABLE_>:
   27000:	00026f08 	andeq	r6, r2, r8, lsl #30
	...
   2700c:	00010654 	andeq	r0, r1, r4, asr r6
   27010:	00010654 	andeq	r0, r1, r4, asr r6
   27014:	00010654 	andeq	r0, r1, r4, asr r6
   27018:	00010654 	andeq	r0, r1, r4, asr r6
   2701c:	00010654 	andeq	r0, r1, r4, asr r6
   27020:	00010654 	andeq	r0, r1, r4, asr r6
   27024:	00010654 	andeq	r0, r1, r4, asr r6
   27028:	00010654 	andeq	r0, r1, r4, asr r6
   2702c:	00010654 	andeq	r0, r1, r4, asr r6
   27030:	00010654 	andeq	r0, r1, r4, asr r6
   27034:	00010654 	andeq	r0, r1, r4, asr r6
   27038:	00010654 	andeq	r0, r1, r4, asr r6
   2703c:	00010654 	andeq	r0, r1, r4, asr r6
   27040:	00010654 	andeq	r0, r1, r4, asr r6
   27044:	00010654 	andeq	r0, r1, r4, asr r6
   27048:	00010654 	andeq	r0, r1, r4, asr r6
   2704c:	00010654 	andeq	r0, r1, r4, asr r6
   27050:	00010654 	andeq	r0, r1, r4, asr r6
   27054:	00010654 	andeq	r0, r1, r4, asr r6
   27058:	00010654 	andeq	r0, r1, r4, asr r6
   2705c:	00010654 	andeq	r0, r1, r4, asr r6
   27060:	00000000 	andeq	r0, r0, r0

Déassemblage de la section .data :

00027064 <__data_start>:
   27064:	00000000 	andeq	r0, r0, r0

00027068 <__dso_handle>:
   27068:	00000000 	andeq	r0, r0, r0

0002706c <is_init.7147>:
   2706c:	00010101 	andeq	r0, r1, r1, lsl #2

0002706d <is_init.7185>:
   2706d:	a8000101 	stmdage	r0, {r0, r8}

0002706e <is_init.6558>:
   2706e:	68a80001 	stmiavs	r8!, {r0}

00027070 <kINCONS_SIZES>:
   27070:	000168a8 	andeq	r6, r1, r8, lsr #17

00027074 <kSINGULAR>:
   27074:	000168bc 			; <UNDEFINED> instruction: 0x000168bc

00027078 <kNON_SQUARE>:
   27078:	000168cc 	andeq	r6, r1, ip, asr #17

0002707c <kNOT_IMPLEMENTED>:
   2707c:	000168e0 	andeq	r6, r1, r0, ror #17

00027080 <kEIG_ERROR>:
   27080:	00016900 	andeq	r6, r1, r0, lsl #18

Déassemblage de la section .bss :

00027088 <completed.10395>:
   27088:	00000000 	andeq	r0, r0, r0

0002708c <prev_index.7149>:
   2708c:	00000000 	andeq	r0, r0, r0

00027090 <prev_pos.7148>:
	...

0002709c <i_side.7150>:
   2709c:	00000000 	andeq	r0, r0, r0

000270a0 <r_side.7152>:
	...

00028fe0 <l_side.7151>:
	...

0002af20 <prev_setpoint.7186>:
	...

0002af2c <vr.7187>:
   2af2c:	00000000 	andeq	r0, r0, r0

0002af30 <wr.7188>:
	...

0002af38 <v>:
	...

0002af40 <w>:
	...

0002af48 <input_random_param>:
	...

Déassemblage de la section .comment :

00000000 <.comment>:
   0:	3a434347 	bcc	10d0d24 <__bss_end__+0x10a5db8>
   4:	61522820 	cmpvs	r2, r0, lsr #16
   8:	69627073 	stmdbvs	r2!, {r0, r1, r4, r5, r6, ip, sp, lr}^
   c:	36206e61 	strtcc	r6, [r0], -r1, ror #28
  10:	302e332e 	eorcc	r3, lr, lr, lsr #6
  14:	2b38312d 	blcs	e0c4d0 <__bss_end__+0xde1564>
  18:	31697072 	smccc	38658	; 0x9702
  1c:	6265642b 	rsbvs	r6, r5, #721420288	; 0x2b000000
  20:	29317539 	ldmdbcs	r1!, {r0, r3, r4, r5, r8, sl, ip, sp, lr}
  24:	332e3620 			; <UNDEFINED> instruction: 0x332e3620
  28:	3220302e 	eorcc	r3, r0, #46	; 0x2e
  2c:	30373130 	eorscc	r3, r7, r0, lsr r1
  30:	00363135 	eorseq	r3, r6, r5, lsr r1

Déassemblage de la section .ARM.attributes :

00000000 <.ARM.attributes>:
   0:	00002e41 	andeq	r2, r0, r1, asr #28
   4:	61656100 	cmnvs	r5, r0, lsl #2
   8:	01006962 	tsteq	r0, r2, ror #18
   c:	00000024 	andeq	r0, r0, r4, lsr #32
  10:	06003605 	streq	r3, [r0], -r5, lsl #12
  14:	09010806 	stmdbeq	r1, {r1, r2, fp}
  18:	12020a01 	andne	r0, r2, #4096	; 0x1000
  1c:	14011304 	strne	r1, [r1], #-772	; 0xfffffcfc
  20:	17011501 	strne	r1, [r1, -r1, lsl #10]
  24:	19011803 	stmdbne	r1, {r0, r1, fp, ip}
  28:	1c021a01 			; <UNDEFINED> instruction: 0x1c021a01
  2c:	Adresse 0x0000002c hors intervalle.


Déassemblage de la section .debug_aranges :

00000000 <.debug_aranges>:
   0:	0000001c 	andeq	r0, r0, ip, lsl r0
   4:	00000002 	andeq	r0, r0, r2
   8:	00040000 	andeq	r0, r4, r0
   c:	00000000 	andeq	r0, r0, r0
  10:	00010890 	muleq	r1, r0, r8
  14:	0000016c 	andeq	r0, r0, ip, ror #2
	...
  20:	0000001c 	andeq	r0, r0, ip, lsl r0
  24:	070c0002 	streq	r0, [ip, -r2]
  28:	00040000 	andeq	r0, r4, r0
  2c:	00000000 	andeq	r0, r0, r0
  30:	000109fc 	strdeq	r0, [r1], -ip
  34:	00000500 	andeq	r0, r0, r0, lsl #10
	...
  40:	0000001c 	andeq	r0, r0, ip, lsl r0
  44:	0a050002 	beq	140054 <__bss_end__+0x1150e8>
  48:	00040000 	andeq	r0, r4, r0
  4c:	00000000 	andeq	r0, r0, r0
  50:	00010f00 	andeq	r0, r1, r0, lsl #30
  54:	00001e24 	andeq	r1, r0, r4, lsr #28
	...
  60:	0000001c 	andeq	r0, r0, ip, lsl r0
  64:	139e0002 	orrsne	r0, lr, #2
  68:	00040000 	andeq	r0, r4, r0
  6c:	00000000 	andeq	r0, r0, r0
  70:	00012d28 	andeq	r2, r1, r8, lsr #26
  74:	000008a0 	andeq	r0, r0, r0, lsr #17
	...
  80:	0000001c 	andeq	r0, r0, ip, lsl r0
  84:	1b740002 	blne	1d00094 <__bss_end__+0x1cd5128>
  88:	00040000 	andeq	r0, r4, r0
  8c:	00000000 	andeq	r0, r0, r0
  90:	000135c8 	andeq	r3, r1, r8, asr #11
  94:	000016bc 			; <UNDEFINED> instruction: 0x000016bc
	...
  a0:	0000001c 	andeq	r0, r0, ip, lsl r0
  a4:	238c0002 	orrcs	r0, ip, #2
  a8:	00040000 	andeq	r0, r4, r0
  ac:	00000000 	andeq	r0, r0, r0
  b0:	00014c88 	andeq	r4, r1, r8, lsl #25
  b4:	000002e4 	andeq	r0, r0, r4, ror #5
	...
  c0:	00000014 	andeq	r0, r0, r4, lsl r0
  c4:	28ab0002 	stmiacs	fp!, {r1}
  c8:	00040000 	andeq	r0, r4, r0
	...
  d8:	0000001c 	andeq	r0, r0, ip, lsl r0
  dc:	2b970002 	blcs	fe5c00ec <__bss_end__+0xfe595180>
  e0:	00040000 	andeq	r0, r4, r0
  e4:	00000000 	andeq	r0, r0, r0
  e8:	00014f70 	andeq	r4, r1, r0, ror pc
  ec:	000011e8 	andeq	r1, r0, r8, ror #3
	...
  f8:	0000001c 	andeq	r0, r0, ip, lsl r0
  fc:	325b0002 	subscc	r0, fp, #2
 100:	00040000 	andeq	r0, r4, r0
 104:	00000000 	andeq	r0, r0, r0
 108:	00016158 	andeq	r6, r1, r8, asr r1
 10c:	00000140 	andeq	r0, r0, r0, asr #2
	...

Déassemblage de la section .debug_info :

00000000 <.debug_info>:
       0:	00000708 	andeq	r0, r0, r8, lsl #14
       4:	00000004 	andeq	r0, r0, r4
       8:	01040000 	mrseq	r0, (UNDEF: 4)
       c:	00000169 	andeq	r0, r0, r9, ror #2
      10:	0000140c 	andeq	r1, r0, ip, lsl #8
      14:	00032c00 	andeq	r2, r3, r0, lsl #24
      18:	01089000 	mrseq	r9, (UNDEF: 8)
      1c:	00016c00 	andeq	r6, r1, r0, lsl #24
      20:	00000000 	andeq	r0, r0, r0
      24:	06010200 	streq	r0, [r1], -r0, lsl #4
      28:	000003bf 			; <UNDEFINED> instruction: 0x000003bf
      2c:	07050202 	streq	r0, [r5, -r2, lsl #4]
      30:	03000003 	movweq	r0, #3
      34:	6e690504 	cdpvs	5, 6, cr0, cr9, cr4, {0}
      38:	08020074 	stmdaeq	r2, {r2, r4, r5, r6}
      3c:	00023d05 	andeq	r3, r2, r5, lsl #26
      40:	08010200 	stmdaeq	r1, {r9}
      44:	000003bd 			; <UNDEFINED> instruction: 0x000003bd
      48:	ff070202 			; <UNDEFINED> instruction: 0xff070202
      4c:	02000003 	andeq	r0, r0, #3
      50:	00f90704 	rscseq	r0, r9, r4, lsl #14
      54:	08020000 	stmdaeq	r2, {}	; <UNPREDICTABLE>
      58:	0000ef07 	andeq	lr, r0, r7, lsl #30
      5c:	02e30400 	rsceq	r0, r3, #0, 8
      60:	58020000 	stmdapl	r2, {}	; <UNPREDICTABLE>
      64:	00000025 	andeq	r0, r0, r5, lsr #32
      68:	0001c304 	andeq	ip, r1, r4, lsl #6
      6c:	735c0200 	cmpvc	ip, #0, 4
      70:	02000000 	andeq	r0, r0, #0
      74:	02420504 	subeq	r0, r2, #4, 10	; 0x1000000
      78:	04020000 	streq	r0, [r2], #-0
      7c:	0000f407 	andeq	pc, r0, r7, lsl #8
      80:	020f0400 	andeq	r0, pc, #0, 8
      84:	5e020000 	cdppl	0, 0, cr0, cr2, cr0, {0}
      88:	0000008c 	andeq	r0, r0, ip, lsl #1
      8c:	d3040402 	movwle	r0, #17410	; 0x4402
      90:	04000000 	streq	r0, [r0], #-0
      94:	000002e9 	andeq	r0, r0, r9, ror #5
      98:	009e5f02 	addseq	r5, lr, r2, lsl #30
      9c:	08020000 	stmdaeq	r2, {}	; <UNPREDICTABLE>
      a0:	00041704 	andeq	r1, r4, r4, lsl #14
      a4:	008f0400 	addeq	r0, pc, r0, lsl #8
      a8:	24030000 	strcs	r0, [r3], #-0
      ac:	0000005d 	andeq	r0, r0, sp, asr r0
      b0:	0001bd04 	andeq	fp, r1, r4, lsl #26
      b4:	682a0300 	stmdavs	sl!, {r8, r9}
      b8:	04000000 	streq	r0, [r0], #-0
      bc:	000002ca 	andeq	r0, r0, sl, asr #5
      c0:	00812c03 	addeq	r2, r1, r3, lsl #24
      c4:	71040000 	mrsvc	r0, (UNDEF: 4)
      c8:	03000003 	movweq	r0, #3
      cc:	0000932d 	andeq	r9, r0, sp, lsr #6
      d0:	01ca0500 	biceq	r0, sl, r0, lsl #10
      d4:	030c0000 	movweq	r0, #49152	; 0xc000
      d8:	0000fe36 	andeq	pc, r0, r6, lsr lr	; <UNPREDICTABLE>
      dc:	00780600 	rsbseq	r0, r8, r0, lsl #12
      e0:	00bb3703 	adcseq	r3, fp, r3, lsl #14
      e4:	06000000 	streq	r0, [r0], -r0
      e8:	38030079 	stmdacc	r3, {r0, r3, r4, r5, r6}
      ec:	000000bb 	strheq	r0, [r0], -fp
      f0:	091d0704 	ldmdbeq	sp, {r2, r8, r9, sl}
      f4:	39030000 	stmdbcc	r3, {}	; <UNPREDICTABLE>
      f8:	000000bb 	strheq	r0, [r0], -fp
      fc:	ca040008 	bgt	100124 <__bss_end__+0xd51b8>
     100:	03000001 	movweq	r0, #1
     104:	0000d13a 	andeq	sp, r0, sl, lsr r1
     108:	03260500 			; <UNDEFINED> instruction: 0x03260500
     10c:	03180000 	tsteq	r8, #0
     110:	0001363c 	andeq	r3, r1, ip, lsr r6
     114:	00780600 	rsbseq	r0, r8, r0, lsl #12
     118:	00c63d03 	sbceq	r3, r6, r3, lsl #26
     11c:	06000000 	streq	r0, [r0], -r0
     120:	3e030079 	mcrcc	0, 0, r0, cr3, cr9, {3}
     124:	000000c6 	andeq	r0, r0, r6, asr #1
     128:	61760608 	cmnvs	r6, r8, lsl #12
     12c:	3f03006c 	svccc	0x0003006c
     130:	000000a5 	andeq	r0, r0, r5, lsr #1
     134:	26040010 			; <UNDEFINED> instruction: 0x26040010
     138:	03000003 	movweq	r0, #3
     13c:	00010940 	andeq	r0, r1, r0, asr #18
     140:	03b60500 			; <UNDEFINED> instruction: 0x03b60500
     144:	03100000 	tsteq	r0, #0
     148:	00016649 	andeq	r6, r1, r9, asr #12
     14c:	091d0700 	ldmdbeq	sp, {r8, r9, sl}
     150:	4a030000 	bmi	c0158 <__bss_end__+0x951ec>
     154:	000000c6 	andeq	r0, r0, r6, asr #1
     158:	61760600 	cmnvs	r6, r0, lsl #12
     15c:	4b03006c 	blmi	c0314 <__bss_end__+0x953a8>
     160:	000000a5 	andeq	r0, r0, r5, lsr #1
     164:	b6040008 	strlt	r0, [r4], -r8
     168:	03000003 	movweq	r0, #3
     16c:	0001414c 	andeq	r4, r1, ip, asr #2
     170:	00ac0500 	adceq	r0, ip, r0, lsl #10
     174:	03280000 			; <UNDEFINED> instruction: 0x03280000
     178:	0001d24e 	andeq	sp, r1, lr, asr #4
     17c:	02170700 	andseq	r0, r7, #0, 14
     180:	4f030000 	svcmi	0x00030000
     184:	0000009e 	muleq	r0, lr, r0
     188:	03e80700 	mvneq	r0, #0, 14
     18c:	50030000 	andpl	r0, r3, r0
     190:	0000009e 	muleq	r0, lr, r0
     194:	03110708 	tsteq	r1, #8, 14	; 0x200000
     198:	51030000 	mrspl	r0, (UNDEF: 3)
     19c:	000000bb 	strheq	r0, [r0], -fp
     1a0:	00d90710 	sbcseq	r0, r9, r0, lsl r7
     1a4:	52030000 	andpl	r0, r3, #0
     1a8:	000000bb 	strheq	r0, [r0], -fp
     1ac:	00390714 	eorseq	r0, r9, r4, lsl r7
     1b0:	53030000 	movwpl	r0, #12288	; 0x3000
     1b4:	000000b0 	strheq	r0, [r0], -r0	; <UNPREDICTABLE>
     1b8:	026f0718 	rsbeq	r0, pc, #24, 14	; 0x600000
     1bc:	54030000 	strpl	r0, [r3], #-0
     1c0:	000000b0 	strheq	r0, [r0], -r0	; <UNPREDICTABLE>
     1c4:	6176061c 	cmnvs	r6, ip, lsl r6
     1c8:	5503006c 	strpl	r0, [r3, #-108]	; 0xffffff94
     1cc:	000000a5 	andeq	r0, r0, r5, lsr #1
     1d0:	ac040020 	stcge	0, cr0, [r4], {32}
     1d4:	03000000 	movweq	r0, #0
     1d8:	00017156 	andeq	r7, r1, r6, asr r1
     1dc:	01ef0500 	mvneq	r0, r0, lsl #10
     1e0:	030c0000 	movweq	r0, #49152	; 0xc000
     1e4:	00020a5e 	andeq	r0, r2, lr, asr sl
     1e8:	00760600 	rsbseq	r0, r6, r0, lsl #12
     1ec:	00bb5f03 	adcseq	r5, fp, r3, lsl #30
     1f0:	06000000 	streq	r0, [r0], -r0
     1f4:	60030077 	andvs	r0, r3, r7, ror r0
     1f8:	000000bb 	strheq	r0, [r0], -fp
     1fc:	61760604 	cmnvs	r6, r4, lsl #12
     200:	6103006c 	tstvs	r3, ip, rrx
     204:	000000a5 	andeq	r0, r0, r5, lsr #1
     208:	ef040008 	svc	0x00040008
     20c:	03000001 	movweq	r0, #1
     210:	0001dd62 	andeq	sp, r1, r2, ror #26
     214:	00b90500 	adcseq	r0, r9, r0, lsl #10
     218:	030c0000 	movweq	r0, #49152	; 0xc000
     21c:	00024066 	andeq	r4, r2, r6, rrx
     220:	006c0600 	rsbeq	r0, ip, r0, lsl #12
     224:	00b06703 	adcseq	r6, r0, r3, lsl #14
     228:	06000000 	streq	r0, [r0], -r0
     22c:	68030063 	stmdavs	r3, {r0, r1, r5, r6}
     230:	000000b0 	strheq	r0, [r0], -r0	; <UNPREDICTABLE>
     234:	006d0604 	rsbeq	r0, sp, r4, lsl #12
     238:	024b6903 	subeq	r6, fp, #49152	; 0xc000
     23c:	00080000 	andeq	r0, r8, r0
     240:	0000c608 	andeq	ip, r0, r8, lsl #12
     244:	00024b00 	andeq	r4, r2, r0, lsl #22
     248:	0a000900 	beq	2650 <shift+0x2650>
     24c:	00024004 	andeq	r4, r2, r4
     250:	00b90400 	adcseq	r0, r9, r0, lsl #8
     254:	6a030000 	bvs	c025c <__bss_end__+0x952f0>
     258:	00000215 	andeq	r0, r0, r5, lsl r2
     25c:	98070402 	stmdals	r7, {r1, sl}
     260:	05000003 	streq	r0, [r0, #-3]
     264:	000002d2 	ldrdeq	r0, [r0], -r2
     268:	ce0c0438 	cfmvdhrgt	mvd12, r0
     26c:	07000002 	streq	r0, [r0, -r2]
     270:	00000095 	muleq	r0, r5, r0
     274:	00a50d04 	adceq	r0, r5, r4, lsl #26
     278:	07000000 	streq	r0, [r0, -r0]
     27c:	0000037a 	andeq	r0, r0, sl, ror r3
     280:	020a0e04 	andeq	r0, sl, #4, 28	; 0x40
     284:	07040000 	streq	r0, [r4, -r0]
     288:	0000013a 	andeq	r0, r0, sl, lsr r1
     28c:	00fe0f04 	rscseq	r0, lr, r4, lsl #30
     290:	07100000 	ldreq	r0, [r0, -r0]
     294:	0000028f 	andeq	r0, r0, pc, lsl #5
     298:	00fe1004 	rscseq	r1, lr, r4
     29c:	061c0000 	ldreq	r0, [ip], -r0
     2a0:	11040070 	tstne	r4, r0, ror r0
     2a4:	000002ce 	andeq	r0, r0, lr, asr #5
     2a8:	08c60728 	stmiaeq	r6, {r3, r5, r8, r9, sl}^
     2ac:	12040000 	andne	r0, r4, #0
     2b0:	000002d4 	ldrdeq	r0, [r0], -r4
     2b4:	7067062c 	rsbvc	r0, r7, ip, lsr #12
     2b8:	13040073 	movwne	r0, #16499	; 0x4073
     2bc:	000002da 	ldrdeq	r0, [r0], -sl
     2c0:	08f30730 	ldmeq	r3!, {r4, r5, r8, r9, sl}^
     2c4:	14040000 	strne	r0, [r4], #-0
     2c8:	000002e0 	andeq	r0, r0, r0, ror #5
     2cc:	040a0034 	streq	r0, [sl], #-52	; 0xffffffcc
     2d0:	000000fe 	strdeq	r0, [r0], -lr
     2d4:	0166040a 	cmneq	r6, sl, lsl #8
     2d8:	040a0000 	streq	r0, [sl], #-0
     2dc:	00000136 	andeq	r0, r0, r6, lsr r1
     2e0:	01d2040a 	bicseq	r0, r2, sl, lsl #8
     2e4:	d2040000 	andle	r0, r4, #0
     2e8:	04000002 	streq	r0, [r0], #-2
     2ec:	00026315 	andeq	r6, r2, r5, lsl r3
     2f0:	01410400 	cmpeq	r1, r0, lsl #8
     2f4:	d8050000 	stmdale	r5, {}	; <UNPREDICTABLE>
     2f8:	0000004f 	andeq	r0, r0, pc, asr #32
     2fc:	00028604 	andeq	r8, r2, r4, lsl #12
     300:	3a370600 	bcc	dc1b08 <__bss_end__+0xd96b9c>
     304:	04000000 	streq	r0, [r0], #-0
     308:	000003f0 	strdeq	r0, [r0], -r0	; <UNPREDICTABLE>
     30c:	00738306 	rsbseq	r8, r3, r6, lsl #6
     310:	51040000 	mrspl	r0, (UNDEF: 4)
     314:	06000004 	streq	r0, [r0], -r4
     318:	0002fc84 	andeq	pc, r2, r4, lsl #25
     31c:	0a040b00 	beq	102f24 <__bss_end__+0xd7fb8>
     320:	00032504 	andeq	r2, r3, r4, lsl #10
     324:	08010200 	stmdaeq	r1, {r9}
     328:	000003c6 	andeq	r0, r0, r6, asr #7
     32c:	0003250c 	andeq	r2, r3, ip, lsl #10
     330:	00000400 	andeq	r0, r0, r0, lsl #8
     334:	25070000 	strcs	r0, [r7, #-0]
     338:	0000007a 	andeq	r0, r0, sl, ror r0
     33c:	0003ad05 	andeq	sl, r3, r5, lsl #26
     340:	f1089800 			; <UNDEFINED> instruction: 0xf1089800
     344:	000004b9 			; <UNDEFINED> instruction: 0x000004b9
     348:	00007f07 	andeq	r7, r0, r7, lsl #30
     34c:	33f20800 	mvnscc	r0, #0, 16
     350:	00000000 	andeq	r0, r0, r0
     354:	0001f507 	andeq	pc, r1, r7, lsl #10
     358:	1ff70800 	svcne	0x00f70800
     35c:	04000003 	streq	r0, [r0], #-3
     360:	0002fa07 	andeq	pc, r2, r7, lsl #20
     364:	1ff80800 	svcne	0x00f80800
     368:	08000003 	stmdaeq	r0, {r0, r1}
     36c:	00014807 	andeq	r4, r1, r7, lsl #16
     370:	1ff90800 	svcne	0x00f90800
     374:	0c000003 	stceq	0, cr0, [r0], {3}
     378:	00021f07 	andeq	r1, r2, r7, lsl #30
     37c:	1ffa0800 	svcne	0x00fa0800
     380:	10000003 	andne	r0, r0, r3
     384:	0003da07 	andeq	sp, r3, r7, lsl #20
     388:	1ffb0800 	svcne	0x00fb0800
     38c:	14000003 	strne	r0, [r0], #-3
     390:	00005f07 	andeq	r5, r0, r7, lsl #30
     394:	1ffc0800 	svcne	0x00fc0800
     398:	18000003 	stmdane	r0, {r0, r1}
     39c:	00046407 	andeq	r6, r4, r7, lsl #8
     3a0:	1ffd0800 	svcne	0x00fd0800
     3a4:	1c000003 	stcne	0, cr0, [r0], {3}
     3a8:	00002d07 	andeq	r2, r0, r7, lsl #26
     3ac:	1ffe0800 	svcne	0x00fe0800
     3b0:	20000003 	andcs	r0, r0, r3
     3b4:	00025b0d 	andeq	r5, r2, sp, lsl #22
     3b8:	01000800 	tsteq	r0, r0, lsl #16
     3bc:	0000031f 	andeq	r0, r0, pc, lsl r3
     3c0:	01190d24 	tsteq	r9, r4, lsr #26
     3c4:	01080000 	mrseq	r0, (UNDEF: 8)
     3c8:	00031f01 	andeq	r1, r3, r1, lsl #30
     3cc:	c60d2800 	strgt	r2, [sp], -r0, lsl #16
     3d0:	08000000 	stmdaeq	r0, {}	; <UNPREDICTABLE>
     3d4:	031f0102 	tsteq	pc, #-2147483648	; 0x80000000
     3d8:	0d2c0000 	stceq	0, cr0, [ip, #-0]
     3dc:	00000086 	andeq	r0, r0, r6, lsl #1
     3e0:	f1010408 			; <UNDEFINED> instruction: 0xf1010408
     3e4:	30000004 	andcc	r0, r0, r4
     3e8:	00041e0d 	andeq	r1, r4, sp, lsl #28
     3ec:	01060800 	tsteq	r6, r0, lsl #16
     3f0:	000004f7 	strdeq	r0, [r0], -r7
     3f4:	01320d34 	teqeq	r2, r4, lsr sp
     3f8:	08080000 	stmdaeq	r8, {}	; <UNPREDICTABLE>
     3fc:	00003301 	andeq	r3, r0, r1, lsl #6
     400:	250d3800 	strcs	r3, [sp, #-2048]	; 0xfffff800
     404:	08000004 	stmdaeq	r0, {r2}
     408:	0033010c 	eorseq	r0, r3, ip, lsl #2
     40c:	0d3c0000 	ldceq	0, cr0, [ip, #-0]
     410:	000003a1 	andeq	r0, r0, r1, lsr #7
     414:	07010e08 	streq	r0, [r1, -r8, lsl #28]
     418:	40000003 	andmi	r0, r0, r3
     41c:	00042d0d 	andeq	r2, r4, sp, lsl #26
     420:	01120800 	tsteq	r2, r0, lsl #16
     424:	00000048 	andeq	r0, r0, r8, asr #32
     428:	02bb0d44 	adcseq	r0, fp, #68, 26	; 0x1100
     42c:	13080000 	movwne	r0, #32768	; 0x8000
     430:	00002501 	andeq	r2, r0, r1, lsl #10
     434:	0a0d4600 	beq	351c3c <__bss_end__+0x326cd0>
     438:	08000000 	stmdaeq	r0, {}	; <UNPREDICTABLE>
     43c:	04fd0114 	ldrbteq	r0, [sp], #276	; 0x114
     440:	0d470000 	stcleq	0, cr0, [r7, #-0]
     444:	00000392 	muleq	r0, r2, r3
     448:	0d011808 	stceq	8, cr1, [r1, #-32]	; 0xffffffe0
     44c:	48000005 	stmdami	r0, {r0, r2}
     450:	0003a50d 	andeq	sl, r3, sp, lsl #10
     454:	01210800 			; <UNDEFINED> instruction: 0x01210800
     458:	00000312 	andeq	r0, r0, r2, lsl r3
     45c:	02980d50 	addseq	r0, r8, #80, 26	; 0x1400
     460:	29080000 	stmdbcs	r8, {}	; <UNPREDICTABLE>
     464:	00031d01 	andeq	r1, r3, r1, lsl #26
     468:	9f0d5800 	svcls	0x000d5800
     46c:	08000002 	stmdaeq	r0, {r1}
     470:	031d012a 	tsteq	sp, #-2147483638	; 0x8000000a
     474:	0d5c0000 	ldcleq	0, cr0, [ip, #-0]
     478:	000002a6 	andeq	r0, r0, r6, lsr #5
     47c:	1d012b08 	vstrne	d2, [r1, #-32]	; 0xffffffe0
     480:	60000003 	andvs	r0, r0, r3
     484:	0002ad0d 	andeq	sl, r2, sp, lsl #26
     488:	012c0800 			; <UNDEFINED> instruction: 0x012c0800
     48c:	0000031d 	andeq	r0, r0, sp, lsl r3
     490:	02b40d64 	adcseq	r0, r4, #100, 26	; 0x1900
     494:	2e080000 	cdpcs	0, 0, cr0, cr8, cr0, {0}
     498:	0002f101 	andeq	pc, r2, r1, lsl #2
     49c:	d30d6800 	movwle	r6, #55296	; 0xd800
     4a0:	08000001 	stmdaeq	r0, {r0}
     4a4:	0033012f 	eorseq	r0, r3, pc, lsr #2
     4a8:	0d6c0000 	stcleq	0, cr0, [ip, #-0]
     4ac:	0000045b 	andeq	r0, r0, fp, asr r4
     4b0:	13013108 	movwne	r3, #4360	; 0x1108
     4b4:	70000005 	andvc	r0, r0, r5
     4b8:	001b0e00 	andseq	r0, fp, r0, lsl #28
     4bc:	96080000 	strls	r0, [r8], -r0
     4c0:	0001e405 	andeq	lr, r1, r5, lsl #8
     4c4:	9c080c00 	stcls	12, cr0, [r8], {-0}
     4c8:	000004f1 	strdeq	r0, [r0], -r1
     4cc:	00016307 	andeq	r6, r1, r7, lsl #6
     4d0:	f19d0800 			; <UNDEFINED> instruction: 0xf19d0800
     4d4:	00000004 	andeq	r0, r0, r4
     4d8:	0003d407 	andeq	sp, r3, r7, lsl #8
     4dc:	f79e0800 			; <UNDEFINED> instruction: 0xf79e0800
     4e0:	04000004 	streq	r0, [r0], #-4
     4e4:	00097807 	andeq	r7, r9, r7, lsl #16
     4e8:	33a20800 			; <UNDEFINED> instruction: 0x33a20800
     4ec:	08000000 	stmdaeq	r0, {}	; <UNPREDICTABLE>
     4f0:	c0040a00 	andgt	r0, r4, r0, lsl #20
     4f4:	0a000004 	beq	50c <shift+0x50c>
     4f8:	00033c04 	andeq	r3, r3, r4, lsl #24
     4fc:	03250800 			; <UNDEFINED> instruction: 0x03250800
     500:	050d0000 	streq	r0, [sp, #-0]
     504:	5c0f0000 	stcpl	0, cr0, [pc], {-0}
     508:	00000002 	andeq	r0, r0, r2
     50c:	b9040a00 	stmdblt	r4, {r9, fp}
     510:	08000004 	stmdaeq	r0, {r2}
     514:	00000325 	andeq	r0, r0, r5, lsr #6
     518:	00000523 	andeq	r0, r0, r3, lsr #10
     51c:	00025c0f 	andeq	r5, r2, pc, lsl #24
     520:	10002700 	andne	r2, r0, r0, lsl #14
     524:	00000384 	andeq	r0, r0, r4, lsl #7
     528:	00022e11 	andeq	r2, r2, r1, lsl lr
     52c:	013b0800 	teqeq	fp, r0, lsl #16
     530:	00000523 	andeq	r0, r0, r3, lsr #10
     534:	00024b11 	andeq	r4, r2, r1, lsl fp
     538:	013c0800 	teqeq	ip, r0, lsl #16
     53c:	00000523 	andeq	r0, r0, r3, lsr #10
     540:	00044111 	andeq	r4, r4, r1, lsl r1
     544:	013d0800 	teqeq	sp, r0, lsl #16
     548:	00000523 	andeq	r0, r0, r3, lsr #10
     54c:	032c040a 			; <UNDEFINED> instruction: 0x032c040a
     550:	4c0c0000 	stcmi	0, cr0, [ip], {-0}
     554:	12000005 	andne	r0, r0, #5
     558:	0000015d 	andeq	r0, r0, sp, asr r1
     55c:	04f7aa09 	ldrbteq	sl, [r7], #2569	; 0xa09
     560:	bf120000 	svclt	0x00120000
     564:	09000000 	stmdbeq	r0, {}	; <UNPREDICTABLE>
     568:	0004f7ab 	andeq	pc, r4, fp, lsr #15
     56c:	00261200 	eoreq	r1, r6, r0, lsl #4
     570:	ac090000 	stcge	0, cr0, [r9], {-0}
     574:	000004f7 	strdeq	r0, [r0], -r7
     578:	00012912 	andeq	r2, r1, r2, lsl r9
     57c:	331a0a00 	tstcc	sl, #0, 20
     580:	08000000 	stmdaeq	r0, {}	; <UNPREDICTABLE>
     584:	00000552 	andeq	r0, r0, r2, asr r5
     588:	0000058e 	andeq	r0, r0, lr, lsl #11
     58c:	830c0009 	movwhi	r0, #49161	; 0xc009
     590:	12000005 	andne	r0, r0, #5
     594:	0000010d 	andeq	r0, r0, sp, lsl #2
     598:	058e1b0a 	streq	r1, [lr, #2826]	; 0xb0a
     59c:	57120000 	ldrpl	r0, [r2, -r0]
     5a0:	0b000000 	bleq	5a8 <shift+0x5a8>
     5a4:	000033a8 	andeq	r3, r0, r8, lsr #7
     5a8:	33041300 	movwcc	r1, #17152	; 0x4300
     5ac:	0b000000 	bleq	5b4 <shift+0x5b4>
     5b0:	05d5015c 	ldrbeq	r0, [r5, #348]	; 0x15c
     5b4:	56140000 	ldrpl	r0, [r4], -r0
     5b8:	7f000001 	svcvc	0x00000001
     5bc:	0000b215 	andeq	fp, r0, r5, lsl r2
     5c0:	39150000 	ldmdbcc	r5, {}	; <UNPREDICTABLE>
     5c4:	01000004 	tsteq	r0, r4
     5c8:	00004f15 	andeq	r4, r0, r5, lsl pc
     5cc:	06150200 	ldreq	r0, [r5], -r0, lsl #4
     5d0:	03000001 	movweq	r0, #1
     5d4:	006d1600 	rsbeq	r1, sp, r0, lsl #12
     5d8:	620b0000 	andvs	r0, fp, #0
     5dc:	0005a901 	andeq	sl, r5, r1, lsl #18
     5e0:	02021100 	andeq	r1, r2, #0, 2
     5e4:	670b0000 	strvs	r0, [fp, -r0]
     5e8:	0005d501 	andeq	sp, r5, r1, lsl #10
     5ec:	031f0800 	tsteq	pc, #0, 16
     5f0:	05fd0000 	ldrbeq	r0, [sp, #0]!
     5f4:	5c0f0000 	stcpl	0, cr0, [pc], {-0}
     5f8:	01000002 	tsteq	r0, r2
     5fc:	03cb1100 	biceq	r1, fp, #0, 2
     600:	1a0c0000 	bne	300608 <__bss_end__+0x2d569c>
     604:	0005ed01 	andeq	lr, r5, r1, lsl #26
     608:	01d91100 	bicseq	r1, r9, r0, lsl #2
     60c:	1b0c0000 	blne	300614 <__bss_end__+0x2d56a8>
     610:	00003301 	andeq	r3, r0, r1, lsl #6
     614:	00a11100 	adceq	r1, r1, r0, lsl #2
     618:	1c0c0000 	stcne	0, cr0, [ip], {-0}
     61c:	00007301 	andeq	r7, r0, r1, lsl #6
     620:	03cd1100 	biceq	r1, sp, #0, 2
     624:	210c0000 	mrscs	r0, (UNDEF: 12)
     628:	0005ed01 	andeq	lr, r5, r1, lsl #26
     62c:	01db1100 	bicseq	r1, fp, r0, lsl #2
     630:	290c0000 	stmdbcs	ip, {}	; <UNPREDICTABLE>
     634:	00003301 	andeq	r3, r0, r1, lsl #6
     638:	00a31100 	adceq	r1, r3, r0, lsl #2
     63c:	2a0c0000 	bcs	300644 <__bss_end__+0x2d56d8>
     640:	00007301 	andeq	r7, r0, r1, lsl #6
     644:	04121700 	ldreq	r1, [r2], #-1792	; 0xfffff900
     648:	23010000 	movwcs	r0, #4096	; 0x1000
     64c:	00000033 	andeq	r0, r0, r3, lsr r0
     650:	00010890 	muleq	r1, r0, r8
     654:	0000016c 	andeq	r0, r0, ip, ror #2
     658:	06e99c01 	strbteq	r9, [r9], r1, lsl #24
     65c:	f8180000 			; <UNDEFINED> instruction: 0xf8180000
     660:	01000003 	tsteq	r0, r3
     664:	00033127 	andeq	r3, r3, r7, lsr #2
     668:	70910200 	addsvc	r0, r1, r0, lsl #4
     66c:	000a8618 	andeq	r8, sl, r8, lsl r6
     670:	e9290100 	stmdb	r9!, {r8}
     674:	03000006 	movweq	r0, #6
     678:	197fb891 	ldmdbne	pc!, {r0, r4, r7, fp, ip, sp, pc}^	; <UNPREDICTABLE>
     67c:	01006450 	tsteq	r0, r0, asr r4
     680:	0006f92e 	andeq	pc, r6, lr, lsr #18
     684:	f0910300 			; <UNDEFINED> instruction: 0xf0910300
     688:	0051197e 	subseq	r1, r1, lr, ror r9
     68c:	02512f01 	subseq	r2, r1, #1, 30
     690:	91030000 	mrsls	r0, (UNDEF: 3)
     694:	dd187ee4 	ldcle	14, cr7, [r8, #-912]	; 0xfffffc70
     698:	01000002 	tsteq	r0, r2
     69c:	00020a30 	andeq	r0, r2, r0, lsr sl
     6a0:	d8910300 	ldmle	r1, {r8, r9}
     6a4:	0269187e 	rsbeq	r1, r9, #8257536	; 0x7e0000
     6a8:	31010000 	mrscc	r0, (UNDEF: 1)
     6ac:	0000020a 	andeq	r0, r0, sl, lsl #4
     6b0:	7ecc9103 	acsvce	f1, f3
     6b4:	0002f118 	andeq	pc, r2, r8, lsl r1	; <UNPREDICTABLE>
     6b8:	0a320100 	beq	c80ac0 <__bss_end__+0xc55b54>
     6bc:	03000002 	movweq	r0, #2
     6c0:	187ec091 	ldmdane	lr!, {r0, r4, r7, lr, pc}^
     6c4:	000008f1 	strdeq	r0, [r0], -r1
     6c8:	01d23f01 	bicseq	r3, r2, r1, lsl #30
     6cc:	91030000 	mrsls	r0, (UNDEF: 3)
     6d0:	9c1a7e98 	ldcls	14, cr7, [sl], {152}	; 0x98
     6d4:	48000109 	stmdami	r0, {r0, r3, r8}
     6d8:	19000000 	stmdbne	r0, {}	; <UNPREDICTABLE>
     6dc:	4201006b 	andmi	r0, r1, #107	; 0x6b
     6e0:	00000033 	andeq	r0, r0, r3, lsr r0
     6e4:	00749102 	rsbseq	r9, r4, r2, lsl #2
     6e8:	02e60800 	rsceq	r0, r6, #0, 16
     6ec:	06f90000 	ldrbteq	r0, [r9], r0
     6f0:	5c0f0000 	stcpl	0, cr0, [pc], {-0}
     6f4:	00000002 	andeq	r0, r0, r2
     6f8:	009e1b00 	addseq	r1, lr, r0, lsl #22
     6fc:	5c0f0000 	stcpl	0, cr0, [pc], {-0}
     700:	02000002 	andeq	r0, r0, #2
     704:	00025c0f 	andeq	r5, r2, pc, lsl #24
     708:	00000200 	andeq	r0, r0, r0, lsl #4
     70c:	000002f5 	strdeq	r0, [r0], -r5
     710:	014d0004 	cmpeq	sp, r4
     714:	01040000 	mrseq	r0, (UNDEF: 4)
     718:	00000169 	andeq	r0, r0, r9, ror #2
     71c:	0004710c 	andeq	r7, r4, ip, lsl #2
     720:	00032c00 	andeq	r2, r3, r0, lsl #24
     724:	0109fc00 	tsteq	r9, r0, lsl #24	; <UNPREDICTABLE>
     728:	00050000 	andeq	r0, r5, r0
     72c:	00015400 	andeq	r5, r1, r0, lsl #8
     730:	06010200 	streq	r0, [r1], -r0, lsl #4
     734:	000003bf 			; <UNDEFINED> instruction: 0x000003bf
     738:	07050202 	streq	r0, [r5, -r2, lsl #4]
     73c:	03000003 	movweq	r0, #3
     740:	6e690504 	cdpvs	5, 6, cr0, cr9, cr4, {0}
     744:	08020074 	stmdaeq	r2, {r2, r4, r5, r6}
     748:	00023d05 	andeq	r3, r2, r5, lsl #26
     74c:	08010200 	stmdaeq	r1, {r9}
     750:	000003bd 			; <UNDEFINED> instruction: 0x000003bd
     754:	ff070202 			; <UNDEFINED> instruction: 0xff070202
     758:	02000003 	andeq	r0, r0, #3
     75c:	00f90704 	rscseq	r0, r9, r4, lsl #14
     760:	08020000 	stmdaeq	r2, {}	; <UNPREDICTABLE>
     764:	0000ef07 	andeq	lr, r0, r7, lsl #30
     768:	05040200 	streq	r0, [r4, #-512]	; 0xfffffe00
     76c:	00000242 	andeq	r0, r0, r2, asr #4
     770:	f4070402 	vst3.8	{d0-d2}, [r7], r2
     774:	04000000 	streq	r0, [r0], #-0
     778:	0000020f 	andeq	r0, r0, pc, lsl #4
     77c:	00763102 	rsbseq	r3, r6, r2, lsl #2
     780:	04020000 	streq	r0, [r2], #-0
     784:	0000d304 	andeq	sp, r0, r4, lsl #6
     788:	00760500 	rsbseq	r0, r6, r0, lsl #10
     78c:	08020000 	stmdaeq	r2, {}	; <UNPREDICTABLE>
     790:	00041704 	andeq	r1, r4, r4, lsl #14
     794:	02ca0400 	sbceq	r0, sl, #0, 8
     798:	46020000 	strmi	r0, [r2], -r0
     79c:	0000006b 	andeq	r0, r0, fp, rrx
     7a0:	0001ca06 	andeq	ip, r1, r6, lsl #20
     7a4:	50020c00 	andpl	r0, r2, r0, lsl #24
     7a8:	000000c1 	andeq	r0, r0, r1, asr #1
     7ac:	02007807 	andeq	r7, r0, #458752	; 0x70000
     7b0:	00008951 	andeq	r8, r0, r1, asr r9
     7b4:	79070000 	stmdbvc	r7, {}	; <UNPREDICTABLE>
     7b8:	89520200 	ldmdbhi	r2, {r9}^
     7bc:	04000000 	streq	r0, [r0], #-0
     7c0:	00091d08 	andeq	r1, r9, r8, lsl #26
     7c4:	89530200 	ldmdbhi	r3, {r9}^
     7c8:	08000000 	stmdaeq	r0, {}	; <UNPREDICTABLE>
     7cc:	01ca0400 	biceq	r0, sl, r0, lsl #8
     7d0:	54020000 	strpl	r0, [r2], #-0
     7d4:	00000094 	muleq	r0, r4, r0
     7d8:	98070402 	stmdals	r7, {r1, sl}
     7dc:	09000003 	stmdbeq	r0, {r0, r1}
     7e0:	00000057 	andeq	r0, r0, r7, asr r0
     7e4:	0033a803 	eorseq	sl, r3, r3, lsl #16
     7e8:	040a0000 	streq	r0, [sl], #-0
     7ec:	00000033 	andeq	r0, r0, r3, lsr r0
     7f0:	0a015c03 	beq	57804 <__bss_end__+0x2c898>
     7f4:	0b000001 	bleq	800 <shift+0x800>
     7f8:	00000156 	andeq	r0, r0, r6, asr r1
     7fc:	00b20c7f 	adcseq	r0, r2, pc, ror ip
     800:	0c000000 	stceq	0, cr0, [r0], {-0}
     804:	00000439 	andeq	r0, r0, r9, lsr r4
     808:	004f0c01 	subeq	r0, pc, r1, lsl #24
     80c:	0c020000 	stceq	0, cr0, [r2], {-0}
     810:	00000106 	andeq	r0, r0, r6, lsl #2
     814:	6d0d0003 	stcvs	0, cr0, [sp, #-12]
     818:	03000000 	movweq	r0, #0
     81c:	00de0162 	sbcseq	r0, lr, r2, ror #2
     820:	020e0000 	andeq	r0, lr, #0
     824:	03000002 	movweq	r0, #2
     828:	010a0167 	tsteq	sl, r7, ror #2
     82c:	01020000 	mrseq	r0, (UNDEF: 2)
     830:	0003c608 	andeq	ip, r3, r8, lsl #12
     834:	04c40f00 	strbeq	r0, [r4], #3840	; 0xf00
     838:	42010000 	andmi	r0, r1, #0
     83c:	00010de8 	andeq	r0, r1, r8, ror #27
     840:	00000114 	andeq	r0, r0, r4, lsl r1
     844:	01699c01 	cmneq	r9, r1, lsl #24
     848:	b1100000 	tstlt	r0, r0
     84c:	01000004 	tsteq	r0, r4
     850:	00016942 	andeq	r6, r1, r2, asr #18
     854:	74910200 	ldrvc	r0, [r1], #512	; 0x200
     858:	6e697611 	mcrvs	6, 3, r7, cr9, cr1, {0}
     85c:	c1420100 	mrsgt	r0, (UNDEF: 82)
     860:	02000000 	andeq	r0, r0, #0
     864:	f4106891 			; <UNDEFINED> instruction: 0xf4106891
     868:	01000004 	tsteq	r0, r4
     86c:	00017f42 	andeq	r7, r1, r2, asr #30
     870:	64910200 	ldrvs	r0, [r1], #512	; 0x200
     874:	c1041200 	mrsgt	r1, R12_usr
     878:	13000000 	movwne	r0, #0
     87c:	00000076 	andeq	r0, r0, r6, ror r0
     880:	0000017f 	andeq	r0, r0, pc, ror r1
     884:	0000cc14 	andeq	ip, r0, r4, lsl ip
     888:	12000200 	andne	r0, r0, #0, 4
     88c:	00016f04 	andeq	r6, r1, r4, lsl #30
     890:	049a1500 	ldreq	r1, [sl], #1280	; 0x500
     894:	38010000 	stmdacc	r1, {}	; <UNPREDICTABLE>
     898:	00010ce8 	andeq	r0, r1, r8, ror #25
     89c:	00000100 	andeq	r0, r0, r0, lsl #2
     8a0:	02069c01 	andeq	r9, r6, #256	; 0x100
     8a4:	76110000 	ldrvc	r0, [r1], -r0
     8a8:	38010072 	stmdacc	r1, {r1, r4, r5, r6}
     8ac:	00000076 	andeq	r0, r0, r6, ror r0
     8b0:	11449102 	cmpne	r4, r2, lsl #2
     8b4:	01007277 	tsteq	r0, r7, ror r2
     8b8:	00007638 	andeq	r7, r0, r8, lsr r6
     8bc:	40910200 	addsmi	r0, r1, r0, lsl #4
     8c0:	0004dd10 	andeq	sp, r4, r0, lsl sp
     8c4:	c1380100 	teqgt	r8, r0, lsl #2
     8c8:	03000000 	movweq	r0, #0
     8cc:	117fb491 			; <UNDEFINED> instruction: 0x117fb491
     8d0:	38010076 	stmdacc	r1, {r1, r2, r4, r5, r6}
     8d4:	00000206 	andeq	r0, r0, r6, lsl #4
     8d8:	7fb09103 	svcvc	0x00b09103
     8dc:	01007711 	tsteq	r0, r1, lsl r7
     8e0:	00020638 	andeq	r0, r2, r8, lsr r6
     8e4:	ac910300 	ldcge	3, cr0, [r1], {0}
     8e8:	584b167f 	stmdapl	fp, {r0, r1, r2, r3, r4, r5, r6, r9, sl, ip}^
     8ec:	7d390100 	ldfvcs	f0, [r9, #-0]
     8f0:	02000000 	andeq	r0, r0, #0
     8f4:	4b165491 	blmi	595b40 <__bss_end__+0x56abd4>
     8f8:	3a010059 	bcc	40a64 <__bss_end__+0x15af8>
     8fc:	0000007d 	andeq	r0, r0, sp, ror r0
     900:	17509102 	ldrbne	r9, [r0, -r2, lsl #2]
     904:	00000483 	andeq	r0, r0, r3, lsl #9
     908:	007d3b01 	rsbseq	r3, sp, r1, lsl #22
     90c:	91020000 	mrsls	r0, (UNDEF: 2)
     910:	0412004c 	ldreq	r0, [r2], #-76	; 0xffffffb4
     914:	00000076 	andeq	r0, r0, r6, ror r0
     918:	0004a315 	andeq	sl, r4, r5, lsl r3
     91c:	30250100 	eorcc	r0, r5, r0, lsl #2
     920:	b800010b 	stmdalt	r0, {r0, r1, r3, r8}
     924:	01000001 	tsteq	r0, r1
     928:	0002879c 	muleq	r2, ip, r7
     92c:	06e71000 	strbteq	r1, [r7], r0
     930:	25010000 	strcs	r0, [r1, #-0]
     934:	000000c1 	andeq	r0, r0, r1, asr #1
     938:	7fac9103 	svcvc	0x00ac9103
     93c:	0004b610 	andeq	fp, r4, r0, lsl r6
     940:	c1250100 			; <UNDEFINED> instruction: 0xc1250100
     944:	03000000 	movweq	r0, #0
     948:	117fa091 			; <UNDEFINED> instruction: 0x117fa091
     94c:	01007276 	tsteq	r0, r6, ror r2
     950:	00020625 	andeq	r0, r2, r5, lsr #12
     954:	9c910300 	ldcls	3, cr0, [r1], {0}
     958:	7277117f 	rsbsvc	r1, r7, #-1073741793	; 0xc000001f
     95c:	06250100 	strteq	r0, [r5], -r0, lsl #2
     960:	03000002 	movweq	r0, #2
     964:	177f9891 			; <UNDEFINED> instruction: 0x177f9891
     968:	0000048a 	andeq	r0, r0, sl, lsl #9
     96c:	00c12601 	sbceq	r2, r1, r1, lsl #12
     970:	91020000 	mrsls	r0, (UNDEF: 2)
     974:	0492176c 	ldreq	r1, [r2], #1900	; 0x76c
     978:	26010000 	strcs	r0, [r1], -r0
     97c:	000000c1 	andeq	r0, r0, r1, asr #1
     980:	17609102 	strbne	r9, [r0, -r2, lsl #2]!
     984:	000004f4 	strdeq	r0, [r0], -r4
     988:	02872701 	addeq	r2, r7, #262144	; 0x40000
     98c:	91030000 	mrsls	r0, (UNDEF: 3)
     990:	13007fbc 	movwne	r7, #4028	; 0xfbc
     994:	00000076 	andeq	r0, r0, r6, ror r0
     998:	0000029d 	muleq	r0, sp, r2
     99c:	0000cc14 	andeq	ip, r0, r4, lsl ip
     9a0:	cc140200 	lfmgt	f0, 4, [r4], {-0}
     9a4:	02000000 	andeq	r0, r0, #0
     9a8:	04e31800 	strbteq	r1, [r3], #2048	; 0x800
     9ac:	13010000 	movwne	r0, #4096	; 0x1000
     9b0:	000109fc 	strdeq	r0, [r1], -ip
     9b4:	00000134 	andeq	r0, r0, r4, lsr r1
     9b8:	70119c01 	andsvc	r9, r1, r1, lsl #24
     9bc:	0100736f 	tsteq	r0, pc, ror #6
     9c0:	0000c113 	andeq	ip, r0, r3, lsl r1
     9c4:	bc910300 	ldclt	3, cr0, [r1], {0}
     9c8:	06e7107f 	uxtabeq	r1, r7, pc	; <UNPREDICTABLE>
     9cc:	13010000 	movwne	r0, #4096	; 0x1000
     9d0:	000000c1 	andeq	r0, r0, r1, asr #1
     9d4:	7fb09103 	svcvc	0x00b09103
     9d8:	0004dd10 	andeq	sp, r4, r0, lsl sp
     9dc:	69130100 	ldmdbvs	r3, {r8}
     9e0:	03000001 	movweq	r0, #1
     9e4:	177fac91 			; <UNDEFINED> instruction: 0x177fac91
     9e8:	0000047c 	andeq	r0, r0, ip, ror r4
     9ec:	00c11401 	sbceq	r1, r1, r1, lsl #8
     9f0:	91020000 	mrsls	r0, (UNDEF: 2)
     9f4:	04f4176c 	ldrbteq	r1, [r4], #1900	; 0x76c
     9f8:	15010000 	strne	r0, [r1, #-0]
     9fc:	00000287 	andeq	r0, r0, r7, lsl #5
     a00:	00489102 	subeq	r9, r8, r2, lsl #2
     a04:	00099500 	andeq	r9, r9, r0, lsl #10
     a08:	a9000400 	stmdbge	r0, {sl}
     a0c:	04000002 	streq	r0, [r0], #-2
     a10:	00016901 	andeq	r6, r1, r1, lsl #18
     a14:	07160c00 	ldreq	r0, [r6, -r0, lsl #24]
     a18:	032c0000 			; <UNDEFINED> instruction: 0x032c0000
     a1c:	0f000000 	svceq	0x00000000
     a20:	1e240001 	cdpne	0, 2, cr0, cr4, cr1, {0}
     a24:	01e70000 	mvneq	r0, r0
     a28:	04020000 	streq	r0, [r2], #-0
     a2c:	0000d304 	andeq	sp, r0, r4, lsl #6
     a30:	04080200 	streq	r0, [r8], #-512	; 0xfffffe00
     a34:	00000417 	andeq	r0, r0, r7, lsl r4
     a38:	00005703 	andeq	r5, r0, r3, lsl #14
     a3c:	3ea80200 	cdpcc	2, 10, cr0, cr8, cr0, {0}
     a40:	04000000 	streq	r0, [r0], #-0
     a44:	6e690504 	cdpvs	5, 6, cr0, cr9, cr4, {0}
     a48:	04020074 	streq	r0, [r2], #-116	; 0xffffff8c
     a4c:	0000f907 	andeq	pc, r0, r7, lsl #18
     a50:	3e040500 	cfsh32cc	mvfx0, mvfx4, #0
     a54:	02000000 	andeq	r0, r0, #0
     a58:	0078015c 	rsbseq	r0, r8, ip, asr r1
     a5c:	56060000 	strpl	r0, [r6], -r0
     a60:	7f000001 	svcvc	0x00000001
     a64:	0000b207 	andeq	fp, r0, r7, lsl #4
     a68:	39070000 	stmdbcc	r7, {}	; <UNPREDICTABLE>
     a6c:	01000004 	tsteq	r0, r4
     a70:	00004f07 	andeq	r4, r0, r7, lsl #30
     a74:	06070200 	streq	r0, [r7], -r0, lsl #4
     a78:	03000001 	movweq	r0, #1
     a7c:	006d0800 	rsbeq	r0, sp, r0, lsl #16
     a80:	62020000 	andvs	r0, r2, #0
     a84:	00004c01 	andeq	r4, r0, r1, lsl #24
     a88:	02020900 	andeq	r0, r2, #0, 18
     a8c:	67020000 	strvs	r0, [r2, -r0]
     a90:	00007801 	andeq	r7, r0, r1, lsl #16
     a94:	08010200 	stmdaeq	r1, {r9}
     a98:	000003c6 	andeq	r0, r0, r6, asr #7
     a9c:	42050402 	andmi	r0, r5, #33554432	; 0x2000000
     aa0:	02000002 	andeq	r0, r0, #2
     aa4:	023d0508 	eorseq	r0, sp, #8, 10	; 0x2000000
     aa8:	01020000 	mrseq	r0, (UNDEF: 2)
     aac:	0003bd08 	andeq	fp, r3, r8, lsl #26
     ab0:	07020200 	streq	r0, [r2, -r0, lsl #4]
     ab4:	000003ff 	strdeq	r0, [r0], -pc	; <UNPREDICTABLE>
     ab8:	f4070402 	vst3.8	{d0-d2}, [r7], r2
     abc:	02000000 	andeq	r0, r0, #0
     ac0:	03bf0601 			; <UNDEFINED> instruction: 0x03bf0601
     ac4:	02020000 	andeq	r0, r2, #0
     ac8:	00030705 	andeq	r0, r3, r5, lsl #14
     acc:	07080200 	streq	r0, [r8, -r0, lsl #4]
     ad0:	000000ef 	andeq	r0, r0, pc, ror #1
     ad4:	98070402 	stmdals	r7, {r1, sl}
     ad8:	0a000003 	beq	aec <shift+0xaec>
     adc:	000002e3 	andeq	r0, r0, r3, ror #5
     ae0:	00ba2b03 	adcseq	r2, sl, r3, lsl #22
     ae4:	250a0000 	strcs	r0, [sl, #-0]
     ae8:	03000007 	movweq	r0, #7
     aec:	0000a52c 	andeq	sl, r0, ip, lsr #10
     af0:	05d30a00 	ldrbeq	r0, [r3, #2560]	; 0xa00
     af4:	2e030000 	cdpcs	0, 0, cr0, cr3, cr0, {0}
     af8:	000000ac 	andeq	r0, r0, ip, lsr #1
     afc:	0001c30a 	andeq	ip, r1, sl, lsl #6
     b00:	972f0300 	strls	r0, [pc, -r0, lsl #6]!
     b04:	0a000000 	beq	b0c <shift+0xb0c>
     b08:	0000020f 	andeq	r0, r0, pc, lsl #4
     b0c:	00253103 	eoreq	r3, r5, r3, lsl #2
     b10:	e90a0000 	stmdb	sl, {}	; <UNPREDICTABLE>
     b14:	03000002 	movweq	r0, #2
     b18:	00002c32 	andeq	r2, r0, r2, lsr ip
     b1c:	008f0a00 	addeq	r0, pc, r0, lsl #20
     b20:	3e030000 	cdpcc	0, 0, cr0, cr3, cr0, {0}
     b24:	000000d6 	ldrdeq	r0, [r0], -r6
     b28:	00068b0a 	andeq	r8, r6, sl, lsl #22
     b2c:	e1400300 	mrs	r0, SPSR_irq
     b30:	0a000000 	beq	b38 <shift+0xb38>
     b34:	00000564 	andeq	r0, r0, r4, ror #10
     b38:	00ec4103 	rsceq	r4, ip, r3, lsl #2
     b3c:	bd0a0000 	stclt	0, cr0, [sl, #-0]
     b40:	03000001 	movweq	r0, #1
     b44:	0000f744 	andeq	pc, r0, r4, asr #14
     b48:	02ca0a00 	sbceq	r0, sl, #0, 20
     b4c:	46030000 	strmi	r0, [r3], -r0
     b50:	00000102 	andeq	r0, r0, r2, lsl #2
     b54:	0003710a 	andeq	r7, r3, sl, lsl #2
     b58:	0d470300 	stcleq	3, cr0, [r7, #-0]
     b5c:	0b000001 	bleq	b68 <shift+0xb68>
     b60:	000001ca 	andeq	r0, r0, sl, asr #3
     b64:	8750030c 	ldrbhi	r0, [r0, -ip, lsl #6]
     b68:	0c000001 	stceq	0, cr0, [r0], {1}
     b6c:	51030078 	tstpl	r3, r8, ror r0
     b70:	00000144 	andeq	r0, r0, r4, asr #2
     b74:	00790c00 	rsbseq	r0, r9, r0, lsl #24
     b78:	01445203 	cmpeq	r4, r3, lsl #4
     b7c:	0d040000 	stceq	0, cr0, [r4, #-0]
     b80:	0000091d 	andeq	r0, r0, sp, lsl r9
     b84:	01445303 	cmpeq	r4, r3, lsl #6
     b88:	00080000 	andeq	r0, r8, r0
     b8c:	0001ca0a 	andeq	ip, r1, sl, lsl #20
     b90:	5a540300 	bpl	1501798 <__bss_end__+0x14d682c>
     b94:	0b000001 	bleq	ba0 <shift+0xba0>
     b98:	000001ef 	andeq	r0, r0, pc, ror #3
     b9c:	bf78030c 	svclt	0x0078030c
     ba0:	0c000001 	stceq	0, cr0, [r0], {1}
     ba4:	79030076 	stmdbvc	r3, {r1, r2, r4, r5, r6}
     ba8:	00000144 	andeq	r0, r0, r4, asr #2
     bac:	00770c00 	rsbseq	r0, r7, r0, lsl #24
     bb0:	01447a03 	cmpeq	r4, r3, lsl #20
     bb4:	0c040000 	stceq	0, cr0, [r4], {-0}
     bb8:	006c6176 	rsbeq	r6, ip, r6, ror r1
     bbc:	01187b03 	tsteq	r8, r3, lsl #22
     bc0:	00080000 	andeq	r0, r8, r0
     bc4:	0001ef0a 	andeq	lr, r1, sl, lsl #30
     bc8:	927c0300 	rsbsls	r0, ip, #0, 6
     bcc:	0b000001 	bleq	bd8 <shift+0xbd8>
     bd0:	000000b9 	strheq	r0, [r0], -r9
     bd4:	f580030c 			; <UNDEFINED> instruction: 0xf580030c
     bd8:	0c000001 	stceq	0, cr0, [r0], {1}
     bdc:	8103006c 	tsthi	r3, ip, rrx
     be0:	00000139 	andeq	r0, r0, r9, lsr r1
     be4:	00630c00 	rsbeq	r0, r3, r0, lsl #24
     be8:	01398203 	teqeq	r9, r3, lsl #4
     bec:	0c040000 	stceq	0, cr0, [r4], {-0}
     bf0:	8303006d 	movwhi	r0, #12397	; 0x306d
     bf4:	00000200 	andeq	r0, r0, r0, lsl #4
     bf8:	4f0e0008 	svcmi	0x000e0008
     bfc:	00000001 	andeq	r0, r0, r1
     c00:	0f000002 	svceq	0x00000002
     c04:	f5041000 			; <UNDEFINED> instruction: 0xf5041000
     c08:	0a000001 	beq	c14 <shift+0xc14>
     c0c:	000000b9 	strheq	r0, [r0], -r9
     c10:	01ca8403 	biceq	r8, sl, r3, lsl #8
     c14:	cd110000 	ldcgt	0, cr0, [r1, #-0]
     c18:	04000006 	streq	r0, [r0], #-6
     c1c:	00000045 	andeq	r0, r0, r5, asr #32
     c20:	023a8603 	eorseq	r8, sl, #3145728	; 0x300000
     c24:	11070000 	mrsne	r0, (UNDEF: 7)
     c28:	00000005 	andeq	r0, r0, r5
     c2c:	0006be07 	andeq	fp, r6, r7, lsl #28
     c30:	4c070100 	stfmis	f0, [r7], {-0}
     c34:	02000006 	andeq	r0, r0, #6
     c38:	0005a807 	andeq	sl, r5, r7, lsl #16
     c3c:	0a000300 	beq	1844 <shift+0x1844>
     c40:	000006cd 	andeq	r0, r0, sp, asr #13
     c44:	02118b03 	andseq	r8, r1, #3072	; 0xc00
     c48:	41120000 	tstmi	r2, r0
     c4c:	03006372 	movweq	r6, #882	; 0x372
     c50:	0002508d 	andeq	r5, r2, sp, lsl #1
     c54:	72411300 	subvc	r1, r1, #0, 6
     c58:	030c0063 	movweq	r0, #49251	; 0xc063
     c5c:	00028191 	muleq	r2, r1, r1
     c60:	072b0d00 	streq	r0, [fp, -r0, lsl #26]!
     c64:	92030000 	andls	r0, r3, #0
     c68:	000002e7 	andeq	r0, r0, r7, ror #5
     c6c:	059e0d00 	ldreq	r0, [lr, #3328]	; 0xd00
     c70:	93030000 	movwls	r0, #12288	; 0x3000
     c74:	00000144 	andeq	r0, r0, r4, asr #2
     c78:	05e50d04 	strbeq	r0, [r5, #3332]!	; 0xd04
     c7c:	94030000 	strls	r0, [r3], #-0
     c80:	00000144 	andeq	r0, r0, r4, asr #2
     c84:	700a0008 	andvc	r0, sl, r8
     c88:	03000005 	movweq	r0, #5
     c8c:	00028c90 	muleq	r2, r0, ip
     c90:	05700b00 	ldrbeq	r0, [r0, #-2816]!	; 0xfffff500
     c94:	03540000 	cmpeq	r4, #0
     c98:	0002e797 	muleq	r2, r7, r7
     c9c:	64690c00 	strbtvs	r0, [r9], #-3072	; 0xfffff400
     ca0:	3e980300 	cdpcc	3, 9, cr0, cr8, cr0, {0}
     ca4:	00000000 	andeq	r0, r0, r0
     ca8:	0300780c 	movweq	r7, #2060	; 0x80c
     cac:	00014499 	muleq	r1, r9, r4
     cb0:	790c0400 	stmdbvc	ip, {sl}
     cb4:	44990300 	ldrmi	r0, [r9], #768	; 0x300
     cb8:	08000001 	stmdaeq	r0, {r0}
     cbc:	00746e0c 	rsbseq	r6, r4, ip, lsl #28
     cc0:	023a9a03 	eorseq	r9, sl, #12288	; 0x3000
     cc4:	0d0c0000 	stceq	0, cr0, [ip, #-0]
     cc8:	0000056b 	andeq	r0, r0, fp, ror #10
     ccc:	01239b03 			; <UNDEFINED> instruction: 0x01239b03
     cd0:	0d100000 	ldceq	0, cr0, [r0, #-0]
     cd4:	00000595 	muleq	r0, r5, r5
     cd8:	02ed9c03 	rsceq	r9, sp, #768	; 0x300
     cdc:	0c140000 	ldceq	0, cr0, [r4], {-0}
     ce0:	00736469 	rsbseq	r6, r3, r9, ror #8
     ce4:	02fd9d03 	rscseq	r9, sp, #3, 26	; 0xc0
     ce8:	00440000 	subeq	r0, r4, r0
     cec:	02810410 	addeq	r0, r1, #16, 8	; 0x10000000
     cf0:	450e0000 	strmi	r0, [lr, #-0]
     cf4:	fd000002 	stc2	0, cr0, [r0, #-8]
     cf8:	14000002 	strne	r0, [r0], #-2
     cfc:	000000cf 	andeq	r0, r0, pc, asr #1
     d00:	3e0e0003 	cdpcc	0, 0, cr0, cr14, cr3, {0}
     d04:	0d000000 	stceq	0, cr0, [r0, #-0]
     d08:	14000003 	strne	r0, [r0], #-3
     d0c:	000000cf 	andeq	r0, r0, pc, asr #1
     d10:	1e0b0003 	cdpne	0, 0, cr0, cr11, cr3, {0}
     d14:	08000005 	stmdaeq	r0, {r0, r2}
     d18:	032eab03 			; <UNDEFINED> instruction: 0x032eab03
     d1c:	780c0000 	stmdavc	ip, {}	; <UNPREDICTABLE>
     d20:	44ac0300 	strtmi	r0, [ip], #768	; 0x300
     d24:	00000001 	andeq	r0, r0, r1
     d28:	0300790c 	movweq	r7, #2316	; 0x90c
     d2c:	000144ac 	andeq	r4, r1, ip, lsr #9
     d30:	0a000400 	beq	1d38 <shift+0x1d38>
     d34:	0000051e 	andeq	r0, r0, lr, lsl r5
     d38:	030dad03 	movweq	sl, #56579	; 0xdd03
     d3c:	19150000 	ldmdbne	r5, {}	; <UNPREDICTABLE>
     d40:	ac000005 	stcge	0, cr0, [r0], {5}
     d44:	77b2030f 	ldrvc	r0, [r2, pc, lsl #6]!
     d48:	0d000003 	stceq	0, cr0, [r0, #-12]
     d4c:	0000059a 	muleq	r0, sl, r5
     d50:	0144b403 	cmpeq	r4, r3, lsl #8
     d54:	0d000000 	stceq	0, cr0, [r0, #-0]
     d58:	000005e1 	andeq	r0, r0, r1, ror #11
     d5c:	0144b503 	cmpeq	r4, r3, lsl #10
     d60:	0d040000 	stceq	0, cr0, [r4, #-0]
     d64:	00000c4b 	andeq	r0, r0, fp, asr #24
     d68:	012eb603 			; <UNDEFINED> instruction: 0x012eb603
     d6c:	0d080000 	stceq	0, cr0, [r8, #-0]
     d70:	0000072b 	andeq	r0, r0, fp, lsr #14
     d74:	0377b703 	cmneq	r7, #786432	; 0xc0000
     d78:	000c0000 	andeq	r0, ip, r0
     d7c:	0002e70e 	andeq	lr, r2, lr, lsl #14
     d80:	00038800 	andeq	r8, r3, r0, lsl #16
     d84:	00cf1600 	sbceq	r1, pc, r0, lsl #12
     d88:	03e70000 	mvneq	r0, #0
     d8c:	05190a00 	ldreq	r0, [r9, #-2560]	; 0xfffff600
     d90:	b8030000 	stmdalt	r3, {}	; <UNPREDICTABLE>
     d94:	00000339 	andeq	r0, r0, r9, lsr r3
     d98:	10040417 	andne	r0, r4, r7, lsl r4
     d9c:	000003cc 	andeq	r0, r0, ip, asr #7
     da0:	0006a30d 	andeq	sl, r6, sp, lsl #6
     da4:	18110400 	ldmdane	r1, {sl}
     da8:	00000001 	andeq	r0, r0, r1
     dac:	0005f20d 	andeq	pc, r5, sp, lsl #4
     db0:	18120400 	ldmdane	r2, {sl}
     db4:	01000001 	tsteq	r0, r1
     db8:	00065d0d 	andeq	r5, r6, sp, lsl #26
     dbc:	18130400 	ldmdane	r3, {sl}
     dc0:	02000001 	andeq	r0, r0, #1
     dc4:	00055d0d 	andeq	r5, r5, sp, lsl #26
     dc8:	18140400 	ldmdane	r4, {sl}
     dcc:	03000001 	movweq	r0, #1
     dd0:	054f0a00 	strbeq	r0, [pc, #-2560]	; 3d8 <shift+0x3d8>
     dd4:	15040000 	strne	r0, [r4, #-0]
     dd8:	00000393 	muleq	r0, r3, r3
     ddc:	00050218 	andeq	r0, r5, r8, lsl r2
     de0:	01f90100 	mvnseq	r0, r0, lsl #2
     de4:	00012cc8 	andeq	r2, r1, r8, asr #25
     de8:	0000005c 	andeq	r0, r0, ip, asr r0
     dec:	041b9c01 	ldreq	r9, [fp], #-3073	; 0xfffff3ff
     df0:	70190000 	andsvc	r0, r9, r0
     df4:	0100736f 	tsteq	r0, pc, ror #6
     df8:	018701f9 	strdeq	r0, [r7, r9]
     dfc:	91020000 	mrsls	r0, (UNDEF: 2)
     e00:	04fb1a6c 	ldrbteq	r1, [fp], #2668	; 0xa6c
     e04:	f9010000 			; <UNDEFINED> instruction: 0xf9010000
     e08:	00041b01 	andeq	r1, r4, r1, lsl #22
     e0c:	68910200 	ldmvs	r1, {r9}
     e10:	00013a1a 	andeq	r3, r1, sl, lsl sl
     e14:	01f90100 	mvnseq	r0, r0, lsl #2
     e18:	00000421 	andeq	r0, r0, r1, lsr #8
     e1c:	00649102 	rsbeq	r9, r4, r2, lsl #2
     e20:	03880410 	orreq	r0, r8, #16, 8	; 0x10000000
     e24:	04100000 	ldreq	r0, [r0], #-0
     e28:	00000187 	andeq	r0, r0, r7, lsl #3
     e2c:	0005c618 	andeq	ip, r5, r8, lsl r6
     e30:	01e60100 	mvneq	r0, r0, lsl #2
     e34:	00012b28 	andeq	r2, r1, r8, lsr #22
     e38:	000001a0 	andeq	r0, r0, r0, lsr #3
     e3c:	04cd9c01 	strbeq	r9, [sp], #3073	; 0xc01
     e40:	70190000 	andsvc	r0, r9, r0
     e44:	0100736f 	tsteq	r0, pc, ror #6
     e48:	018701e6 	orreq	r0, r7, r6, ror #3
     e4c:	91020000 	mrsls	r0, (UNDEF: 2)
     e50:	013a1a5c 	teqeq	sl, ip, asr sl
     e54:	e6010000 	str	r0, [r1], -r0
     e58:	00018701 	andeq	r8, r1, r1, lsl #14
     e5c:	50910200 	addspl	r0, r1, r0, lsl #4
     e60:	01005119 	tsteq	r0, r9, lsl r1
     e64:	04cd01e6 	strbeq	r0, [sp], #486	; 0x1e6
     e68:	91020000 	mrsls	r0, (UNDEF: 2)
     e6c:	06271a4c 	strteq	r1, [r7], -ip, asr #20
     e70:	e6010000 	str	r0, [r1], -r0
     e74:	0004d301 	andeq	sp, r4, r1, lsl #6
     e78:	48910200 	ldmmi	r1, {r9}
     e7c:	00066a1b 	andeq	r6, r6, fp, lsl sl
     e80:	01e80100 	mvneq	r0, r0, lsl #2
     e84:	00000118 	andeq	r0, r0, r8, lsl r1
     e88:	706d0305 	rsbvc	r0, sp, r5, lsl #6
     e8c:	b61b0002 	ldrlt	r0, [fp], -r2
     e90:	01000004 	tsteq	r0, r4
     e94:	018701e9 	orreq	r0, r7, r9, ror #3
     e98:	03050000 	movweq	r0, #20480	; 0x5000
     e9c:	0002af20 	andeq	sl, r2, r0, lsr #30
     ea0:	0072761c 	rsbseq	r7, r2, ip, lsl r6
     ea4:	2501ea01 	strcs	lr, [r1, #-2561]	; 0xfffff5ff
     ea8:	05000000 	streq	r0, [r0, #-0]
     eac:	02af2c03 	adceq	r2, pc, #768	; 0x300
     eb0:	72771c00 	rsbsvc	r1, r7, #0, 24
     eb4:	01ea0100 	mvneq	r0, r0, lsl #2
     eb8:	00000025 	andeq	r0, r0, r5, lsr #32
     ebc:	af300305 	svcge	0x00300305
     ec0:	dd1b0002 	ldcle	0, cr0, [fp, #-8]
     ec4:	01000004 	tsteq	r0, r4
     ec8:	018701eb 	orreq	r0, r7, fp, ror #3
     ecc:	91020000 	mrsls	r0, (UNDEF: 2)
     ed0:	0410006c 	ldreq	r0, [r0], #-108	; 0xffffff94
     ed4:	00000206 	andeq	r0, r0, r6, lsl #4
     ed8:	01bf0410 			; <UNDEFINED> instruction: 0x01bf0410
     edc:	411d0000 	tstmi	sp, r0
     ee0:	01000005 	tsteq	r0, r5
     ee4:	2a3801d9 	bcs	e01650 <__bss_end__+0xdd66e4>
     ee8:	00f00001 	rscseq	r0, r0, r1
     eec:	9c010000 	stcls	0, cr0, [r1], {-0}
     ef0:	0000052a 	andeq	r0, r0, sl, lsr #10
     ef4:	736f7019 	cmnvc	pc, #25
     ef8:	01d90100 	bicseq	r0, r9, r0, lsl #2
     efc:	00000187 	andeq	r0, r0, r7, lsl #3
     f00:	1a649102 	bne	1925310 <__bss_end__+0x18fa3a4>
     f04:	0000013a 	andeq	r0, r0, sl, lsr r1
     f08:	8701d901 	strhi	sp, [r1, -r1, lsl #18]
     f0c:	02000001 	andeq	r0, r0, #1
     f10:	76195891 			; <UNDEFINED> instruction: 0x76195891
     f14:	01d90100 	bicseq	r0, r9, r0, lsl #2
     f18:	0000052a 	andeq	r0, r0, sl, lsr #10
     f1c:	1b549102 	blne	152532c <__bss_end__+0x14fa3c0>
     f20:	00000601 	andeq	r0, r0, r1, lsl #12
     f24:	2501db01 	strcs	sp, [r1, #-2817]	; 0xfffff4ff
     f28:	02000000 	andeq	r0, r0, #0
     f2c:	10007491 	mulne	r0, r1, r4
     f30:	00002504 	andeq	r2, r0, r4, lsl #10
     f34:	06e31e00 	strbteq	r1, [r3], r0, lsl #28
     f38:	e0010000 	and	r0, r1, r0
     f3c:	0000003e 	andeq	r0, r0, lr, lsr r0
     f40:	00011a60 	andeq	r1, r1, r0, ror #20
     f44:	00000fd8 	ldrdeq	r0, [r0], -r8
     f48:	06c29c01 	strbeq	r9, [r2], r1, lsl #24
     f4c:	101f0000 	andsne	r0, pc, r0
     f50:	01000007 	tsteq	r0, r7
     f54:	000187e0 	andeq	r8, r1, r0, ror #15
     f58:	d4910300 	ldrle	r0, [r1], #768	; 0x300
     f5c:	04fb1f7d 	ldrbteq	r1, [fp], #3965	; 0xf7d
     f60:	e0010000 	and	r0, r1, r0
     f64:	0000041b 	andeq	r0, r0, fp, lsl r4
     f68:	7dd09103 	ldfvcp	f1, [r0, #12]
     f6c:	00013a1f 	andeq	r3, r1, pc, lsl sl
     f70:	21e00100 	mvncs	r0, r0, lsl #2
     f74:	03000004 	movweq	r0, #4
     f78:	207dcc91 			; <UNDEFINED> instruction: 0x207dcc91
     f7c:	0000066a 	andeq	r0, r0, sl, ror #12
     f80:	0118e301 	tsteq	r8, r1, lsl #6
     f84:	03050000 	movweq	r0, #20480	; 0x5000
     f88:	0002706c 	andeq	r7, r2, ip, rrx
     f8c:	00058120 	andeq	r8, r5, r0, lsr #2
     f90:	87e40100 	strbhi	r0, [r4, r0, lsl #2]!
     f94:	05000001 	streq	r0, [r0, #-1]
     f98:	02709003 	rsbseq	r9, r0, #3
     f9c:	06912000 	ldreq	r2, [r1], r0
     fa0:	e5010000 	str	r0, [r1, #-0]
     fa4:	0000003e 	andeq	r0, r0, lr, lsr r0
     fa8:	708c0305 	addvc	r0, ip, r5, lsl #6
     fac:	20200002 	eorcs	r0, r0, r2
     fb0:	01000006 	tsteq	r0, r6
     fb4:	00003ee6 	andeq	r3, r0, r6, ror #29
     fb8:	9c030500 	cfstr32ls	mvfx0, [r3], {-0}
     fbc:	20000270 	andcs	r0, r0, r0, ror r2
     fc0:	000005bf 			; <UNDEFINED> instruction: 0x000005bf
     fc4:	06c2e901 	strbeq	lr, [r2], r1, lsl #18
     fc8:	03050000 	movweq	r0, #20480	; 0x5000
     fcc:	00028fe0 	andeq	r8, r2, r0, ror #31
     fd0:	00057520 	andeq	r7, r5, r0, lsr #10
     fd4:	c2ea0100 	rscgt	r0, sl, #0, 2
     fd8:	05000006 	streq	r0, [r0, #-6]
     fdc:	0270a003 	rsbseq	sl, r0, #3
     fe0:	6e692100 	powvse	f2, f1, f0
     fe4:	ec010064 	stc	0, cr0, [r1], {100}	; 0x64
     fe8:	0000003e 	andeq	r0, r0, lr, lsr r0
     fec:	205c9102 	subscs	r9, ip, r2, lsl #2
     ff0:	00000672 	andeq	r0, r0, r2, ror r6
     ff4:	003eed01 	eorseq	lr, lr, r1, lsl #26
     ff8:	91020000 	mrsls	r0, (UNDEF: 2)
     ffc:	058a2058 	streq	r2, [sl, #88]	; 0x58
    1000:	ee010000 	cdp	0, 0, cr0, cr1, cr0, {0}
    1004:	00000118 	andeq	r0, r0, r8, lsl r1
    1008:	20579102 	subscs	r9, r7, r2, lsl #2
    100c:	00000637 	andeq	r0, r0, r7, lsr r6
    1010:	0118ef01 	tsteq	r8, r1, lsl #30
    1014:	91020000 	mrsls	r0, (UNDEF: 2)
    1018:	06d72056 			; <UNDEFINED> instruction: 0x06d72056
    101c:	f0010000 			; <UNDEFINED> instruction: 0xf0010000
    1020:	00000281 	andeq	r0, r0, r1, lsl #5
    1024:	7e949103 	cosvcs	f1, f3
    1028:	736f7021 	cmnvc	pc, #33	; 0x21
    102c:	2ef10100 	cdpcs	1, 15, cr0, cr1, cr0, {0}
    1030:	03000003 	movweq	r0, #3
    1034:	217e8c91 			; <UNDEFINED> instruction: 0x217e8c91
    1038:	f2010048 	vhadd.s8	q0, <illegal reg q0.5>, q4
    103c:	0000032e 	andeq	r0, r0, lr, lsr #6
    1040:	7e849103 	sinvcs	f1, f3
    1044:	00065420 	andeq	r5, r6, r0, lsr #8
    1048:	25f30100 	ldrbcs	r0, [r3, #256]!	; 0x100
    104c:	02000000 	andeq	r0, r0, #0
    1050:	81204c91 			; <UNDEFINED> instruction: 0x81204c91
    1054:	01000006 	tsteq	r0, r6
    1058:	000025f4 	strdeq	r2, [r0], -r4
    105c:	48910200 	ldmmi	r1, {r9}
    1060:	01206822 			; <UNDEFINED> instruction: 0x01206822
    1064:	00021000 	andeq	r1, r2, r0
    1068:	00067900 	andeq	r7, r6, r0, lsl #18
    106c:	06771b00 	ldrbteq	r1, [r7], -r0, lsl #22
    1070:	57010000 	strpl	r0, [r1, -r0]
    1074:	00032e01 	andeq	r2, r3, r1, lsl #28
    1078:	fc910300 	ldc2	3, cr0, [r1], {0}
    107c:	6c23007d 	stcvs	0, cr0, [r3], #-500	; 0xfffffe0c
    1080:	b8000124 	stmdalt	r0, {r2, r5, r8}
    1084:	1b000005 	blne	10a0 <shift+0x10a0>
    1088:	00000611 	andeq	r0, r0, r1, lsl r6
    108c:	8701a001 	strhi	sl, [r1, -r1]
    1090:	03000001 	movweq	r0, #1
    1094:	1c7df091 	ldclne	0, cr15, [sp], #-580	; 0xfffffdbc
    1098:	01007069 	tsteq	r0, r9, rrx
    109c:	032e01a1 			; <UNDEFINED> instruction: 0x032e01a1
    10a0:	91030000 	mrsls	r0, (UNDEF: 3)
    10a4:	221b7de8 	andscs	r7, fp, #232, 26	; 0x3a00
    10a8:	01000006 	tsteq	r0, r6
    10ac:	06d301a2 	ldrbeq	r0, [r3], r2, lsr #3
    10b0:	91020000 	mrsls	r0, (UNDEF: 2)
    10b4:	05da1b50 	ldrbeq	r1, [sl, #2896]	; 0xb50
    10b8:	b7010000 	strlt	r0, [r1, -r0]
    10bc:	0003cc01 	andeq	ip, r3, r1, lsl #24
    10c0:	e4910300 	ldr	r0, [r1], #768	; 0x300
    10c4:	0e00007d 	mcreq	0, 0, r0, cr0, cr13, {3}
    10c8:	0000032e 	andeq	r0, r0, lr, lsr #6
    10cc:	000006d3 	ldrdeq	r0, [r0], -r3
    10d0:	0000cf16 	andeq	ip, r0, r6, lsl pc
    10d4:	0003e700 	andeq	lr, r3, r0, lsl #14
    10d8:	032e0410 			; <UNDEFINED> instruction: 0x032e0410
    10dc:	241e0000 	ldrcs	r0, [lr], #-0
    10e0:	01000005 	tsteq	r0, r5
    10e4:	000187c8 	andeq	r8, r1, r8, asr #15
    10e8:	0118e800 	tsteq	r8, r0, lsl #16
    10ec:	00017800 	andeq	r7, r1, r0, lsl #16
    10f0:	1c9c0100 	ldfnes	f0, [ip], {0}
    10f4:	24000007 	strcs	r0, [r0], #-7
    10f8:	00315f6e 	eorseq	r5, r1, lr, ror #30
    10fc:	0281c801 	addeq	ip, r1, #65536	; 0x10000
    1100:	91020000 	mrsls	r0, (UNDEF: 2)
    1104:	5f6e2470 	svcpl	0x006e2470
    1108:	c8010032 	stmdagt	r1, {r1, r4, r5}
    110c:	00000281 	andeq	r0, r0, r1, lsl #5
    1110:	00c49103 	sbceq	r9, r4, r3, lsl #2
    1114:	01007021 	tsteq	r0, r1, lsr #32
    1118:	000187c9 	andeq	r8, r1, r9, asr #15
    111c:	48910200 	ldmmi	r1, {r9}
    1120:	06dc2500 	ldrbeq	r2, [ip], r0, lsl #10
    1124:	bd010000 	stclt	0, cr0, [r1, #-0]
    1128:	00000118 	andeq	r0, r0, r8, lsl r1
    112c:	00011818 	andeq	r1, r1, r8, lsl r8
    1130:	000000d0 	ldrdeq	r0, [r0], -r0	; <UNPREDICTABLE>
    1134:	07789c01 	ldrbeq	r9, [r8, -r1, lsl #24]!
    1138:	70240000 	eorvc	r0, r4, r0
    113c:	87bd0100 	ldrhi	r0, [sp, r0, lsl #2]!
    1140:	02000001 	andeq	r0, r0, #1
    1144:	6e245491 	mcrvs	4, 1, r5, cr4, cr1, {4}
    1148:	81bd0100 			; <UNDEFINED> instruction: 0x81bd0100
    114c:	02000002 	andeq	r0, r0, #2
    1150:	ad1f7091 	ldcge	0, cr7, [pc, #-580]	; f14 <shift+0xf14>
    1154:	01000005 	tsteq	r0, r5
    1158:	000144bd 			; <UNDEFINED> instruction: 0x000144bd
    115c:	50910200 	addspl	r0, r1, r0, lsl #4
    1160:	00063020 	andeq	r3, r6, r0, lsr #32
    1164:	44be0100 	ldrtmi	r0, [lr], #256	; 0x100
    1168:	02000001 	andeq	r0, r0, #1
    116c:	3a206491 	bcc	81a3b8 <__bss_end__+0x7ef44c>
    1170:	01000005 	tsteq	r0, r5
    1174:	000144bf 			; <UNDEFINED> instruction: 0x000144bf
    1178:	60910200 	addsvs	r0, r1, r0, lsl #4
    117c:	06ab2500 	strteq	r2, [fp], r0, lsl #10
    1180:	b6010000 	strlt	r0, [r1], -r0
    1184:	00000118 	andeq	r0, r0, r8, lsl r1
    1188:	000117c8 	andeq	r1, r1, r8, asr #15
    118c:	00000050 	andeq	r0, r0, r0, asr r0
    1190:	079e9c01 	ldreq	r9, [lr, r1, lsl #24]
    1194:	6e240000 	cdpvs	0, 2, cr0, cr4, cr0, {0}
    1198:	81b60100 			; <UNDEFINED> instruction: 0x81b60100
    119c:	02000002 	andeq	r0, r0, #2
    11a0:	1e007091 	mcrne	0, 0, r7, cr0, cr1, {4}
    11a4:	00000606 	andeq	r0, r0, r6, lsl #12
    11a8:	032e7201 			; <UNDEFINED> instruction: 0x032e7201
    11ac:	13ec0000 	mvnne	r0, #0
    11b0:	03dc0001 	bicseq	r0, ip, #1
    11b4:	9c010000 	stcls	0, cr0, [r1], {-0}
    11b8:	0000085a 	andeq	r0, r0, sl, asr r8
    11bc:	01007024 	tsteq	r0, r4, lsr #32
    11c0:	00018772 	andeq	r8, r1, r2, ror r7
    11c4:	ac910300 	ldcge	3, cr0, [r1], {0}
    11c8:	069e1f7f 			; <UNDEFINED> instruction: 0x069e1f7f
    11cc:	72010000 	andvc	r0, r1, #0
    11d0:	0000041b 	andeq	r0, r0, fp, lsl r4
    11d4:	7fa89103 	svcvc	0x00a89103
    11d8:	0006911f 	andeq	r9, r6, pc, lsl r1
    11dc:	3e720100 	rpwccs	f0, f2, f0
    11e0:	03000000 	movweq	r0, #0
    11e4:	217fa491 			; <UNDEFINED> instruction: 0x217fa491
    11e8:	73010055 	movwvc	r0, #4181	; 0x1055
    11ec:	00000144 	andeq	r0, r0, r4, asr #2
    11f0:	205c9102 	subscs	r9, ip, r2, lsl #2
    11f4:	000006b8 			; <UNDEFINED> instruction: 0x000006b8
    11f8:	01447301 	cmpeq	r4, r1, lsl #6
    11fc:	91020000 	mrsls	r0, (UNDEF: 2)
    1200:	05b52058 	ldreq	r2, [r5, #88]!	; 0x58
    1204:	73010000 	movwvc	r0, #4096	; 0x1000
    1208:	00000144 	andeq	r0, r0, r4, asr #2
    120c:	206c9102 	rsbcs	r9, ip, r2, lsl #2
    1210:	000005ba 			; <UNDEFINED> instruction: 0x000005ba
    1214:	01447301 	cmpeq	r4, r1, lsl #6
    1218:	91020000 	mrsls	r0, (UNDEF: 2)
    121c:	07062068 	streq	r2, [r6, -r8, rrx]
    1220:	73010000 	movwvc	r0, #4096	; 0x1000
    1224:	00000144 	andeq	r0, r0, r4, asr #2
    1228:	20649102 	rsbcs	r9, r4, r2, lsl #2
    122c:	0000070b 	andeq	r0, r0, fp, lsl #14
    1230:	01447301 	cmpeq	r4, r1, lsl #6
    1234:	91020000 	mrsls	r0, (UNDEF: 2)
    1238:	00412160 	subeq	r2, r1, r0, ror #2
    123c:	032e7401 			; <UNDEFINED> instruction: 0x032e7401
    1240:	91020000 	mrsls	r0, (UNDEF: 2)
    1244:	00422148 	subeq	r2, r2, r8, asr #2
    1248:	032e7401 			; <UNDEFINED> instruction: 0x032e7401
    124c:	91020000 	mrsls	r0, (UNDEF: 2)
    1250:	00482140 	subeq	r2, r8, r0, asr #2
    1254:	032e7401 			; <UNDEFINED> instruction: 0x032e7401
    1258:	91030000 	mrsls	r0, (UNDEF: 3)
    125c:	1e007fb8 	mcrne	15, 0, r7, cr0, cr8, {5}
    1260:	0000067d 	andeq	r0, r0, sp, ror r6
    1264:	01444801 	cmpeq	r4, r1, lsl #16
    1268:	11400000 	mrsne	r0, (UNDEF: 64)
    126c:	02ac0001 	adceq	r0, ip, #1
    1270:	9c010000 	stcls	0, cr0, [r1], {-0}
    1274:	000008e9 	andeq	r0, r0, r9, ror #17
    1278:	01004824 	tsteq	r0, r4, lsr #16
    127c:	00032e48 	andeq	r2, r3, r8, asr #28
    1280:	58910200 	ldmpl	r1, {r9}
    1284:	01007024 	tsteq	r0, r4, lsr #32
    1288:	00041b48 	andeq	r1, r4, r8, asr #22
    128c:	54910200 	ldrpl	r0, [r1], #512	; 0x200
    1290:	0006461f 	andeq	r4, r6, pc, lsl r6
    1294:	3e480100 	dvfcce	f0, f0, f0
    1298:	02000000 	andeq	r0, r0, #0
    129c:	73215091 			; <UNDEFINED> instruction: 0x73215091
    12a0:	44490100 	strbmi	r0, [r9], #-256	; 0xffffff00
    12a4:	02000001 	andeq	r0, r0, #1
    12a8:	7c206491 	cfstrsvc	mvf6, [r0], #-580	; 0xfffffdbc
    12ac:	01000005 	tsteq	r0, r5
    12b0:	0001444a 	andeq	r4, r1, sl, asr #8
    12b4:	60910200 	addsvs	r0, r1, r0, lsl #4
    12b8:	00060120 	andeq	r0, r6, r0, lsr #2
    12bc:	444b0100 	strbmi	r0, [fp], #-256	; 0xffffff00
    12c0:	02000001 	andeq	r0, r0, #1
    12c4:	fd206891 	stc2	8, cr6, [r0, #-580]!	; 0xfffffdbc
    12c8:	01000005 	tsteq	r0, r5
    12cc:	0001444c 	andeq	r4, r1, ip, asr #8
    12d0:	74910200 	ldrvc	r0, [r1], #512	; 0x200
    12d4:	00746421 	rsbseq	r6, r4, r1, lsr #8
    12d8:	01444d01 	cmpeq	r4, r1, lsl #26
    12dc:	91020000 	mrsls	r0, (UNDEF: 2)
    12e0:	00692170 	rsbeq	r2, r9, r0, ror r1
    12e4:	003e4e01 	eorseq	r4, lr, r1, lsl #28
    12e8:	91020000 	mrsls	r0, (UNDEF: 2)
    12ec:	f026006c 			; <UNDEFINED> instruction: 0xf026006c
    12f0:	01000006 	tsteq	r0, r6
    12f4:	010f6c27 	tsteq	pc, r7, lsr #24
    12f8:	0001d400 	andeq	sp, r1, r0, lsl #8
    12fc:	629c0100 	addsvs	r0, ip, #0, 2
    1300:	24000009 	strcs	r0, [r0], #-9
    1304:	27010070 	smlsdxcs	r1, r0, r0, r0
    1308:	0000041b 	andeq	r0, r0, fp, lsl r4
    130c:	7f949103 	svcvc	0x00949103
    1310:	0006461f 	andeq	r4, r6, pc, lsl r6
    1314:	3e270100 	sufccs	f0, f7, f0
    1318:	03000000 	movweq	r0, #0
    131c:	1f7f9091 	svcne	0x007f9091
    1320:	000004ab 	andeq	r0, r0, fp, lsr #9
    1324:	09622701 	stmdbeq	r2!, {r0, r8, r9, sl, sp}^
    1328:	91030000 	mrsls	r0, (UNDEF: 3)
    132c:	e91f7f8c 	ldmdb	pc, {r2, r3, r7, r8, r9, sl, fp, ip, sp, lr}	; <UNPREDICTABLE>
    1330:	01000005 	tsteq	r0, r5
    1334:	00096227 	andeq	r6, r9, r7, lsr #4
    1338:	88910300 	ldmhi	r1, {r8, r9}
    133c:	0069217f 	rsbeq	r2, r9, pc, ror r1
    1340:	003e2801 	eorseq	r2, lr, r1, lsl #16
    1344:	91020000 	mrsls	r0, (UNDEF: 2)
    1348:	069c2074 			; <UNDEFINED> instruction: 0x069c2074
    134c:	29010000 	stmdbcs	r1, {}	; <UNPREDICTABLE>
    1350:	0000003e 	andeq	r0, r0, lr, lsr r0
    1354:	20709102 	rsbscs	r9, r0, r2, lsl #2
    1358:	00000677 	andeq	r0, r0, r7, ror r6
    135c:	02812a01 	addeq	r2, r1, #4096	; 0x1000
    1360:	91030000 	mrsls	r0, (UNDEF: 3)
    1364:	10007f9c 	mulne	r0, ip, pc	; <UNPREDICTABLE>
    1368:	00014404 	andeq	r4, r1, r4, lsl #8
    136c:	06c52700 	strbeq	r2, [r5], r0, lsl #14
    1370:	1e010000 	cdpne	0, 0, cr0, cr1, cr0, {0}
    1374:	00000118 	andeq	r0, r0, r8, lsl r1
    1378:	00010f00 	andeq	r0, r1, r0, lsl #30
    137c:	0000006c 	andeq	r0, r0, ip, rrx
    1380:	6e249c01 	cdpvs	12, 2, cr9, cr4, cr1, {0}
    1384:	1e010031 	mcrne	0, 0, r0, cr1, cr1, {1}
    1388:	000002e7 	andeq	r0, r0, r7, ror #5
    138c:	24749102 	ldrbtcs	r9, [r4], #-258	; 0xfffffefe
    1390:	0100326e 	tsteq	r0, lr, ror #4
    1394:	0002e71e 	andeq	lr, r2, lr, lsl r7
    1398:	70910200 	addsvc	r0, r1, r0, lsl #4
    139c:	07d20000 	ldrbeq	r0, [r2, r0]
    13a0:	00040000 	andeq	r0, r4, r0
    13a4:	000004f1 	strdeq	r0, [r0], -r1
    13a8:	01690104 	cmneq	r9, r4, lsl #2
    13ac:	420c0000 	andmi	r0, ip, #0
    13b0:	2c000008 	stccs	0, cr0, [r0], {8}
    13b4:	28000003 	stmdacs	r0, {r0, r1}
    13b8:	a000012d 	andge	r0, r0, sp, lsr #2
    13bc:	cc000008 	stcgt	0, cr0, [r0], {8}
    13c0:	02000004 	andeq	r0, r0, #4
    13c4:	00000141 	andeq	r0, r0, r1, asr #2
    13c8:	0030d802 	eorseq	sp, r0, r2, lsl #16
    13cc:	04030000 	streq	r0, [r3], #-0
    13d0:	0000f907 	andeq	pc, r0, r7, lsl #18
    13d4:	05040400 	streq	r0, [r4, #-1024]	; 0xfffffc00
    13d8:	00746e69 	rsbseq	r6, r4, r9, ror #28
    13dc:	42050403 	andmi	r0, r5, #50331648	; 0x3000000
    13e0:	03000002 	movweq	r0, #2
    13e4:	023d0508 	eorseq	r0, sp, #8, 10	; 0x2000000
    13e8:	01030000 	mrseq	r0, (UNDEF: 3)
    13ec:	0003bd08 	andeq	fp, r3, r8, lsl #26
    13f0:	07020300 	streq	r0, [r2, -r0, lsl #6]
    13f4:	000003ff 	strdeq	r0, [r0], -pc	; <UNPREDICTABLE>
    13f8:	f4070403 	vst3.8	{d0-d2}, [r7], r3
    13fc:	03000000 	movweq	r0, #0
    1400:	03bf0601 			; <UNDEFINED> instruction: 0x03bf0601
    1404:	02030000 	andeq	r0, r3, #0
    1408:	00030705 	andeq	r0, r3, r5, lsl #14
    140c:	07080300 	streq	r0, [r8, -r0, lsl #6]
    1410:	000000ef 	andeq	r0, r0, pc, ror #1
    1414:	00028602 	andeq	r8, r2, r2, lsl #12
    1418:	45370300 	ldrmi	r0, [r7, #-768]!	; 0xfffffd00
    141c:	02000000 	andeq	r0, r0, #0
    1420:	000003f0 	strdeq	r0, [r0], -r0	; <UNPREDICTABLE>
    1424:	003e8303 	eorseq	r8, lr, r3, lsl #6
    1428:	51020000 	mrspl	r0, (UNDEF: 2)
    142c:	03000004 	movweq	r0, #4
    1430:	00007684 	andeq	r7, r0, r4, lsl #13
    1434:	07040300 	streq	r0, [r4, -r0, lsl #6]
    1438:	00000398 	muleq	r0, r8, r3
    143c:	04060405 	streq	r0, [r6], #-1029	; 0xfffffbfb
    1440:	000000a6 	andeq	r0, r0, r6, lsr #1
    1444:	c6080103 	strgt	r0, [r8], -r3, lsl #2
    1448:	07000003 	streq	r0, [r0, -r3]
    144c:	000000a6 	andeq	r0, r0, r6, lsr #1
    1450:	0003ad08 	andeq	sl, r3, r8, lsl #26
    1454:	f1049800 			; <UNDEFINED> instruction: 0xf1049800
    1458:	0000022f 	andeq	r0, r0, pc, lsr #4
    145c:	00007f09 	andeq	r7, r0, r9, lsl #30
    1460:	37f20400 	ldrbcc	r0, [r2, r0, lsl #8]!
    1464:	00000000 	andeq	r0, r0, r0
    1468:	0001f509 	andeq	pc, r1, r9, lsl #10
    146c:	a0f70400 	rscsge	r0, r7, r0, lsl #8
    1470:	04000000 	streq	r0, [r0], #-0
    1474:	0002fa09 	andeq	pc, r2, r9, lsl #20
    1478:	a0f80400 	rscsge	r0, r8, r0, lsl #8
    147c:	08000000 	stmdaeq	r0, {}	; <UNPREDICTABLE>
    1480:	00014809 	andeq	r4, r1, r9, lsl #16
    1484:	a0f90400 	rscsge	r0, r9, r0, lsl #8
    1488:	0c000000 	stceq	0, cr0, [r0], {-0}
    148c:	00021f09 	andeq	r1, r2, r9, lsl #30
    1490:	a0fa0400 	rscsge	r0, sl, r0, lsl #8
    1494:	10000000 	andne	r0, r0, r0
    1498:	0003da09 	andeq	sp, r3, r9, lsl #20
    149c:	a0fb0400 	rscsge	r0, fp, r0, lsl #8
    14a0:	14000000 	strne	r0, [r0], #-0
    14a4:	00005f09 	andeq	r5, r0, r9, lsl #30
    14a8:	a0fc0400 	rscsge	r0, ip, r0, lsl #8
    14ac:	18000000 	stmdane	r0, {}	; <UNPREDICTABLE>
    14b0:	00046409 	andeq	r6, r4, r9, lsl #8
    14b4:	a0fd0400 	rscsge	r0, sp, r0, lsl #8
    14b8:	1c000000 	stcne	0, cr0, [r0], {-0}
    14bc:	00002d09 	andeq	r2, r0, r9, lsl #26
    14c0:	a0fe0400 	rscsge	r0, lr, r0, lsl #8
    14c4:	20000000 	andcs	r0, r0, r0
    14c8:	00025b0a 	andeq	r5, r2, sl, lsl #22
    14cc:	01000400 	tsteq	r0, r0, lsl #8
    14d0:	000000a0 	andeq	r0, r0, r0, lsr #1
    14d4:	01190a24 	tsteq	r9, r4, lsr #20
    14d8:	01040000 	mrseq	r0, (UNDEF: 4)
    14dc:	0000a001 	andeq	sl, r0, r1
    14e0:	c60a2800 	strgt	r2, [sl], -r0, lsl #16
    14e4:	04000000 	streq	r0, [r0], #-0
    14e8:	00a00102 	adceq	r0, r0, r2, lsl #2
    14ec:	0a2c0000 	beq	b014f4 <__bss_end__+0xad6588>
    14f0:	00000086 	andeq	r0, r0, r6, lsl #1
    14f4:	67010404 	strvs	r0, [r1, -r4, lsl #8]
    14f8:	30000002 	andcc	r0, r0, r2
    14fc:	00041e0a 	andeq	r1, r4, sl, lsl #28
    1500:	01060400 	tsteq	r6, r0, lsl #8
    1504:	0000026d 	andeq	r0, r0, sp, ror #4
    1508:	01320a34 	teqeq	r2, r4, lsr sl
    150c:	08040000 	stmdaeq	r4, {}	; <UNPREDICTABLE>
    1510:	00003701 	andeq	r3, r0, r1, lsl #14
    1514:	250a3800 	strcs	r3, [sl, #-2048]	; 0xfffff800
    1518:	04000004 	streq	r0, [r0], #-4
    151c:	0037010c 	eorseq	r0, r7, ip, lsl #2
    1520:	0a3c0000 	beq	f01528 <__bss_end__+0xed65bc>
    1524:	000003a1 	andeq	r0, r0, r1, lsr #7
    1528:	81010e04 	tsthi	r1, r4, lsl #28
    152c:	40000000 	andmi	r0, r0, r0
    1530:	00042d0a 	andeq	r2, r4, sl, lsl #26
    1534:	01120400 	tsteq	r2, r0, lsl #8
    1538:	00000053 	andeq	r0, r0, r3, asr r0
    153c:	02bb0a44 	adcseq	r0, fp, #68, 20	; 0x44000
    1540:	13040000 	movwne	r0, #16384	; 0x4000
    1544:	00006101 	andeq	r6, r0, r1, lsl #2
    1548:	0a0a4600 	beq	292d50 <__bss_end__+0x267de4>
    154c:	04000000 	streq	r0, [r0], #-0
    1550:	02730114 	rsbseq	r0, r3, #20, 2
    1554:	0a470000 	beq	11c155c <__bss_end__+0x11965f0>
    1558:	00000392 	muleq	r0, r2, r3
    155c:	83011804 	movwhi	r1, #6148	; 0x1804
    1560:	48000002 	stmdami	r0, {r1}
    1564:	0003a50a 	andeq	sl, r3, sl, lsl #10
    1568:	01210400 			; <UNDEFINED> instruction: 0x01210400
    156c:	0000008c 	andeq	r0, r0, ip, lsl #1
    1570:	02980a50 	addseq	r0, r8, #80, 20	; 0x50000
    1574:	29040000 	stmdbcs	r4, {}	; <UNPREDICTABLE>
    1578:	00009e01 	andeq	r9, r0, r1, lsl #28
    157c:	9f0a5800 	svcls	0x000a5800
    1580:	04000002 	streq	r0, [r0], #-2
    1584:	009e012a 	addseq	r0, lr, sl, lsr #2
    1588:	0a5c0000 	beq	1701590 <__bss_end__+0x16d6624>
    158c:	000002a6 	andeq	r0, r0, r6, lsr #5
    1590:	9e012b04 	vmlals.f64	d2, d1, d4
    1594:	60000000 	andvs	r0, r0, r0
    1598:	0002ad0a 	andeq	sl, r2, sl, lsl #26
    159c:	012c0400 			; <UNDEFINED> instruction: 0x012c0400
    15a0:	0000009e 	muleq	r0, lr, r0
    15a4:	02b40a64 	adcseq	r0, r4, #100, 20	; 0x64000
    15a8:	2e040000 	cdpcs	0, 0, cr0, cr4, cr0, {0}
    15ac:	00002501 	andeq	r2, r0, r1, lsl #10
    15b0:	d30a6800 	movwle	r6, #43008	; 0xa800
    15b4:	04000001 	streq	r0, [r0], #-1
    15b8:	0037012f 	eorseq	r0, r7, pc, lsr #2
    15bc:	0a6c0000 	beq	1b015c4 <__bss_end__+0x1ad6658>
    15c0:	0000045b 	andeq	r0, r0, fp, asr r4
    15c4:	89013104 	stmdbhi	r1, {r2, r8, ip, sp}
    15c8:	70000002 	andvc	r0, r0, r2
    15cc:	001b0b00 	andseq	r0, fp, r0, lsl #22
    15d0:	96040000 	strls	r0, [r4], -r0
    15d4:	0001e408 	andeq	lr, r1, r8, lsl #8
    15d8:	9c040c00 	stcls	12, cr0, [r4], {-0}
    15dc:	00000267 	andeq	r0, r0, r7, ror #4
    15e0:	00016309 	andeq	r6, r1, r9, lsl #6
    15e4:	679d0400 	ldrvs	r0, [sp, r0, lsl #8]
    15e8:	00000002 	andeq	r0, r0, r2
    15ec:	0003d409 	andeq	sp, r3, r9, lsl #8
    15f0:	6d9e0400 	cfldrsvs	mvf0, [lr]
    15f4:	04000002 	streq	r0, [r0], #-2
    15f8:	00097809 	andeq	r7, r9, r9, lsl #16
    15fc:	37a20400 	strcc	r0, [r2, r0, lsl #8]!
    1600:	08000000 	stmdaeq	r0, {}	; <UNPREDICTABLE>
    1604:	36040600 	strcc	r0, [r4], -r0, lsl #12
    1608:	06000002 	streq	r0, [r0], -r2
    160c:	0000b204 	andeq	fp, r0, r4, lsl #4
    1610:	00a60c00 	adceq	r0, r6, r0, lsl #24
    1614:	02830000 	addeq	r0, r3, #0
    1618:	970d0000 	strls	r0, [sp, -r0]
    161c:	00000000 	andeq	r0, r0, r0
    1620:	2f040600 	svccs	0x00040600
    1624:	0c000002 	stceq	0, cr0, [r0], {2}
    1628:	000000a6 	andeq	r0, r0, r6, lsr #1
    162c:	00000299 	muleq	r0, r9, r2
    1630:	0000970d 	andeq	r9, r0, sp, lsl #14
    1634:	0e002700 	cdpeq	7, 0, cr2, cr0, cr0, {0}
    1638:	00000384 	andeq	r0, r0, r4, lsl #7
    163c:	00022e0f 	andeq	r2, r2, pc, lsl #28
    1640:	013b0400 	teqeq	fp, r0, lsl #8
    1644:	00000299 	muleq	r0, r9, r2
    1648:	00024b0f 	andeq	r4, r2, pc, lsl #22
    164c:	013c0400 	teqeq	ip, r0, lsl #8
    1650:	00000299 	muleq	r0, r9, r2
    1654:	0004410f 	andeq	r4, r4, pc, lsl #2
    1658:	013d0400 	teqeq	sp, r0, lsl #8
    165c:	00000299 	muleq	r0, r9, r2
    1660:	00ad0406 	adceq	r0, sp, r6, lsl #8
    1664:	c2070000 	andgt	r0, r7, #0
    1668:	10000002 	andne	r0, r0, r2
    166c:	0000015d 	andeq	r0, r0, sp, asr r1
    1670:	026daa05 	rsbeq	sl, sp, #20480	; 0x5000
    1674:	bf100000 	svclt	0x00100000
    1678:	05000000 	streq	r0, [r0, #-0]
    167c:	00026dab 	andeq	r6, r2, fp, lsr #27
    1680:	00261000 	eoreq	r1, r6, r0
    1684:	ac050000 	stcge	0, cr0, [r5], {-0}
    1688:	0000026d 	andeq	r0, r0, sp, ror #4
    168c:	00012910 	andeq	r2, r1, r0, lsl r9
    1690:	371a0600 	ldrcc	r0, [sl, -r0, lsl #12]
    1694:	0c000000 	stceq	0, cr0, [r0], {-0}
    1698:	000002c8 	andeq	r0, r0, r8, asr #5
    169c:	00000304 	andeq	r0, r0, r4, lsl #6
    16a0:	f9070011 			; <UNDEFINED> instruction: 0xf9070011
    16a4:	10000002 	andne	r0, r0, r2
    16a8:	0000010d 	andeq	r0, r0, sp, lsl #2
    16ac:	03041b06 	movweq	r1, #19206	; 0x4b06
    16b0:	a00c0000 	andge	r0, ip, r0
    16b4:	24000000 	strcs	r0, [r0], #-0
    16b8:	0d000003 	stceq	0, cr0, [r0, #-12]
    16bc:	00000097 	muleq	r0, r7, r0
    16c0:	cb0f0001 	blgt	3c16cc <__bss_end__+0x396760>
    16c4:	07000003 	streq	r0, [r0, -r3]
    16c8:	0314011a 	tsteq	r4, #-2147483642	; 0x80000006
    16cc:	d90f0000 	stmdble	pc, {}	; <UNPREDICTABLE>
    16d0:	07000001 	streq	r0, [r0, -r1]
    16d4:	0037011b 	eorseq	r0, r7, fp, lsl r1
    16d8:	a10f0000 	mrsge	r0, CPSR
    16dc:	07000000 	streq	r0, [r0, -r0]
    16e0:	003e011c 	eorseq	r0, lr, ip, lsl r1
    16e4:	cd0f0000 	stcgt	0, cr0, [pc, #-0]	; 16ec <shift+0x16ec>
    16e8:	07000003 	streq	r0, [r0, -r3]
    16ec:	03140121 	tsteq	r4, #1073741832	; 0x40000008
    16f0:	db0f0000 	blle	3c16f8 <__bss_end__+0x39678c>
    16f4:	07000001 	streq	r0, [r0, -r1]
    16f8:	00370129 	eorseq	r0, r7, r9, lsr #2
    16fc:	a30f0000 	movwge	r0, #61440	; 0xf000
    1700:	07000000 	streq	r0, [r0, -r0]
    1704:	003e012a 	eorseq	r0, lr, sl, lsr #2
    1708:	e3020000 	movw	r0, #8192	; 0x2000
    170c:	08000002 	stmdaeq	r0, {r1}
    1710:	0000612b 	andeq	r6, r0, fp, lsr #2
    1714:	01c30200 	biceq	r0, r3, r0, lsl #4
    1718:	2f080000 	svccs	0x00080000
    171c:	0000003e 	andeq	r0, r0, lr, lsr r0
    1720:	00020f02 	andeq	r0, r2, r2, lsl #30
    1724:	8d310800 	ldchi	8, cr0, [r1, #-0]
    1728:	03000003 	movweq	r0, #3
    172c:	00d30404 	sbcseq	r0, r3, r4, lsl #8
    1730:	e9020000 	stmdb	r2, {}	; <UNPREDICTABLE>
    1734:	08000002 	stmdaeq	r0, {r1}
    1738:	00039f32 	andeq	r9, r3, r2, lsr pc
    173c:	04080300 	streq	r0, [r8], #-768	; 0xfffffd00
    1740:	00000417 	andeq	r0, r0, r7, lsl r4
    1744:	00008f02 	andeq	r8, r0, r2, lsl #30
    1748:	6c3e0800 	ldcvs	8, cr0, [lr], #-0
    174c:	02000003 	andeq	r0, r0, #3
    1750:	000001bd 			; <UNDEFINED> instruction: 0x000001bd
    1754:	03774408 	cmneq	r7, #8, 8	; 0x8000000
    1758:	ca020000 	bgt	81760 <__bss_end__+0x567f4>
    175c:	08000002 	stmdaeq	r0, {r1}
    1760:	00038246 	andeq	r8, r3, r6, asr #4
    1764:	03710200 	cmneq	r1, #0, 4
    1768:	47080000 	strmi	r0, [r8, -r0]
    176c:	00000394 	muleq	r0, r4, r3
    1770:	00032608 	andeq	r2, r3, r8, lsl #12
    1774:	56081800 	strpl	r1, [r8], -r0, lsl #16
    1778:	000003ff 	strdeq	r0, [r0], -pc	; <UNPREDICTABLE>
    177c:	08007812 	stmdaeq	r0, {r1, r4, fp, ip, sp, lr}
    1780:	0003c757 	andeq	ip, r3, r7, asr r7
    1784:	79120000 	ldmdbvc	r2, {}	; <UNPREDICTABLE>
    1788:	c7580800 	ldrbgt	r0, [r8, -r0, lsl #16]
    178c:	08000003 	stmdaeq	r0, {r0, r1}
    1790:	6c617612 	stclvs	6, cr7, [r1], #-72	; 0xffffffb8
    1794:	a6590800 	ldrbge	r0, [r9], -r0, lsl #16
    1798:	10000003 	andne	r0, r0, r3
    179c:	03260200 			; <UNDEFINED> instruction: 0x03260200
    17a0:	5a080000 	bpl	2017a8 <__bss_end__+0x1d683c>
    17a4:	000003d2 	ldrdeq	r0, [r0], -r2
    17a8:	0003b608 	andeq	fp, r3, r8, lsl #12
    17ac:	63081000 	movwvs	r1, #32768	; 0x8000
    17b0:	0000042f 	andeq	r0, r0, pc, lsr #8
    17b4:	00091d09 	andeq	r1, r9, r9, lsl #26
    17b8:	c7640800 	strbgt	r0, [r4, -r0, lsl #16]!
    17bc:	00000003 	andeq	r0, r0, r3
    17c0:	6c617612 	stclvs	6, cr7, [r1], #-72	; 0xffffffb8
    17c4:	a6650800 	strbtge	r0, [r5], -r0, lsl #16
    17c8:	08000003 	stmdaeq	r0, {r0, r1}
    17cc:	03b60200 			; <UNDEFINED> instruction: 0x03b60200
    17d0:	66080000 	strvs	r0, [r8], -r0
    17d4:	0000040a 	andeq	r0, r0, sl, lsl #8
    17d8:	0000ac08 	andeq	sl, r0, r8, lsl #24
    17dc:	68082800 	stmdavs	r8, {fp, sp}
    17e0:	0000049b 	muleq	r0, fp, r4
    17e4:	00021709 	andeq	r1, r2, r9, lsl #14
    17e8:	9f690800 	svcls	0x00690800
    17ec:	00000003 	andeq	r0, r0, r3
    17f0:	0003e809 	andeq	lr, r3, r9, lsl #16
    17f4:	9f6a0800 	svcls	0x006a0800
    17f8:	08000003 	stmdaeq	r0, {r0, r1}
    17fc:	00031109 	andeq	r1, r3, r9, lsl #2
    1800:	bc6b0800 	stcllt	8, cr0, [fp], #-0
    1804:	10000003 	andne	r0, r0, r3
    1808:	0000d909 	andeq	sp, r0, r9, lsl #18
    180c:	bc6c0800 	stcllt	8, cr0, [ip], #-0
    1810:	14000003 	strne	r0, [r0], #-3
    1814:	00003909 	andeq	r3, r0, r9, lsl #18
    1818:	b16d0800 	cmnlt	sp, r0, lsl #16
    181c:	18000003 	stmdane	r0, {r0, r1}
    1820:	00026f09 	andeq	r6, r2, r9, lsl #30
    1824:	b16e0800 	cmnlt	lr, r0, lsl #16
    1828:	1c000003 	stcne	0, cr0, [r0], {3}
    182c:	6c617612 	stclvs	6, cr7, [r1], #-72	; 0xffffffb8
    1830:	a66f0800 	strbtge	r0, [pc], -r0, lsl #16
    1834:	20000003 	andcs	r0, r0, r3
    1838:	00ac0200 	adceq	r0, ip, r0, lsl #4
    183c:	70080000 	andvc	r0, r8, r0
    1840:	0000043a 	andeq	r0, r0, sl, lsr r4
    1844:	08092413 	stmdaeq	r9, {r0, r1, r4, sl, sp}
    1848:	0000051b 	andeq	r0, r0, fp, lsl r5
    184c:	0007b809 	andeq	fp, r7, r9, lsl #16
    1850:	8d0a0900 	vstrhi.16	s0, [sl, #-0]	; <UNPREDICTABLE>
    1854:	00000003 	andeq	r0, r0, r3
    1858:	0007f709 	andeq	pc, r7, r9, lsl #14
    185c:	8d0b0900 	vstrhi.16	s0, [fp, #-0]	; <UNPREDICTABLE>
    1860:	04000003 	streq	r0, [r0], #-3
    1864:	0007a409 	andeq	sl, r7, r9, lsl #8
    1868:	8d0c0900 	vstrhi.16	s0, [ip, #-0]	; <UNPREDICTABLE>
    186c:	08000003 	stmdaeq	r0, {r0, r1}
    1870:	00085e09 	andeq	r5, r8, r9, lsl #28
    1874:	8d0d0900 	vstrhi.16	s0, [sp, #-0]	; <UNPREDICTABLE>
    1878:	0c000003 	stceq	0, cr0, [r0], {3}
    187c:	0008ab09 	andeq	sl, r8, r9, lsl #22
    1880:	8d0e0900 	vstrhi.16	s0, [lr, #-0]	; <UNPREDICTABLE>
    1884:	10000003 	andne	r0, r0, r3
    1888:	00075a09 	andeq	r5, r7, r9, lsl #20
    188c:	8d0f0900 	vstrhi.16	s0, [pc, #-0]	; 1894 <shift+0x1894>	; <UNPREDICTABLE>
    1890:	14000003 	strne	r0, [r0], #-3
    1894:	00082009 	andeq	r2, r8, r9
    1898:	8d100900 	vldrhi.16	s0, [r0, #-0]	; <UNPREDICTABLE>
    189c:	18000003 	stmdane	r0, {r0, r1}
    18a0:	0008d709 	andeq	sp, r8, r9, lsl #14
    18a4:	8d110900 	vldrhi.16	s0, [r1, #-0]	; <UNPREDICTABLE>
    18a8:	1c000003 	stcne	0, cr0, [r0], {3}
    18ac:	00080709 	andeq	r0, r8, r9, lsl #14
    18b0:	8d120900 	vldrhi.16	s0, [r2, #-0]	; <UNPREDICTABLE>
    18b4:	20000003 	andcs	r0, r0, r3
    18b8:	08730200 	ldmdaeq	r3!, {r9}^
    18bc:	13090000 	movwne	r0, #36864	; 0x9000
    18c0:	000004a6 	andeq	r0, r0, r6, lsr #9
    18c4:	00089814 	andeq	r9, r8, r4, lsl r8
    18c8:	1b090100 	blne	241cd0 <__bss_end__+0x216d64>
    18cc:	05000005 	streq	r0, [r0, #-5]
    18d0:	02af4803 	adceq	r4, pc, #196608	; 0x30000
    18d4:	07e11500 	strbeq	r1, [r1, r0, lsl #10]!
    18d8:	8c010000 	stchi	0, cr0, [r1], {-0}
    18dc:	000134e8 	andeq	r3, r1, r8, ror #9
    18e0:	000000e0 	andeq	r0, r0, r0, ror #1
    18e4:	05969c01 	ldreq	r9, [r6, #3073]	; 0xc01
    18e8:	67160000 	ldrvs	r0, [r6, -r0]
    18ec:	01007370 	tsteq	r0, r0, ror r3
    18f0:	0005968c 	andeq	r9, r5, ip, lsl #13
    18f4:	74910200 	ldrvc	r0, [r1], #512	; 0x200
    18f8:	0008c617 	andeq	ip, r8, r7, lsl r6
    18fc:	9c8c0100 	stflss	f0, [ip], {0}
    1900:	02000005 	andeq	r0, r0, #5
    1904:	f3177091 	vqadd.u16	d7, d23, d1
    1908:	01000008 	tsteq	r0, r8
    190c:	0005a28c 	andeq	sl, r5, ip, lsl #5
    1910:	6c910200 	lfmvs	f0, 4, [r1], {0}
    1914:	0007ed17 	andeq	lr, r7, r7, lsl sp
    1918:	a68c0100 	strge	r0, [ip], r0, lsl #2
    191c:	02000003 	andeq	r0, r0, #3
    1920:	6a186b91 	bvs	61c76c <__bss_end__+0x5f1800>
    1924:	01000006 	tsteq	r0, r6
    1928:	0003a68e 	andeq	sl, r3, lr, lsl #13
    192c:	6e030500 	cfsh32vs	mvfx0, mvfx3, #0
    1930:	00000270 	andeq	r0, r0, r0, ror r2
    1934:	03ff0406 	mvnseq	r0, #100663296	; 0x6000000
    1938:	04060000 	streq	r0, [r6], #-0
    193c:	0000042f 	andeq	r0, r0, pc, lsr #8
    1940:	049b0406 	ldreq	r0, [fp], #1030	; 0x406
    1944:	ec150000 	ldc	0, cr0, [r5], {-0}
    1948:	01000008 	tsteq	r0, r8
    194c:	01329c69 	teqeq	r2, r9, ror #24
    1950:	00024c00 	andeq	r4, r2, r0, lsl #24
    1954:	2e9c0100 	fmlcse	f0, f4, f0
    1958:	17000006 	strne	r0, [r0, -r6]
    195c:	000008f3 	strdeq	r0, [r0], -r3
    1960:	05a26901 	streq	r6, [r2, #2305]!	; 0x901
    1964:	91020000 	mrsls	r0, (UNDEF: 2)
    1968:	08ce175c 	stmiaeq	lr, {r2, r3, r4, r6, r8, r9, sl, ip}^
    196c:	69010000 	stmdbvs	r1, {}	; <UNPREDICTABLE>
    1970:	0000038d 	andeq	r0, r0, sp, lsl #7
    1974:	17589102 	ldrbne	r9, [r8, -r2, lsl #2]
    1978:	000007a8 	andeq	r0, r0, r8, lsr #15
    197c:	038d6901 	orreq	r6, sp, #16384	; 0x4000
    1980:	91020000 	mrsls	r0, (UNDEF: 2)
    1984:	07c91754 			; <UNDEFINED> instruction: 0x07c91754
    1988:	69010000 	stmdbvs	r1, {}	; <UNPREDICTABLE>
    198c:	0000038d 	andeq	r0, r0, sp, lsl #7
    1990:	18509102 	ldmdane	r0, {r1, r8, ip, pc}^
    1994:	00000744 	andeq	r0, r0, r4, asr #14
    1998:	00377101 	eorseq	r7, r7, r1, lsl #2
    199c:	91020000 	mrsls	r0, (UNDEF: 2)
    19a0:	0797186c 	ldreq	r1, [r7, ip, ror #16]
    19a4:	72010000 	andvc	r0, r1, #0
    19a8:	00000037 	andeq	r0, r0, r7, lsr r0
    19ac:	18689102 	stmdane	r8!, {r1, r8, ip, pc}^
    19b0:	00000836 	andeq	r0, r0, r6, lsr r8
    19b4:	00378201 	eorseq	r8, r7, r1, lsl #4
    19b8:	91020000 	mrsls	r0, (UNDEF: 2)
    19bc:	077d1864 	ldrbeq	r1, [sp, -r4, ror #16]!
    19c0:	83010000 	movwhi	r0, #4096	; 0x1000
    19c4:	00000037 	andeq	r0, r0, r7, lsr r0
    19c8:	00609102 	rsbeq	r9, r0, r2, lsl #2
    19cc:	0008bf15 	andeq	fp, r8, r5, lsl pc
    19d0:	50450100 	subpl	r0, r5, r0, lsl #2
    19d4:	4c000130 	stfmis	f0, [r0], {48}	; 0x30
    19d8:	01000002 	tsteq	r0, r2
    19dc:	0006c29c 	muleq	r6, ip, r2
    19e0:	08c61700 	stmiaeq	r6, {r8, r9, sl, ip}^
    19e4:	45010000 	strmi	r0, [r1, #-0]
    19e8:	0000059c 	muleq	r0, ip, r5
    19ec:	17549102 	ldrbne	r9, [r4, -r2, lsl #2]
    19f0:	000008ce 	andeq	r0, r0, lr, asr #17
    19f4:	038d4501 	orreq	r4, sp, #4194304	; 0x400000
    19f8:	91020000 	mrsls	r0, (UNDEF: 2)
    19fc:	07301750 			; <UNDEFINED> instruction: 0x07301750
    1a00:	45010000 	strmi	r0, [r1, #-0]
    1a04:	0000038d 	andeq	r0, r0, sp, lsl #7
    1a08:	174c9102 	strbne	r9, [ip, -r2, lsl #2]
    1a0c:	000007c9 	andeq	r0, r0, r9, asr #15
    1a10:	038d4501 	orreq	r4, sp, #4194304	; 0x400000
    1a14:	91020000 	mrsls	r0, (UNDEF: 2)
    1a18:	07441848 	strbeq	r1, [r4, -r8, asr #16]
    1a1c:	4d010000 	stcmi	0, cr0, [r1, #-0]
    1a20:	00000037 	andeq	r0, r0, r7, lsr r0
    1a24:	186c9102 	stmdane	ip!, {r1, r8, ip, pc}^
    1a28:	00000797 	muleq	r0, r7, r7
    1a2c:	00374e01 	eorseq	r4, r7, r1, lsl #28
    1a30:	91020000 	mrsls	r0, (UNDEF: 2)
    1a34:	07a81868 	streq	r1, [r8, r8, ror #16]!
    1a38:	5e010000 	cdppl	0, 0, cr0, cr1, cr0, {0}
    1a3c:	0000038d 	andeq	r0, r0, sp, lsl #7
    1a40:	18649102 	stmdane	r4!, {r1, r8, ip, pc}^
    1a44:	00000836 	andeq	r0, r0, r6, lsr r8
    1a48:	00375f01 	eorseq	r5, r7, r1, lsl #30
    1a4c:	91020000 	mrsls	r0, (UNDEF: 2)
    1a50:	077d1860 	ldrbeq	r1, [sp, -r0, ror #16]!
    1a54:	60010000 	andvs	r0, r1, r0
    1a58:	00000037 	andeq	r0, r0, r7, lsr r0
    1a5c:	005c9102 	subseq	r9, ip, r2, lsl #2
    1a60:	00074f15 	andeq	r4, r7, r5, lsl pc
    1a64:	04210100 	strteq	r0, [r1], #-256	; 0xffffff00
    1a68:	4c00012e 	stfmis	f0, [r0], {46}	; 0x2e
    1a6c:	01000002 	tsteq	r0, r2
    1a70:	0007489c 	muleq	r7, ip, r8
    1a74:	70671600 	rsbvc	r1, r7, r0, lsl #12
    1a78:	21010073 	tstcs	r1, r3, ror r0
    1a7c:	00000596 	muleq	r0, r6, r5
    1a80:	175c9102 	ldrbne	r9, [ip, -r2, lsl #2]
    1a84:	000008ce 	andeq	r0, r0, lr, asr #17
    1a88:	038d2101 	orreq	r2, sp, #1073741824	; 0x40000000
    1a8c:	91020000 	mrsls	r0, (UNDEF: 2)
    1a90:	07a81758 	sbfxeq	r1, r8, #14, #9
    1a94:	21010000 	mrscs	r0, (UNDEF: 1)
    1a98:	0000038d 	andeq	r0, r0, sp, lsl #7
    1a9c:	17549102 	ldrbne	r9, [r4, -r2, lsl #2]
    1aa0:	000007c9 	andeq	r0, r0, r9, asr #15
    1aa4:	038d2101 	orreq	r2, sp, #1073741824	; 0x40000000
    1aa8:	91020000 	mrsls	r0, (UNDEF: 2)
    1aac:	07441850 	smlsldeq	r1, r4, r0, r8
    1ab0:	29010000 	stmdbcs	r1, {}	; <UNPREDICTABLE>
    1ab4:	00000037 	andeq	r0, r0, r7, lsr r0
    1ab8:	186c9102 	stmdane	ip!, {r1, r8, ip, pc}^
    1abc:	00000797 	muleq	r0, r7, r7
    1ac0:	00372a01 	eorseq	r2, r7, r1, lsl #20
    1ac4:	91020000 	mrsls	r0, (UNDEF: 2)
    1ac8:	08361868 	ldmdaeq	r6!, {r3, r5, r6, fp, ip}
    1acc:	3a010000 	bcc	41ad4 <__bss_end__+0x16b68>
    1ad0:	00000037 	andeq	r0, r0, r7, lsr r0
    1ad4:	18649102 	stmdane	r4!, {r1, r8, ip, pc}^
    1ad8:	0000077d 	andeq	r0, r0, sp, ror r7
    1adc:	00373b01 	eorseq	r3, r7, r1, lsl #22
    1ae0:	91020000 	mrsls	r0, (UNDEF: 2)
    1ae4:	72190060 	andsvc	r0, r9, #96	; 0x60
    1ae8:	01000007 	tsteq	r0, r7
    1aec:	00003714 	andeq	r3, r0, r4, lsl r7
    1af0:	012d7800 			; <UNDEFINED> instruction: 0x012d7800
    1af4:	00008c00 	andeq	r8, r0, r0, lsl #24
    1af8:	a49c0100 	ldrge	r0, [ip], #256	; 0x100
    1afc:	16000007 	strne	r0, [r0], -r7
    1b00:	006e696d 	rsbeq	r6, lr, sp, ror #18
    1b04:	00371401 	eorseq	r1, r7, r1, lsl #8
    1b08:	91020000 	mrsls	r0, (UNDEF: 2)
    1b0c:	616d1664 	cmnvs	sp, r4, ror #12
    1b10:	14010078 	strne	r0, [r1], #-120	; 0xffffff88
    1b14:	00000037 	andeq	r0, r0, r7, lsr r0
    1b18:	1a609102 	bne	1825f28 <__bss_end__+0x17fafbc>
    1b1c:	1601006e 	strne	r0, [r1], -lr, rrx
    1b20:	00000037 	andeq	r0, r0, r7, lsr r0
    1b24:	18749102 	ldmdane	r4!, {r1, r8, ip, pc}^
    1b28:	0000078d 	andeq	r0, r0, sp, lsl #15
    1b2c:	00371701 	eorseq	r1, r7, r1, lsl #14
    1b30:	91020000 	mrsls	r0, (UNDEF: 2)
    1b34:	00781a70 	rsbseq	r1, r8, r0, ror sl
    1b38:	00371801 	eorseq	r1, r7, r1, lsl #16
    1b3c:	91020000 	mrsls	r0, (UNDEF: 2)
    1b40:	8c1b006c 	ldchi	0, cr0, [fp], {108}	; 0x6c
    1b44:	01000008 	tsteq	r0, r8
    1b48:	012d540e 			; <UNDEFINED> instruction: 0x012d540e
    1b4c:	00002400 	andeq	r2, r0, r0, lsl #8
    1b50:	1c9c0100 	ldfnes	f0, [ip], {0}
    1b54:	000007d4 	ldrdeq	r0, [r0], -r4
    1b58:	2d280b01 	fstmdbxcs	r8!, {d0-d-1}	;@ Deprecated
    1b5c:	002c0001 	eoreq	r0, ip, r1
    1b60:	9c010000 	stcls	0, cr0, [r1], {-0}
    1b64:	67736d16 			; <UNDEFINED> instruction: 0x67736d16
    1b68:	a00b0100 	andge	r0, fp, r0, lsl #2
    1b6c:	02000000 	andeq	r0, r0, #0
    1b70:	00007491 	muleq	r0, r1, r4
    1b74:	00000814 	andeq	r0, r0, r4, lsl r8
    1b78:	06880004 	streq	r0, [r8], r4
    1b7c:	01040000 	mrseq	r0, (UNDEF: 4)
    1b80:	00000169 	andeq	r0, r0, r9, ror #2
    1b84:	0009aa0c 	andeq	sl, r9, ip, lsl #20
    1b88:	00032c00 	andeq	r2, r3, r0, lsl #24
    1b8c:	0135c800 	teqeq	r5, r0, lsl #16
    1b90:	0016bc00 	andseq	fp, r6, r0, lsl #24
    1b94:	00069700 	andeq	r9, r6, r0, lsl #14
    1b98:	04040200 	streq	r0, [r4], #-512	; 0xfffffe00
    1b9c:	000000d3 	ldrdeq	r0, [r0], -r3
    1ba0:	17040802 	strne	r0, [r4, -r2, lsl #16]
    1ba4:	03000004 	movweq	r0, #4
    1ba8:	00000057 	andeq	r0, r0, r7, asr r0
    1bac:	003ea802 	eorseq	sl, lr, r2, lsl #16
    1bb0:	04040000 	streq	r0, [r4], #-0
    1bb4:	746e6905 	strbtvc	r6, [lr], #-2309	; 0xfffff6fb
    1bb8:	07040200 	streq	r0, [r4, -r0, lsl #4]
    1bbc:	000000f9 	strdeq	r0, [r0], -r9
    1bc0:	003e0405 	eorseq	r0, lr, r5, lsl #8
    1bc4:	5c020000 	stcpl	0, cr0, [r2], {-0}
    1bc8:	00007801 	andeq	r7, r0, r1, lsl #16
    1bcc:	01560600 	cmpeq	r6, r0, lsl #12
    1bd0:	077f0000 	ldrbeq	r0, [pc, -r0]!
    1bd4:	000000b2 	strheq	r0, [r0], -r2
    1bd8:	04390700 	ldrteq	r0, [r9], #-1792	; 0xfffff900
    1bdc:	07010000 	streq	r0, [r1, -r0]
    1be0:	0000004f 	andeq	r0, r0, pc, asr #32
    1be4:	01060702 	tsteq	r6, r2, lsl #14
    1be8:	00030000 	andeq	r0, r3, r0
    1bec:	00006d08 	andeq	r6, r0, r8, lsl #26
    1bf0:	01620200 	cmneq	r2, r0, lsl #4
    1bf4:	0000004c 	andeq	r0, r0, ip, asr #32
    1bf8:	00020209 	andeq	r0, r2, r9, lsl #4
    1bfc:	01670200 	cmneq	r7, r0, lsl #4
    1c00:	00000078 	andeq	r0, r0, r8, ror r0
    1c04:	c6080102 	strgt	r0, [r8], -r2, lsl #2
    1c08:	02000003 	andeq	r0, r0, #3
    1c0c:	02420504 	subeq	r0, r2, #4, 10	; 0x1000000
    1c10:	08020000 	stmdaeq	r2, {}	; <UNPREDICTABLE>
    1c14:	00023d05 	andeq	r3, r2, r5, lsl #26
    1c18:	08010200 	stmdaeq	r1, {r9}
    1c1c:	000003bd 			; <UNDEFINED> instruction: 0x000003bd
    1c20:	ff070202 			; <UNDEFINED> instruction: 0xff070202
    1c24:	02000003 	andeq	r0, r0, #3
    1c28:	00f40704 	rscseq	r0, r4, r4, lsl #14
    1c2c:	01020000 	mrseq	r0, (UNDEF: 2)
    1c30:	0003bf06 	andeq	fp, r3, r6, lsl #30
    1c34:	05020200 	streq	r0, [r2, #-512]	; 0xfffffe00
    1c38:	00000307 	andeq	r0, r0, r7, lsl #6
    1c3c:	ef070802 	svc	0x00070802
    1c40:	02000000 	andeq	r0, r0, #0
    1c44:	03980704 	orrseq	r0, r8, #4, 14	; 0x100000
    1c48:	e30a0000 	movw	r0, #40960	; 0xa000
    1c4c:	03000002 	movweq	r0, #2
    1c50:	0000ba2b 	andeq	fp, r0, fp, lsr #20
    1c54:	07250a00 	streq	r0, [r5, -r0, lsl #20]!
    1c58:	2c030000 	stccs	0, cr0, [r3], {-0}
    1c5c:	000000a5 	andeq	r0, r0, r5, lsr #1
    1c60:	00020f0a 	andeq	r0, r2, sl, lsl #30
    1c64:	25310300 	ldrcs	r0, [r1, #-768]!	; 0xfffffd00
    1c68:	0a000000 	beq	1c70 <shift+0x1c70>
    1c6c:	0000008f 	andeq	r0, r0, pc, lsl #1
    1c70:	00d63e03 	sbcseq	r3, r6, r3, lsl #28
    1c74:	8b0a0000 	blhi	281c7c <__bss_end__+0x256d10>
    1c78:	03000006 	movweq	r0, #6
    1c7c:	0000e140 	andeq	lr, r0, r0, asr #2
    1c80:	02ca0a00 	sbceq	r0, sl, #0, 20
    1c84:	46030000 	strmi	r0, [r3], -r0
    1c88:	000000ec 	andeq	r0, r0, ip, ror #1
    1c8c:	0001ca0b 	andeq	ip, r1, fp, lsl #20
    1c90:	50030c00 	andpl	r0, r3, r0, lsl #24
    1c94:	00000145 	andeq	r0, r0, r5, asr #2
    1c98:	0300780c 	movweq	r7, #2060	; 0x80c
    1c9c:	00010d51 	andeq	r0, r1, r1, asr sp
    1ca0:	790c0000 	stmdbvc	ip, {}	; <UNPREDICTABLE>
    1ca4:	0d520300 	ldcleq	3, cr0, [r2, #-0]
    1ca8:	04000001 	streq	r0, [r0], #-1
    1cac:	00091d0d 	andeq	r1, r9, sp, lsl #26
    1cb0:	0d530300 	ldcleq	3, cr0, [r3, #-0]
    1cb4:	08000001 	stmdaeq	r0, {r0}
    1cb8:	01ca0a00 	biceq	r0, sl, r0, lsl #20
    1cbc:	54030000 	strpl	r0, [r3], #-0
    1cc0:	00000118 	andeq	r0, r0, r8, lsl r1
    1cc4:	0006cd0e 	andeq	ip, r6, lr, lsl #26
    1cc8:	00450400 	subeq	r0, r5, r0, lsl #8
    1ccc:	86030000 	strhi	r0, [r3], -r0
    1cd0:	00000179 	andeq	r0, r0, r9, ror r1
    1cd4:	00051107 	andeq	r1, r5, r7, lsl #2
    1cd8:	be070000 	cdplt	0, 0, cr0, cr7, cr0, {0}
    1cdc:	01000006 	tsteq	r0, r6
    1ce0:	00064c07 	andeq	r4, r6, r7, lsl #24
    1ce4:	a8070200 	stmdage	r7, {r9}
    1ce8:	03000005 	movweq	r0, #5
    1cec:	06cd0a00 	strbeq	r0, [sp], r0, lsl #20
    1cf0:	8b030000 	blhi	c1cf8 <__bss_end__+0x96d8c>
    1cf4:	00000150 	andeq	r0, r0, r0, asr r1
    1cf8:	6372410f 	cmnvs	r2, #-1073741821	; 0xc0000003
    1cfc:	8f8d0300 	svchi	0x008d0300
    1d00:	10000001 	andne	r0, r0, r1
    1d04:	00637241 	rsbeq	r7, r3, r1, asr #4
    1d08:	c091030c 	addsgt	r0, r1, ip, lsl #6
    1d0c:	0d000001 	stceq	0, cr0, [r0, #-4]
    1d10:	0000072b 	andeq	r0, r0, fp, lsr #14
    1d14:	02269203 	eoreq	r9, r6, #805306368	; 0x30000000
    1d18:	0d000000 	stceq	0, cr0, [r0, #-0]
    1d1c:	0000059e 	muleq	r0, lr, r5
    1d20:	010d9303 	tsteq	sp, r3, lsl #6
    1d24:	0d040000 	stceq	0, cr0, [r4, #-0]
    1d28:	000005e5 	andeq	r0, r0, r5, ror #11
    1d2c:	010d9403 	tsteq	sp, r3, lsl #8
    1d30:	00080000 	andeq	r0, r8, r0
    1d34:	0005700a 	andeq	r7, r5, sl
    1d38:	cb900300 	blgt	fe402940 <__bss_end__+0xfe3d79d4>
    1d3c:	0b000001 	bleq	1d48 <shift+0x1d48>
    1d40:	00000570 	andeq	r0, r0, r0, ror r5
    1d44:	26970354 			; <UNDEFINED> instruction: 0x26970354
    1d48:	0c000002 	stceq	0, cr0, [r0], {2}
    1d4c:	03006469 	movweq	r6, #1129	; 0x469
    1d50:	00003e98 	muleq	r0, r8, lr
    1d54:	780c0000 	stmdavc	ip, {}	; <UNPREDICTABLE>
    1d58:	0d990300 	ldceq	3, cr0, [r9]
    1d5c:	04000001 	streq	r0, [r0], #-1
    1d60:	0300790c 	movweq	r7, #2316	; 0x90c
    1d64:	00010d99 	muleq	r1, r9, sp
    1d68:	6e0c0800 	cdpvs	8, 0, cr0, cr12, cr0, {0}
    1d6c:	9a030074 	bls	c1f44 <__bss_end__+0x96fd8>
    1d70:	00000179 	andeq	r0, r0, r9, ror r1
    1d74:	056b0d0c 	strbeq	r0, [fp, #-3340]!	; 0xfffff2f4
    1d78:	9b030000 	blls	c1d80 <__bss_end__+0x96e14>
    1d7c:	00000102 	andeq	r0, r0, r2, lsl #2
    1d80:	05950d10 	ldreq	r0, [r5, #3344]	; 0xd10
    1d84:	9c030000 	stcls	0, cr0, [r3], {-0}
    1d88:	0000022c 	andeq	r0, r0, ip, lsr #4
    1d8c:	64690c14 	strbtvs	r0, [r9], #-3092	; 0xfffff3ec
    1d90:	9d030073 	stcls	0, cr0, [r3, #-460]	; 0xfffffe34
    1d94:	0000023c 	andeq	r0, r0, ip, lsr r2
    1d98:	04110044 	ldreq	r0, [r1], #-68	; 0xffffffbc
    1d9c:	000001c0 	andeq	r0, r0, r0, asr #3
    1da0:	00018412 	andeq	r8, r1, r2, lsl r4
    1da4:	00023c00 	andeq	r3, r2, r0, lsl #24
    1da8:	00cf1300 	sbceq	r1, pc, r0, lsl #6
    1dac:	00030000 	andeq	r0, r3, r0
    1db0:	00003e12 	andeq	r3, r0, r2, lsl lr
    1db4:	00024c00 	andeq	r4, r2, r0, lsl #24
    1db8:	00cf1300 	sbceq	r1, pc, r0, lsl #6
    1dbc:	00030000 	andeq	r0, r3, r0
    1dc0:	00051e0b 	andeq	r1, r5, fp, lsl #28
    1dc4:	ab030800 	blge	c3dcc <__bss_end__+0x98e60>
    1dc8:	0000026d 	andeq	r0, r0, sp, ror #4
    1dcc:	0300780c 	movweq	r7, #2060	; 0x80c
    1dd0:	00010dac 	andeq	r0, r1, ip, lsr #27
    1dd4:	790c0000 	stmdbvc	ip, {}	; <UNPREDICTABLE>
    1dd8:	0dac0300 	stceq	3, cr0, [ip]
    1ddc:	04000001 	streq	r0, [r0], #-1
    1de0:	051e0a00 	ldreq	r0, [lr, #-2560]	; 0xfffff600
    1de4:	ad030000 	stcge	0, cr0, [r3, #-0]
    1de8:	0000024c 	andeq	r0, r0, ip, asr #4
    1dec:	00093d0b 	andeq	r3, r9, fp, lsl #26
    1df0:	af031000 	svcge	0x00031000
    1df4:	0000029b 	muleq	r0, fp, r2
    1df8:	0031700c 	eorseq	r7, r1, ip
    1dfc:	026db003 	rsbeq	fp, sp, #3
    1e00:	0c000000 	stceq	0, cr0, [r0], {-0}
    1e04:	03003270 	movweq	r3, #624	; 0x270
    1e08:	00026db0 			; <UNDEFINED> instruction: 0x00026db0
    1e0c:	0a000800 	beq	3e14 <shift+0x3e14>
    1e10:	0000093d 	andeq	r0, r0, sp, lsr r9
    1e14:	0278b103 	rsbseq	fp, r8, #-1073741824	; 0xc0000000
    1e18:	04140000 	ldreq	r0, [r4], #-0
    1e1c:	02df1004 	sbcseq	r1, pc, #4
    1e20:	a30d0000 	movwge	r0, #53248	; 0xd000
    1e24:	04000006 	streq	r0, [r0], #-6
    1e28:	0000f711 	andeq	pc, r0, r1, lsl r7	; <UNPREDICTABLE>
    1e2c:	f20d0000 	vhadd.s8	d0, d13, d0
    1e30:	04000005 	streq	r0, [r0], #-5
    1e34:	0000f712 	andeq	pc, r0, r2, lsl r7	; <UNPREDICTABLE>
    1e38:	5d0d0100 	stfpls	f0, [sp, #-0]
    1e3c:	04000006 	streq	r0, [r0], #-6
    1e40:	0000f713 	andeq	pc, r0, r3, lsl r7	; <UNPREDICTABLE>
    1e44:	5d0d0200 	sfmpl	f0, 4, [sp, #-0]
    1e48:	04000005 	streq	r0, [r0], #-5
    1e4c:	0000f714 	andeq	pc, r0, r4, lsl r7	; <UNPREDICTABLE>
    1e50:	0a000300 	beq	2a58 <shift+0x2a58>
    1e54:	0000054f 	andeq	r0, r0, pc, asr #10
    1e58:	02a61504 	adceq	r1, r6, #4, 10	; 0x1000000
    1e5c:	15150000 	ldrne	r0, [r5, #-0]
    1e60:	01000009 	tsteq	r0, r9
    1e64:	010d013a 	tsteq	sp, sl, lsr r1
    1e68:	4b540000 	blmi	1501e70 <__bss_end__+0x14d6f04>
    1e6c:	01300001 	teqeq	r0, r1
    1e70:	9c010000 	stcls	0, cr0, [r1], {-0}
    1e74:	00000322 	andeq	r0, r0, r2, lsr #6
    1e78:	00316e16 	eorseq	r6, r1, r6, lsl lr
    1e7c:	c0013a01 	andgt	r3, r1, r1, lsl #20
    1e80:	02000001 	andeq	r0, r0, #1
    1e84:	6e167091 	mrcvs	0, 0, r7, cr6, cr1, {4}
    1e88:	3a010032 	bcc	41f58 <__bss_end__+0x16fec>
    1e8c:	0001c001 	andeq	ip, r1, r1
    1e90:	c4910300 	ldrgt	r0, [r1], #768	; 0x300
    1e94:	9c170000 	ldcls	0, cr0, [r7], {-0}
    1e98:	01000009 	tsteq	r0, r9
    1e9c:	026d012f 	rsbeq	r0, sp, #-1073741813	; 0xc000000b
    1ea0:	4af40000 	bmi	ffd01ea8 <__bss_end__+0xffcd6f3c>
    1ea4:	00600001 	rsbeq	r0, r0, r1
    1ea8:	9c010000 	stcls	0, cr0, [r1], {-0}
    1eac:	00000357 	andeq	r0, r0, r7, asr r3
    1eb0:	01006e16 	tsteq	r0, r6, lsl lr
    1eb4:	01c0012f 	biceq	r0, r0, pc, lsr #2
    1eb8:	91020000 	mrsls	r0, (UNDEF: 2)
    1ebc:	00701870 	rsbseq	r1, r0, r0, ror r8
    1ec0:	6d013001 	stcvs	0, cr3, [r1, #-4]
    1ec4:	02000002 	andeq	r0, r0, #2
    1ec8:	15005891 	strne	r5, [r0, #-2193]	; 0xfffff76f
    1ecc:	000009f1 	strdeq	r0, [r0], -r1
    1ed0:	f7012201 			; <UNDEFINED> instruction: 0xf7012201
    1ed4:	d4000000 	strle	r0, [r0], #-0
    1ed8:	20000149 	andcs	r0, r0, r9, asr #2
    1edc:	01000001 	tsteq	r0, r1
    1ee0:	00039b9c 	muleq	r3, ip, fp
    1ee4:	00411600 	subeq	r1, r1, r0, lsl #12
    1ee8:	45012201 	strmi	r2, [r1, #-513]	; 0xfffffdff
    1eec:	02000001 	andeq	r0, r0, #1
    1ef0:	42164c91 	andsmi	r4, r6, #37120	; 0x9100
    1ef4:	01220100 			; <UNDEFINED> instruction: 0x01220100
    1ef8:	000001c0 	andeq	r0, r0, r0, asr #3
    1efc:	19709102 	ldmdbne	r0!, {r1, r8, ip, pc}^
    1f00:	00000950 	andeq	r0, r0, r0, asr r9
    1f04:	0d012301 	stceq	3, cr2, [r1, #-4]
    1f08:	02000001 	andeq	r0, r0, #1
    1f0c:	15005c91 	strne	r5, [r0, #-3217]	; 0xfffff36f
    1f10:	000009d7 	ldrdeq	r0, [r0], -r7
    1f14:	45011701 	strmi	r1, [r1, #-1793]	; 0xfffff8ff
    1f18:	2c000001 	stccs	0, cr0, [r0], {1}
    1f1c:	a8000148 	stmdage	r0, {r3, r6, r8}
    1f20:	01000001 	tsteq	r0, r1
    1f24:	00040c9c 	muleq	r4, ip, ip
    1f28:	00411600 	subeq	r1, r1, r0, lsl #12
    1f2c:	6d011701 	stcvs	7, cr1, [r1, #-4]
    1f30:	03000002 	movweq	r0, #2
    1f34:	167fb091 			; <UNDEFINED> instruction: 0x167fb091
    1f38:	17010042 	strne	r0, [r1, -r2, asr #32]
    1f3c:	0001c001 	andeq	ip, r1, r1
    1f40:	70910200 	addsvc	r0, r1, r0, lsl #4
    1f44:	0006011a 	andeq	r0, r6, sl, lsl r1
    1f48:	01170100 	tsteq	r7, r0, lsl #2
    1f4c:	0000010d 	andeq	r0, r0, sp, lsl #2
    1f50:	7fac9103 	svcvc	0x00ac9103
    1f54:	00424118 	subeq	r4, r2, r8, lsl r1
    1f58:	0d011801 	stceq	8, cr1, [r1, #-4]
    1f5c:	02000001 	andeq	r0, r0, #1
    1f60:	1d195491 	cfldrsne	mvf5, [r9, #-580]	; 0xfffffdbc
    1f64:	01000009 	tsteq	r0, r9
    1f68:	010d0119 	tsteq	sp, r9, lsl r1
    1f6c:	91020000 	mrsls	r0, (UNDEF: 2)
    1f70:	00431850 	subeq	r1, r3, r0, asr r8
    1f74:	45011a01 	strmi	r1, [r1, #-2561]	; 0xfffff5ff
    1f78:	03000001 	movweq	r0, #1
    1f7c:	007fb891 			; <UNDEFINED> instruction: 0x007fb891
    1f80:	00092d1b 	andeq	r2, r9, fp, lsl sp
    1f84:	01080100 	mrseq	r0, (UNDEF: 24)
    1f88:	000144c8 	andeq	r4, r1, r8, asr #9
    1f8c:	00000364 	andeq	r0, r0, r4, ror #6
    1f90:	04a89c01 	strteq	r9, [r8], #3073	; 0xc01
    1f94:	6e160000 	cdpvs	0, 1, cr0, cr6, cr0, {0}
    1f98:	08010031 	stmdaeq	r1, {r0, r4, r5}
    1f9c:	0001c001 	andeq	ip, r1, r1
    1fa0:	70910200 	addsvc	r0, r1, r0, lsl #4
    1fa4:	01006e16 	tsteq	r0, r6, lsl lr
    1fa8:	01c00108 	biceq	r0, r0, r8, lsl #2
    1fac:	91030000 	mrsls	r0, (UNDEF: 3)
    1fb0:	6e1600c4 	cdpvs	0, 1, cr0, cr6, cr4, {6}
    1fb4:	08010032 	stmdaeq	r1, {r1, r4, r5}
    1fb8:	0001c001 	andeq	ip, r1, r1
    1fbc:	98910300 	ldmls	r1, {r8, r9}
    1fc0:	00641601 	rsbeq	r1, r4, r1, lsl #12
    1fc4:	0d010801 	stceq	8, cr0, [r1, #-4]
    1fc8:	02000001 	andeq	r0, r0, #1
    1fcc:	211a4491 			; <UNDEFINED> instruction: 0x211a4491
    1fd0:	01000003 	tsteq	r0, r3
    1fd4:	04a80108 	strteq	r0, [r8], #264	; 0x108
    1fd8:	91030000 	mrsls	r0, (UNDEF: 3)
    1fdc:	e91a01ec 	ldmdb	sl, {r2, r3, r5, r6, r7, r8}
    1fe0:	01000000 	mrseq	r0, (UNDEF: 0)
    1fe4:	04a80108 	strteq	r0, [r8], #264	; 0x108
    1fe8:	91030000 	mrsls	r0, (UNDEF: 3)
    1fec:	051901f0 	ldreq	r0, [r9, #-496]	; 0xfffffe10
    1ff0:	01000009 	tsteq	r0, r9
    1ff4:	010d0109 	tsteq	sp, r9, lsl #2
    1ff8:	91020000 	mrsls	r0, (UNDEF: 2)
    1ffc:	090d1954 	stmdbeq	sp, {r2, r4, r6, r8, fp, ip}
    2000:	0a010000 	beq	42008 <__bss_end__+0x1709c>
    2004:	00010d01 	andeq	r0, r1, r1, lsl #26
    2008:	50910200 	addspl	r0, r1, r0, lsl #4
    200c:	00091d19 	andeq	r1, r9, r9, lsl sp
    2010:	010b0100 	mrseq	r0, (UNDEF: 27)
    2014:	0000010d 	andeq	r0, r0, sp, lsl #2
    2018:	004c9102 	subeq	r9, ip, r2, lsl #2
    201c:	026d0411 	rsbeq	r0, sp, #285212672	; 0x11000000
    2020:	281c0000 	ldmdacs	ip, {}	; <UNPREDICTABLE>
    2024:	01000009 	tsteq	r0, r9
    2028:	0142ecf9 	strdeq	lr, [r2, #-201]	; 0xffffff37
    202c:	0001dc00 	andeq	sp, r1, r0, lsl #24
    2030:	179c0100 	ldrne	r0, [ip, r0, lsl #2]
    2034:	1d000005 	stcne	0, cr0, [r0, #-20]	; 0xffffffec
    2038:	0100316e 	tsteq	r0, lr, ror #2
    203c:	0001c0f9 	strdeq	ip, [r1], -r9
    2040:	70910200 	addsvc	r0, r1, r0, lsl #4
    2044:	00326e1d 	eorseq	r6, r2, sp, lsl lr
    2048:	01c0f901 	biceq	pc, r0, r1, lsl #18
    204c:	91030000 	mrsls	r0, (UNDEF: 3)
    2050:	641d00c4 	ldrvs	r0, [sp], #-196	; 0xffffff3c
    2054:	0df90100 	ldfeqe	f0, [r9]
    2058:	02000001 	andeq	r0, r0, #1
    205c:	211e4c91 			; <UNDEFINED> instruction: 0x211e4c91
    2060:	01000003 	tsteq	r0, r3
    2064:	0004a8f9 	strdeq	sl, [r4], -r9
    2068:	98910300 	ldmls	r1, {r8, r9}
    206c:	00e91e01 	rsceq	r1, r9, r1, lsl #28
    2070:	f9010000 			; <UNDEFINED> instruction: 0xf9010000
    2074:	000004a8 	andeq	r0, r0, r8, lsr #9
    2078:	019c9103 	orrseq	r9, ip, r3, lsl #2
    207c:	00091d1f 	andeq	r1, r9, pc, lsl sp
    2080:	0dfa0100 	ldfeqe	f0, [sl]
    2084:	02000001 	andeq	r0, r0, #1
    2088:	20005491 	mulcs	r0, r1, r4
    208c:	00000967 	andeq	r0, r0, r7, ror #18
    2090:	00f7e801 	rscseq	lr, r7, r1, lsl #16
    2094:	42540000 	subsmi	r0, r4, #0
    2098:	00980001 	addseq	r0, r8, r1
    209c:	9c010000 	stcls	0, cr0, [r1], {-0}
    20a0:	00000591 	muleq	r0, r1, r5
    20a4:	6665721d 			; <UNDEFINED> instruction: 0x6665721d
    20a8:	6de80100 	stfvse	f0, [r8]
    20ac:	02000002 	andeq	r0, r0, #2
    20b0:	951e6891 	ldrls	r6, [lr, #-2193]	; 0xfffff76f
    20b4:	01000009 	tsteq	r0, r9
    20b8:	000145e8 	andeq	r4, r1, r8, ror #11
    20bc:	5c910200 	lfmpl	f0, 4, [r1], {0}
    20c0:	0009371e 	andeq	r3, r9, lr, lsl r7
    20c4:	3ee80100 	cdpcc	1, 14, cr0, cr8, cr0, {0}
    20c8:	02000000 	andeq	r0, r0, #0
    20cc:	611e5891 			; <UNDEFINED> instruction: 0x611e5891
    20d0:	01000009 	tsteq	r0, r9
    20d4:	00003ee8 	andeq	r3, r0, r8, ror #29
    20d8:	54910200 	ldrpl	r0, [r1], #512	; 0x200
    20dc:	0005bf1e 	andeq	fp, r5, lr, lsl pc
    20e0:	a8e80100 	stmiage	r8!, {r8}^
    20e4:	02000004 	andeq	r0, r0, #4
    20e8:	751e5091 	ldrvc	r5, [lr, #-145]	; 0xffffff6f
    20ec:	01000005 	tsteq	r0, r5
    20f0:	0004a8e8 	andeq	sl, r4, r8, ror #17
    20f4:	4c910200 	lfmmi	f0, 4, [r1], {0}
    20f8:	01007021 	tsteq	r0, r1, lsr #32
    20fc:	00026de9 	andeq	r6, r2, r9, ror #27
    2100:	70910200 	addsvc	r0, r1, r0, lsl #4
    2104:	097d2000 	ldmdbeq	sp!, {sp}^
    2108:	d9010000 	stmdble	r1, {}	; <UNPREDICTABLE>
    210c:	000000f7 	strdeq	r0, [r0], -r7
    2110:	00014010 	andeq	r4, r1, r0, lsl r0
    2114:	00000244 	andeq	r0, r0, r4, asr #4
    2118:	06299c01 	strteq	r9, [r9], -r1, lsl #24
    211c:	721d0000 	andsvc	r0, sp, #0
    2120:	01006665 	tsteq	r0, r5, ror #12
    2124:	00026dd9 	ldrdeq	r6, [r2], -r9
    2128:	48910200 	ldmmi	r1, {r9}
    212c:	0100701d 	tsteq	r0, sp, lsl r0
    2130:	00026dd9 	ldrdeq	r6, [r2], -r9
    2134:	40910200 	addsmi	r0, r1, r0, lsl #4
    2138:	0009371e 	andeq	r3, r9, lr, lsl r7
    213c:	3ed90100 	cdpcc	1, 13, cr0, cr9, cr0, {0}
    2140:	03000000 	movweq	r0, #0
    2144:	1e7fbc91 	mrcne	12, 3, fp, cr15, cr1, {4}
    2148:	00000961 	andeq	r0, r0, r1, ror #18
    214c:	003ed901 	eorseq	sp, lr, r1, lsl #18
    2150:	91030000 	mrsls	r0, (UNDEF: 3)
    2154:	bf1e7fb8 	svclt	0x001e7fb8
    2158:	01000005 	tsteq	r0, r5
    215c:	0004a8d9 	ldrdeq	sl, [r4], -r9
    2160:	b4910300 	ldrlt	r0, [r1], #768	; 0x300
    2164:	05751e7f 	ldrbeq	r1, [r5, #-3711]!	; 0xfffff181
    2168:	d9010000 	stmdble	r1, {}	; <UNPREDICTABLE>
    216c:	000004a8 	andeq	r0, r0, r8, lsr #9
    2170:	7fb09103 	svcvc	0x00b09103
    2174:	0008fc1f 	andeq	pc, r8, pc, lsl ip	; <UNPREDICTABLE>
    2178:	9bda0100 	blls	ff682580 <__bss_end__+0xff657614>
    217c:	02000002 	andeq	r0, r0, #2
    2180:	221f6491 	andscs	r6, pc, #-1862270976	; 0x91000000
    2184:	01000006 	tsteq	r0, r6
    2188:	00029bda 	ldrdeq	r9, [r2], -sl
    218c:	54910200 	ldrpl	r0, [r1], #512	; 0x200
    2190:	01006921 	tsteq	r0, r1, lsr #18
    2194:	00003edc 	ldrdeq	r3, [r0], -ip
    2198:	74910200 	ldrvc	r0, [r1], #512	; 0x200
    219c:	09c61c00 	stmibeq	r6, {sl, fp, ip}^
    21a0:	7c010000 	stcvc	0, cr0, [r1], {-0}
    21a4:	00013aec 	andeq	r3, r1, ip, ror #21
    21a8:	00000524 	andeq	r0, r0, r4, lsr #10
    21ac:	06dd9c01 	ldrbeq	r9, [sp], r1, lsl #24
    21b0:	411d0000 	tstmi	sp, r0
    21b4:	7c010042 	stcvc	0, cr0, [r1], {66}	; 0x42
    21b8:	0000029b 	muleq	r0, fp, r2
    21bc:	7fb89103 	svcvc	0x00b89103
    21c0:	0044431d 	subeq	r4, r4, sp, lsl r3
    21c4:	029b7c01 	addseq	r7, fp, #256	; 0x100
    21c8:	91030000 	mrsls	r0, (UNDEF: 3)
    21cc:	eb1e7fa8 	bl	7a2074 <__bss_end__+0x777108>
    21d0:	01000009 	tsteq	r0, r9
    21d4:	0004a87c 	andeq	sl, r4, ip, ror r8
    21d8:	a4910300 	ldrge	r0, [r1], #768	; 0x300
    21dc:	05da1e7f 	ldrbeq	r1, [sl, #3711]	; 0xe7f
    21e0:	7c010000 	stcvc	0, cr0, [r1], {-0}
    21e4:	000006dd 	ldrdeq	r0, [r0], -sp
    21e8:	7fa09103 	svcvc	0x00a09103
    21ec:	01004121 	tsteq	r0, r1, lsr #2
    21f0:	00026d7d 	andeq	r6, r2, sp, ror sp
    21f4:	60910200 	addsvs	r0, r1, r0, lsl #4
    21f8:	01004221 	tsteq	r0, r1, lsr #4
    21fc:	00026d7e 	andeq	r6, r2, lr, ror sp
    2200:	58910200 	ldmpl	r1, {r9}
    2204:	01004321 	tsteq	r0, r1, lsr #6
    2208:	00026d7f 	andeq	r6, r2, pc, ror sp
    220c:	50910200 	addspl	r0, r1, r0, lsl #4
    2210:	01004421 	tsteq	r0, r1, lsr #8
    2214:	00026d80 	andeq	r6, r2, r0, lsl #27
    2218:	48910200 	ldmmi	r1, {r9}
    221c:	01007221 	tsteq	r0, r1, lsr #4
    2220:	00002581 	andeq	r2, r0, r1, lsl #11
    2224:	6c910200 	lfmvs	f0, 4, [r1], {0}
    2228:	01007321 	tsteq	r0, r1, lsr #6
    222c:	00002581 	andeq	r2, r0, r1, lsl #11
    2230:	68910200 	ldmvs	r1, {r9}
    2234:	6d756e21 	ldclvs	14, cr6, [r5, #-132]!	; 0xffffff7c
    2238:	25810100 	strcs	r0, [r1, #256]	; 0x100
    223c:	02000000 	andeq	r0, r0, #0
    2240:	041f7491 	ldreq	r7, [pc], #-1169	; 2248 <shift+0x2248>
    2244:	0100000a 	tsteq	r0, sl
    2248:	00002581 	andeq	r2, r0, r1, lsl #11
    224c:	70910200 	addsvc	r0, r1, r0, lsl #4
    2250:	df041100 	svcle	0x00041100
    2254:	20000002 	andcs	r0, r0, r2
    2258:	00000945 	andeq	r0, r0, r5, asr #18
    225c:	00f72e01 	rscseq	r2, r7, r1, lsl #28
    2260:	37340000 	ldrcc	r0, [r4, -r0]!
    2264:	03b80001 			; <UNDEFINED> instruction: 0x03b80001
    2268:	9c010000 	stcls	0, cr0, [r1], {-0}
    226c:	0000078b 	andeq	r0, r0, fp, lsl #15
    2270:	0042411d 	subeq	r4, r2, sp, lsl r1
    2274:	029b2e01 	addseq	r2, fp, #1, 28
    2278:	91030000 	mrsls	r0, (UNDEF: 3)
    227c:	431d7fb0 	tstmi	sp, #176, 30	; 0x2c0
    2280:	2e010044 	cdpcs	0, 0, cr0, cr1, cr4, {2}
    2284:	0000029b 	muleq	r0, fp, r2
    2288:	7fa09103 	svcvc	0x00a09103
    228c:	0005da1f 	andeq	sp, r5, pc, lsl sl
    2290:	df2f0100 	svcle	0x002f0100
    2294:	02000002 	andeq	r0, r0, #2
    2298:	41216491 			; <UNDEFINED> instruction: 0x41216491
    229c:	6d300100 	ldfvss	f0, [r0, #-0]
    22a0:	02000002 	andeq	r0, r0, #2
    22a4:	42215c91 	eormi	r5, r1, #37120	; 0x9100
    22a8:	6d310100 	ldfvss	f0, [r1, #-0]
    22ac:	02000002 	andeq	r0, r0, #2
    22b0:	43215491 			; <UNDEFINED> instruction: 0x43215491
    22b4:	6d320100 	ldfvss	f0, [r2, #-0]
    22b8:	02000002 	andeq	r0, r0, #2
    22bc:	44214c91 	strtmi	r4, [r1], #-3217	; 0xfffff36f
    22c0:	6d330100 	ldfvss	f0, [r3, #-0]
    22c4:	02000002 	andeq	r0, r0, #2
    22c8:	72214491 	eorvc	r4, r1, #-1862270976	; 0x91000000
    22cc:	25340100 	ldrcs	r0, [r4, #-256]!	; 0xffffff00
    22d0:	02000000 	andeq	r0, r0, #0
    22d4:	73216c91 			; <UNDEFINED> instruction: 0x73216c91
    22d8:	25340100 	ldrcs	r0, [r4, #-256]!	; 0xffffff00
    22dc:	02000000 	andeq	r0, r0, #0
    22e0:	6e216891 	mcrvs	8, 1, r6, cr1, cr1, {4}
    22e4:	01006d75 	tsteq	r0, r5, ror sp
    22e8:	00002534 	andeq	r2, r0, r4, lsr r5
    22ec:	74910200 	ldrvc	r0, [r1], #512	; 0x200
    22f0:	000a041f 	andeq	r0, sl, pc, lsl r4
    22f4:	25340100 	ldrcs	r0, [r4, #-256]!	; 0xffffff00
    22f8:	02000000 	andeq	r0, r0, #0
    22fc:	22007091 	andcs	r7, r0, #145	; 0x91
    2300:	000009b4 			; <UNDEFINED> instruction: 0x000009b4
    2304:	00f72001 	rscseq	r2, r7, r1
    2308:	36600000 	strbtcc	r0, [r0], -r0
    230c:	00d40001 	sbcseq	r0, r4, r1
    2310:	9c010000 	stcls	0, cr0, [r1], {-0}
    2314:	000007dd 	ldrdeq	r0, [r0], -sp
    2318:	0009231e 	andeq	r2, r9, lr, lsl r3
    231c:	25200100 	strcs	r0, [r0, #-256]!	; 0xffffff00
    2320:	02000000 	andeq	r0, r0, #0
    2324:	0a1e7491 	beq	79f570 <__bss_end__+0x774604>
    2328:	0100000a 	tsteq	r0, sl
    232c:	00002520 	andeq	r2, r0, r0, lsr #10
    2330:	70910200 	addsvc	r0, r1, r0, lsl #4
    2334:	0009bf1e 	andeq	fp, r9, lr, lsl pc
    2338:	25200100 	strcs	r0, [r0, #-256]!	; 0xffffff00
    233c:	02000000 	andeq	r0, r0, #0
    2340:	ad1e6c91 	ldcge	12, cr6, [lr, #-580]	; 0xfffffdbc
    2344:	01000005 	tsteq	r0, r5
    2348:	00002520 	andeq	r2, r0, r0, lsr #10
    234c:	68910200 	ldmvs	r1, {r9}
    2350:	09592300 	ldmdbeq	r9, {r8, r9, sp}^
    2354:	15010000 	strne	r0, [r1, #-0]
    2358:	0000029b 	muleq	r0, fp, r2
    235c:	000135c8 	andeq	r3, r1, r8, asr #11
    2360:	00000098 	muleq	r0, r8, r0
    2364:	411d9c01 	tstmi	sp, r1, lsl #24
    2368:	6d150100 	ldfvss	f0, [r5, #-0]
    236c:	02000002 	andeq	r0, r0, #2
    2370:	421d5091 	andsmi	r5, sp, #145	; 0x91
    2374:	6d150100 	ldfvss	f0, [r5, #-0]
    2378:	02000002 	andeq	r0, r0, #2
    237c:	73214891 			; <UNDEFINED> instruction: 0x73214891
    2380:	9b160100 	blls	582788 <__bss_end__+0x55781c>
    2384:	02000002 	andeq	r0, r0, #2
    2388:	00005891 	muleq	r0, r1, r8
    238c:	0000051b 	andeq	r0, r0, fp, lsl r5
    2390:	08c70004 	stmiaeq	r7, {r2}^
    2394:	01040000 	mrseq	r0, (UNDEF: 4)
    2398:	00000169 	andeq	r0, r0, r9, ror #2
    239c:	000a8b0c 	andeq	r8, sl, ip, lsl #22
    23a0:	00032c00 	andeq	r2, r3, r0, lsl #24
    23a4:	014c8800 	cmpeq	ip, r0, lsl #16
    23a8:	0002e400 	andeq	lr, r2, r0, lsl #8
    23ac:	00099a00 	andeq	r9, r9, r0, lsl #20
    23b0:	06010200 	streq	r0, [r1], -r0, lsl #4
    23b4:	000003bf 			; <UNDEFINED> instruction: 0x000003bf
    23b8:	07050202 	streq	r0, [r5, -r2, lsl #4]
    23bc:	03000003 	movweq	r0, #3
    23c0:	6e690504 	cdpvs	5, 6, cr0, cr9, cr4, {0}
    23c4:	08020074 	stmdaeq	r2, {r2, r4, r5, r6}
    23c8:	00023d05 	andeq	r3, r2, r5, lsl #26
    23cc:	08010200 	stmdaeq	r1, {r9}
    23d0:	000003bd 			; <UNDEFINED> instruction: 0x000003bd
    23d4:	ff070202 			; <UNDEFINED> instruction: 0xff070202
    23d8:	02000003 	andeq	r0, r0, #3
    23dc:	00f90704 	rscseq	r0, r9, r4, lsl #14
    23e0:	08020000 	stmdaeq	r2, {}	; <UNPREDICTABLE>
    23e4:	0000ef07 	andeq	lr, r0, r7, lsl #30
    23e8:	02e30400 	rsceq	r0, r3, #0, 8
    23ec:	58020000 	stmdapl	r2, {}	; <UNPREDICTABLE>
    23f0:	00000025 	andeq	r0, r0, r5, lsr #32
    23f4:	0001c304 	andeq	ip, r1, r4, lsl #6
    23f8:	735c0200 	cmpvc	ip, #0, 4
    23fc:	02000000 	andeq	r0, r0, #0
    2400:	02420504 	subeq	r0, r2, #4, 10	; 0x1000000
    2404:	04020000 	streq	r0, [r2], #-0
    2408:	0000f407 	andeq	pc, r0, r7, lsl #8
    240c:	020f0400 	andeq	r0, pc, #0, 8
    2410:	5e020000 	cdppl	0, 0, cr0, cr2, cr0, {0}
    2414:	0000008c 	andeq	r0, r0, ip, lsl #1
    2418:	d3040402 	movwle	r0, #17410	; 0x4402
    241c:	04000000 	streq	r0, [r0], #-0
    2420:	000002e9 	andeq	r0, r0, r9, ror #5
    2424:	009e5f02 	addseq	r5, lr, r2, lsl #30
    2428:	08020000 	stmdaeq	r2, {}	; <UNPREDICTABLE>
    242c:	00041704 	andeq	r1, r4, r4, lsl #14
    2430:	009e0500 	addseq	r0, lr, r0, lsl #10
    2434:	8f040000 	svchi	0x00040000
    2438:	03000000 	movweq	r0, #0
    243c:	00005d24 	andeq	r5, r0, r4, lsr #26
    2440:	01bd0400 			; <UNDEFINED> instruction: 0x01bd0400
    2444:	2a030000 	bcs	c244c <__bss_end__+0x974e0>
    2448:	00000068 	andeq	r0, r0, r8, rrx
    244c:	0002ca04 	andeq	ip, r2, r4, lsl #20
    2450:	812c0300 			; <UNDEFINED> instruction: 0x812c0300
    2454:	04000000 	streq	r0, [r0], #-0
    2458:	00000371 	andeq	r0, r0, r1, ror r3
    245c:	00932d03 	addseq	r2, r3, r3, lsl #26
    2460:	ca060000 	bgt	182468 <__bss_end__+0x1574fc>
    2464:	0c000001 	stceq	0, cr0, [r0], {1}
    2468:	01033603 	tsteq	r3, r3, lsl #12
    246c:	78070000 	stmdavc	r7, {}	; <UNPREDICTABLE>
    2470:	c0370300 	eorsgt	r0, r7, r0, lsl #6
    2474:	00000000 	andeq	r0, r0, r0
    2478:	03007907 	movweq	r7, #2311	; 0x907
    247c:	0000c038 	andeq	ip, r0, r8, lsr r0
    2480:	1d080400 	cfstrsne	mvf0, [r8, #-0]
    2484:	03000009 	movweq	r0, #9
    2488:	0000c039 	andeq	ip, r0, r9, lsr r0
    248c:	04000800 	streq	r0, [r0], #-2048	; 0xfffff800
    2490:	000001ca 	andeq	r0, r0, sl, asr #3
    2494:	00d63a03 	sbcseq	r3, r6, r3, lsl #20
    2498:	26060000 	strcs	r0, [r6], -r0
    249c:	18000003 	stmdane	r0, {r0, r1}
    24a0:	013b3c03 	teqeq	fp, r3, lsl #24
    24a4:	78070000 	stmdavc	r7, {}	; <UNPREDICTABLE>
    24a8:	cb3d0300 	blgt	f430b0 <__bss_end__+0xf18144>
    24ac:	00000000 	andeq	r0, r0, r0
    24b0:	03007907 	movweq	r7, #2311	; 0x907
    24b4:	0000cb3e 	andeq	ip, r0, lr, lsr fp
    24b8:	76070800 	strvc	r0, [r7], -r0, lsl #16
    24bc:	03006c61 	movweq	r6, #3169	; 0xc61
    24c0:	0000aa3f 	andeq	sl, r0, pc, lsr sl
    24c4:	04001000 	streq	r1, [r0], #-0
    24c8:	00000326 	andeq	r0, r0, r6, lsr #6
    24cc:	010e4003 	tsteq	lr, r3
    24d0:	b6060000 	strlt	r0, [r6], -r0
    24d4:	10000003 	andne	r0, r0, r3
    24d8:	016b4903 	cmneq	fp, r3, lsl #18
    24dc:	1d080000 	stcne	0, cr0, [r8, #-0]
    24e0:	03000009 	movweq	r0, #9
    24e4:	0000cb4a 	andeq	ip, r0, sl, asr #22
    24e8:	76070000 	strvc	r0, [r7], -r0
    24ec:	03006c61 	movweq	r6, #3169	; 0xc61
    24f0:	0000aa4b 	andeq	sl, r0, fp, asr #20
    24f4:	04000800 	streq	r0, [r0], #-2048	; 0xfffff800
    24f8:	000003b6 			; <UNDEFINED> instruction: 0x000003b6
    24fc:	01464c03 	cmpeq	r6, r3, lsl #24
    2500:	ac060000 	stcge	0, cr0, [r6], {-0}
    2504:	28000000 	stmdacs	r0, {}	; <UNPREDICTABLE>
    2508:	01d74e03 	bicseq	r4, r7, r3, lsl #28
    250c:	17080000 	strne	r0, [r8, -r0]
    2510:	03000002 	movweq	r0, #2
    2514:	00009e4f 	andeq	r9, r0, pc, asr #28
    2518:	e8080000 	stmda	r8, {}	; <UNPREDICTABLE>
    251c:	03000003 	movweq	r0, #3
    2520:	00009e50 	andeq	r9, r0, r0, asr lr
    2524:	11080800 	tstne	r8, r0, lsl #16
    2528:	03000003 	movweq	r0, #3
    252c:	0000c051 	andeq	ip, r0, r1, asr r0
    2530:	d9081000 	stmdble	r8, {ip}
    2534:	03000000 	movweq	r0, #0
    2538:	0000c052 	andeq	ip, r0, r2, asr r0
    253c:	39081400 	stmdbcc	r8, {sl, ip}
    2540:	03000000 	movweq	r0, #0
    2544:	0000b553 	andeq	fp, r0, r3, asr r5
    2548:	6f081800 	svcvs	0x00081800
    254c:	03000002 	movweq	r0, #2
    2550:	0000b554 	andeq	fp, r0, r4, asr r5
    2554:	76071c00 	strvc	r1, [r7], -r0, lsl #24
    2558:	03006c61 	movweq	r6, #3169	; 0xc61
    255c:	0000aa55 	andeq	sl, r0, r5, asr sl
    2560:	04002000 	streq	r2, [r0], #-0
    2564:	000000ac 	andeq	r0, r0, ip, lsr #1
    2568:	01765603 	cmneq	r6, r3, lsl #12
    256c:	ef060000 	svc	0x00060000
    2570:	0c000001 	stceq	0, cr0, [r0], {1}
    2574:	020f5e03 	andeq	r5, pc, #3, 28	; 0x30
    2578:	76070000 	strvc	r0, [r7], -r0
    257c:	c05f0300 	subsgt	r0, pc, r0, lsl #6
    2580:	00000000 	andeq	r0, r0, r0
    2584:	03007707 	movweq	r7, #1799	; 0x707
    2588:	0000c060 	andeq	ip, r0, r0, rrx
    258c:	76070400 	strvc	r0, [r7], -r0, lsl #8
    2590:	03006c61 	movweq	r6, #3169	; 0xc61
    2594:	0000aa61 	andeq	sl, r0, r1, ror #20
    2598:	04000800 	streq	r0, [r0], #-2048	; 0xfffff800
    259c:	000001ef 	andeq	r0, r0, pc, ror #3
    25a0:	01e26203 	mvneq	r6, r3, lsl #4
    25a4:	b9060000 	stmdblt	r6, {}	; <UNPREDICTABLE>
    25a8:	0c000000 	stceq	0, cr0, [r0], {-0}
    25ac:	02456603 	subeq	r6, r5, #3145728	; 0x300000
    25b0:	6c070000 	stcvs	0, cr0, [r7], {-0}
    25b4:	b5670300 	strblt	r0, [r7, #-768]!	; 0xfffffd00
    25b8:	00000000 	andeq	r0, r0, r0
    25bc:	03006307 	movweq	r6, #775	; 0x307
    25c0:	0000b568 	andeq	fp, r0, r8, ror #10
    25c4:	6d070400 	cfstrsvs	mvf0, [r7, #-0]
    25c8:	50690300 	rsbpl	r0, r9, r0, lsl #6
    25cc:	08000002 	stmdaeq	r0, {r1}
    25d0:	00cb0900 	sbceq	r0, fp, r0, lsl #18
    25d4:	02500000 	subseq	r0, r0, #0
    25d8:	000a0000 	andeq	r0, sl, r0
    25dc:	0245040b 	subeq	r0, r5, #184549376	; 0xb000000
    25e0:	b9040000 	stmdblt	r4, {}	; <UNPREDICTABLE>
    25e4:	03000000 	movweq	r0, #0
    25e8:	00021a6a 	andeq	r1, r2, sl, ror #20
    25ec:	02560500 	subseq	r0, r6, #0, 10
    25f0:	04020000 	streq	r0, [r2], #-0
    25f4:	00039807 	andeq	r9, r3, r7, lsl #16
    25f8:	02d20600 	sbcseq	r0, r2, #0, 12
    25fc:	04380000 	ldrteq	r0, [r8], #-0
    2600:	0002d80c 	andeq	sp, r2, ip, lsl #16
    2604:	00950800 	addseq	r0, r5, r0, lsl #16
    2608:	0d040000 	stceq	0, cr0, [r4, #-0]
    260c:	000000aa 	andeq	r0, r0, sl, lsr #1
    2610:	037a0800 	cmneq	sl, #0, 16
    2614:	0e040000 	cdpeq	0, 0, cr0, cr4, cr0, {0}
    2618:	0000020f 	andeq	r0, r0, pc, lsl #4
    261c:	013a0804 	teqeq	sl, r4, lsl #16
    2620:	0f040000 	svceq	0x00040000
    2624:	00000103 	andeq	r0, r0, r3, lsl #2
    2628:	028f0810 	addeq	r0, pc, #16, 16	; 0x100000
    262c:	10040000 	andne	r0, r4, r0
    2630:	00000103 	andeq	r0, r0, r3, lsl #2
    2634:	0070071c 	rsbseq	r0, r0, ip, lsl r7
    2638:	02d81104 	sbcseq	r1, r8, #4, 2
    263c:	08280000 	stmdaeq	r8!, {}	; <UNPREDICTABLE>
    2640:	000008c6 	andeq	r0, r0, r6, asr #17
    2644:	02de1204 	sbcseq	r1, lr, #4, 4	; 0x40000000
    2648:	072c0000 	streq	r0, [ip, -r0]!
    264c:	00737067 	rsbseq	r7, r3, r7, rrx
    2650:	02e41304 	rsceq	r1, r4, #4, 6	; 0x10000000
    2654:	08300000 	ldmdaeq	r0!, {}	; <UNPREDICTABLE>
    2658:	000008f3 	strdeq	r0, [r0], -r3
    265c:	02ea1404 	rsceq	r1, sl, #4, 8	; 0x4000000
    2660:	00340000 	eorseq	r0, r4, r0
    2664:	0103040b 	tsteq	r3, fp, lsl #8
    2668:	040b0000 	streq	r0, [fp], #-0
    266c:	0000016b 	andeq	r0, r0, fp, ror #2
    2670:	013b040b 	teqeq	fp, fp, lsl #8
    2674:	040b0000 	streq	r0, [fp], #-0
    2678:	000001d7 	ldrdeq	r0, [r0], -r7
    267c:	0002d204 	andeq	sp, r2, r4, lsl #4
    2680:	6d150400 	cfldrsvs	mvf0, [r5, #-0]
    2684:	0c000002 	stceq	0, cr0, [r0], {2}
    2688:	00000057 	andeq	r0, r0, r7, asr r0
    268c:	0033a805 	eorseq	sl, r3, r5, lsl #16
    2690:	040d0000 	streq	r0, [sp], #-0
    2694:	00000033 	andeq	r0, r0, r3, lsr r0
    2698:	32015c05 	andcc	r5, r1, #1280	; 0x500
    269c:	0e000003 	cdpeq	0, 0, cr0, cr0, cr3, {0}
    26a0:	00000156 	andeq	r0, r0, r6, asr r1
    26a4:	00b20f7f 	adcseq	r0, r2, pc, ror pc
    26a8:	0f000000 	svceq	0x00000000
    26ac:	00000439 	andeq	r0, r0, r9, lsr r4
    26b0:	004f0f01 	subeq	r0, pc, r1, lsl #30
    26b4:	0f020000 	svceq	0x00020000
    26b8:	00000106 	andeq	r0, r0, r6, lsl #2
    26bc:	6d100003 	ldcvs	0, cr0, [r0, #-12]
    26c0:	05000000 	streq	r0, [r0, #-0]
    26c4:	03060162 	movweq	r0, #24930	; 0x6162
    26c8:	02110000 	andseq	r0, r1, #0
    26cc:	05000002 	streq	r0, [r0, #-2]
    26d0:	03320167 	teqeq	r2, #-1073741799	; 0xc0000019
    26d4:	01020000 	mrseq	r0, (UNDEF: 2)
    26d8:	0003c608 	andeq	ip, r3, r8, lsl #12
    26dc:	0a740c00 	beq	1d056e4 <__bss_end__+0x1cda778>
    26e0:	2a060000 	bcs	1826e8 <__bss_end__+0x15777c>
    26e4:	00000261 	andeq	r0, r0, r1, ror #4
    26e8:	0f072812 	svceq	0x00072812
    26ec:	000003a1 	andeq	r0, r0, r1, lsr #7
    26f0:	64776c07 	ldrbtvs	r6, [r7], #-3079	; 0xfffff3f9
    26f4:	9e100700 	cdpls	7, 1, cr0, cr0, cr0, {0}
    26f8:	00000000 	andeq	r0, r0, r0
    26fc:	64777207 	ldrbtvs	r7, [r7], #-519	; 0xfffffdf9
    2700:	9e110700 	cdpls	7, 1, cr0, cr1, cr0, {0}
    2704:	08000000 	stmdaeq	r0, {}	; <UNPREDICTABLE>
    2708:	000a7e08 	andeq	r7, sl, r8, lsl #28
    270c:	9e120700 	cdpls	7, 1, cr0, cr2, cr0, {0}
    2710:	10000000 	andne	r0, r0, r0
    2714:	000aef08 	andeq	lr, sl, r8, lsl #30
    2718:	9e130700 	cdpls	7, 1, cr0, cr3, cr0, {0}
    271c:	18000000 	stmdane	r0, {}	; <UNPREDICTABLE>
    2720:	000a2108 	andeq	r2, sl, r8, lsl #2
    2724:	9e140700 	cdpls	7, 1, cr0, cr4, cr0, {0}
    2728:	20000000 	andcs	r0, r0, r0
    272c:	0ad60400 	beq	ff583734 <__bss_end__+0xff5587c8>
    2730:	15070000 	strne	r0, [r7, #-0]
    2734:	0000035c 	andeq	r0, r0, ip, asr r3
    2738:	0003a105 	andeq	sl, r3, r5, lsl #2
    273c:	0a6a0c00 	beq	1a85744 <__bss_end__+0x1a5a7d8>
    2740:	18070000 	stmdane	r7, {}	; <UNPREDICTABLE>
    2744:	000003ac 	andeq	r0, r0, ip, lsr #7
    2748:	0000a509 	andeq	sl, r0, r9, lsl #10
    274c:	0003d200 	andeq	sp, r3, r0, lsl #4
    2750:	02661300 	rsbeq	r1, r6, #0, 6
    2754:	13010000 	movwne	r0, #4096	; 0x1000
    2758:	00000266 	andeq	r0, r0, r6, ror #4
    275c:	bc050001 	stclt	0, cr0, [r5], {1}
    2760:	14000003 	strne	r0, [r0], #-3
    2764:	07007151 	smlsdeq	r0, r1, r1, r7
    2768:	0003d220 	andeq	sp, r3, r0, lsr #4
    276c:	00511400 	subseq	r1, r1, r0, lsl #8
    2770:	02612107 	rsbeq	r2, r1, #-1073741823	; 0xc0000001
    2774:	e90c0000 	stmdb	ip, {}	; <UNPREDICTABLE>
    2778:	0700000a 	streq	r0, [r0, -sl]
    277c:	0003d226 	andeq	sp, r3, r6, lsr #4
    2780:	0a6f0c00 	beq	1bc5788 <__bss_end__+0x1b9a81c>
    2784:	27070000 	strcs	r0, [r7, -r0]
    2788:	00000261 	andeq	r0, r0, r1, ror #4
    278c:	0000a509 	andeq	sl, r0, r9, lsl #10
    2790:	00041600 	andeq	r1, r4, r0, lsl #12
    2794:	02661300 	rsbeq	r1, r6, #0, 6
    2798:	13000000 	movwne	r0, #0
    279c:	00000266 	andeq	r0, r0, r6, ror #4
    27a0:	00050000 	andeq	r0, r5, r0
    27a4:	0c000004 	stceq	0, cr0, [r0], {4}
    27a8:	00000a39 	andeq	r0, r0, r9, lsr sl
    27ac:	04162907 	ldreq	r2, [r6], #-2311	; 0xfffff6f9
    27b0:	af0c0000 	svcge	0x000c0000
    27b4:	0700000a 	streq	r0, [r0, -sl]
    27b8:	0002612a 	andeq	r6, r2, sl, lsr #2
    27bc:	00a50900 	adceq	r0, r5, r0, lsl #18
    27c0:	04470000 	strbeq	r0, [r7], #-0
    27c4:	66130000 	ldrvs	r0, [r3], -r0
    27c8:	02000002 	andeq	r0, r0, #2
    27cc:	00026613 	andeq	r6, r2, r3, lsl r6
    27d0:	05000200 	streq	r0, [r0, #-512]	; 0xfffffe00
    27d4:	00000431 	andeq	r0, r0, r1, lsr r4
    27d8:	000a600c 	andeq	r6, sl, ip
    27dc:	472c0700 	strmi	r0, [ip, -r0, lsl #14]!
    27e0:	0c000004 	stceq	0, cr0, [r0], {4}
    27e4:	00000a30 	andeq	r0, r0, r0, lsr sl
    27e8:	02612d07 	rsbeq	r2, r1, #448	; 0x1c0
    27ec:	28120000 	ldmdacs	r2, {}	; <UNPREDICTABLE>
    27f0:	04a73507 	strteq	r3, [r7], #1287	; 0x507
    27f4:	40080000 	andmi	r0, r8, r0
    27f8:	0700000a 	streq	r0, [r0, -sl]
    27fc:	00009e36 	andeq	r9, r0, r6, lsr lr
    2800:	c8080000 	stmdagt	r8, {}	; <UNPREDICTABLE>
    2804:	0700000a 	streq	r0, [r0, -sl]
    2808:	00009e37 	andeq	r9, r0, r7, lsr lr
    280c:	fe080800 	vcmla.f16	d0, d8, d0[0], #0
    2810:	0700000a 	streq	r0, [r0, -sl]
    2814:	00009e38 	andeq	r9, r0, r8, lsr lr
    2818:	97081000 	strls	r1, [r8, -r0]
    281c:	0700000a 	streq	r0, [r0, -sl]
    2820:	00009e39 	andeq	r9, r0, r9, lsr lr
    2824:	b5081800 	strlt	r1, [r8, #-2048]	; 0xfffff800
    2828:	0700000a 	streq	r0, [r0, -sl]
    282c:	00009e3a 	andeq	r9, r0, sl, lsr lr
    2830:	04002000 	streq	r2, [r0], #-0
    2834:	00000a11 	andeq	r0, r0, r1, lsl sl
    2838:	04623b07 	strbteq	r3, [r2], #-2823	; 0xfffff4f9
    283c:	a7050000 	strge	r0, [r5, -r0]
    2840:	0c000004 	stceq	0, cr0, [r0], {4}
    2844:	00000aaa 	andeq	r0, r0, sl, lsr #21
    2848:	04b23d07 	ldrteq	r3, [r2], #3335	; 0xd07
    284c:	76150000 	ldrvc	r0, [r5], -r0
    2850:	9e0d0100 	adflse	f0, f5, f0
    2854:	05000000 	streq	r0, [r0, #-0]
    2858:	02af3803 	adceq	r3, pc, #196608	; 0x30000
    285c:	00771500 	rsbseq	r1, r7, r0, lsl #10
    2860:	009e0e01 	addseq	r0, lr, r1, lsl #28
    2864:	03050000 	movweq	r0, #20480	; 0x5000
    2868:	0002af40 	andeq	sl, r2, r0, asr #30
    286c:	000a4e16 	andeq	r4, sl, r6, lsl lr
    2870:	16180100 	ldrne	r0, [r8], -r0, lsl #2
    2874:	88000005 	stmdahi	r0, {r0, r2}
    2878:	e400014c 	str	r0, [r0], #-332	; 0xfffffeb4
    287c:	01000002 	tsteq	r0, r2
    2880:	0005169c 	muleq	r5, ip, r6
    2884:	0a841700 	beq	fe10848c <__bss_end__+0xfe0dd520>
    2888:	18010000 	stmdane	r1, {}	; <UNPREDICTABLE>
    288c:	00000516 	andeq	r0, r0, r6, lsl r5
    2890:	18549102 	ldmdane	r4, {r1, r8, ip, pc}^
    2894:	00000a86 	andeq	r0, r0, r6, lsl #21
    2898:	05181901 	ldreq	r1, [r8, #-2305]	; 0xfffff6ff
    289c:	91020000 	mrsls	r0, (UNDEF: 2)
    28a0:	0419005c 	ldreq	r0, [r9], #-92	; 0xffffffa4
    28a4:	02f0040b 	rscseq	r0, r0, #184549376	; 0xb000000
    28a8:	e8000000 	stmda	r0, {}	; <UNPREDICTABLE>
    28ac:	04000002 	streq	r0, [r0], #-2
    28b0:	000a1200 	andeq	r1, sl, r0, lsl #4
    28b4:	69010400 	stmdbvs	r1, {sl}
    28b8:	0c000001 	stceq	0, cr0, [r0], {1}
    28bc:	00000b10 	andeq	r0, r0, r0, lsl fp
    28c0:	0000032c 	andeq	r0, r0, ip, lsr #6
    28c4:	00000a95 	muleq	r0, r5, sl
    28c8:	bf060102 	svclt	0x00060102
    28cc:	02000003 	andeq	r0, r0, #3
    28d0:	03070502 	movweq	r0, #29954	; 0x7502
    28d4:	04030000 	streq	r0, [r3], #-0
    28d8:	746e6905 	strbtvc	r6, [lr], #-2309	; 0xfffff6fb
    28dc:	05080200 	streq	r0, [r8, #-512]	; 0xfffffe00
    28e0:	0000023d 	andeq	r0, r0, sp, lsr r2
    28e4:	bd080102 	stflts	f0, [r8, #-8]
    28e8:	02000003 	andeq	r0, r0, #3
    28ec:	03ff0702 	mvnseq	r0, #524288	; 0x80000
    28f0:	04020000 	streq	r0, [r2], #-0
    28f4:	0000f907 	andeq	pc, r0, r7, lsl #18
    28f8:	07080200 	streq	r0, [r8, -r0, lsl #4]
    28fc:	000000ef 	andeq	r0, r0, pc, ror #1
    2900:	0001c304 	andeq	ip, r1, r4, lsl #6
    2904:	602f0100 	eorvs	r0, pc, r0, lsl #2
    2908:	02000000 	andeq	r0, r0, #0
    290c:	02420504 	subeq	r0, r2, #4, 10	; 0x1000000
    2910:	04020000 	streq	r0, [r2], #-0
    2914:	0000f407 	andeq	pc, r0, r7, lsl #8
    2918:	04040200 	streq	r0, [r4], #-512	; 0xfffffe00
    291c:	000000d3 	ldrdeq	r0, [r0], -r3
    2920:	0002e904 	andeq	lr, r2, r4, lsl #18
    2924:	80320100 	eorshi	r0, r2, r0, lsl #2
    2928:	02000000 	andeq	r0, r0, #0
    292c:	04170408 	ldreq	r0, [r7], #-1032	; 0xfffffbf8
    2930:	80050000 	andhi	r0, r5, r0
    2934:	04000000 	streq	r0, [r0], #-0
    2938:	000001bd 			; <UNDEFINED> instruction: 0x000001bd
    293c:	00554401 	subseq	r4, r5, r1, lsl #8
    2940:	71040000 	mrsvc	r0, (UNDEF: 4)
    2944:	01000003 	tsteq	r0, r3
    2948:	00007547 	andeq	r7, r0, r7, asr #10
    294c:	00b90600 	adcseq	r0, r9, r0, lsl #12
    2950:	010c0000 	mrseq	r0, (UNDEF: 12)
    2954:	0000cd80 	andeq	ip, r0, r0, lsl #27
    2958:	006c0700 	rsbeq	r0, ip, r0, lsl #14
    295c:	008c8101 	addeq	r8, ip, r1, lsl #2
    2960:	07000000 	streq	r0, [r0, -r0]
    2964:	82010063 	andhi	r0, r1, #99	; 0x63
    2968:	0000008c 	andeq	r0, r0, ip, lsl #1
    296c:	006d0704 	rsbeq	r0, sp, r4, lsl #14
    2970:	00d88301 	sbcseq	r8, r8, r1, lsl #6
    2974:	00080000 	andeq	r0, r8, r0
    2978:	00009708 	andeq	r9, r0, r8, lsl #14
    297c:	0000d800 	andeq	sp, r0, r0, lsl #16
    2980:	0a000900 	beq	4d88 <shift+0x4d88>
    2984:	0000cd04 	andeq	ip, r0, r4, lsl #26
    2988:	00b90400 	adcseq	r0, r9, r0, lsl #8
    298c:	84010000 	strhi	r0, [r1], #-0
    2990:	000000a2 	andeq	r0, r0, r2, lsr #1
    2994:	0000de05 	andeq	sp, r0, r5, lsl #28
    2998:	07040200 	streq	r0, [r4, -r0, lsl #4]
    299c:	00000398 	muleq	r0, r8, r3
    29a0:	000a740b 	andeq	r7, sl, fp, lsl #8
    29a4:	e92a0300 	stmdb	sl!, {r8, r9}
    29a8:	0c000000 	stceq	0, cr0, [r0], {-0}
    29ac:	450f0228 	strmi	r0, [pc, #-552]	; 278c <shift+0x278c>
    29b0:	07000001 	streq	r0, [r0, -r1]
    29b4:	0064776c 	rsbeq	r7, r4, ip, ror #14
    29b8:	00801002 	addeq	r1, r0, r2
    29bc:	07000000 	streq	r0, [r0, -r0]
    29c0:	00647772 	rsbeq	r7, r4, r2, ror r7
    29c4:	00801102 	addeq	r1, r0, r2, lsl #2
    29c8:	0d080000 	stceq	0, cr0, [r8, #-0]
    29cc:	00000a7e 	andeq	r0, r0, lr, ror sl
    29d0:	00801202 	addeq	r1, r0, r2, lsl #4
    29d4:	0d100000 	ldceq	0, cr0, [r0, #-0]
    29d8:	00000aef 	andeq	r0, r0, pc, ror #21
    29dc:	00801302 	addeq	r1, r0, r2, lsl #6
    29e0:	0d180000 	ldceq	0, cr0, [r8, #-0]
    29e4:	00000a21 	andeq	r0, r0, r1, lsr #20
    29e8:	00801402 	addeq	r1, r0, r2, lsl #8
    29ec:	00200000 	eoreq	r0, r0, r0
    29f0:	000ad604 	andeq	sp, sl, r4, lsl #12
    29f4:	00150200 	andseq	r0, r5, r0, lsl #4
    29f8:	05000001 	streq	r0, [r0, #-1]
    29fc:	00000145 	andeq	r0, r0, r5, asr #2
    2a00:	000a6a0b 	andeq	r6, sl, fp, lsl #20
    2a04:	50180200 	andspl	r0, r8, r0, lsl #4
    2a08:	08000001 	stmdaeq	r0, {r0}
    2a0c:	00000087 	andeq	r0, r0, r7, lsl #1
    2a10:	00000176 	andeq	r0, r0, r6, ror r1
    2a14:	0000ee0e 	andeq	lr, r0, lr, lsl #28
    2a18:	ee0e0100 	adfe	f0, f6, f0
    2a1c:	01000000 	mrseq	r0, (UNDEF: 0)
    2a20:	01600500 	cmneq	r0, r0, lsl #10
    2a24:	510f0000 	mrspl	r0, CPSR
    2a28:	20020071 	andcs	r0, r2, r1, ror r0
    2a2c:	00000176 	andeq	r0, r0, r6, ror r1
    2a30:	0200510f 	andeq	r5, r0, #-1073741821	; 0xc0000003
    2a34:	0000e921 	andeq	lr, r0, r1, lsr #18
    2a38:	0ae90b00 	beq	ffa45640 <__bss_end__+0xffa1a6d4>
    2a3c:	26020000 	strcs	r0, [r2], -r0
    2a40:	00000176 	andeq	r0, r0, r6, ror r1
    2a44:	000a6f0b 	andeq	r6, sl, fp, lsl #30
    2a48:	e9270200 	stmdb	r7!, {r9}
    2a4c:	08000000 	stmdaeq	r0, {}	; <UNPREDICTABLE>
    2a50:	00000087 	andeq	r0, r0, r7, lsl #1
    2a54:	000001ba 			; <UNDEFINED> instruction: 0x000001ba
    2a58:	0000ee0e 	andeq	lr, r0, lr, lsl #28
    2a5c:	ee0e0000 	cdp	0, 0, cr0, cr14, cr0, {0}
    2a60:	00000000 	andeq	r0, r0, r0
    2a64:	01a40500 			; <UNDEFINED> instruction: 0x01a40500
    2a68:	390b0000 	stmdbcc	fp, {}	; <UNPREDICTABLE>
    2a6c:	0200000a 	andeq	r0, r0, #10
    2a70:	0001ba29 	andeq	fp, r1, r9, lsr #20
    2a74:	0aaf0b00 	beq	febc567c <__bss_end__+0xfeb9a710>
    2a78:	2a020000 	bcs	82a80 <__bss_end__+0x57b14>
    2a7c:	000000e9 	andeq	r0, r0, r9, ror #1
    2a80:	00008708 	andeq	r8, r0, r8, lsl #14
    2a84:	0001eb00 	andeq	lr, r1, r0, lsl #22
    2a88:	00ee0e00 	rsceq	r0, lr, r0, lsl #28
    2a8c:	0e020000 	cdpeq	0, 0, cr0, cr2, cr0, {0}
    2a90:	000000ee 	andeq	r0, r0, lr, ror #1
    2a94:	d5050002 	strle	r0, [r5, #-2]
    2a98:	0b000001 	bleq	2aa4 <shift+0x2aa4>
    2a9c:	00000a60 	andeq	r0, r0, r0, ror #20
    2aa0:	01eb2c02 	mvneq	r2, r2, lsl #24
    2aa4:	300b0000 	andcc	r0, fp, r0
    2aa8:	0200000a 	andeq	r0, r0, #10
    2aac:	0000e92d 	andeq	lr, r0, sp, lsr #18
    2ab0:	02280c00 	eoreq	r0, r8, #0, 24
    2ab4:	00024b35 	andeq	r4, r2, r5, lsr fp
    2ab8:	0a400d00 	beq	1005ec0 <__bss_end__+0xfdaf54>
    2abc:	36020000 	strcc	r0, [r2], -r0
    2ac0:	00000080 	andeq	r0, r0, r0, lsl #1
    2ac4:	0ac80d00 	beq	ff205ecc <__bss_end__+0xff1daf60>
    2ac8:	37020000 	strcc	r0, [r2, -r0]
    2acc:	00000080 	andeq	r0, r0, r0, lsl #1
    2ad0:	0afe0d08 	beq	fff85ef8 <__bss_end__+0xfff5af8c>
    2ad4:	38020000 	stmdacc	r2, {}	; <UNPREDICTABLE>
    2ad8:	00000080 	andeq	r0, r0, r0, lsl #1
    2adc:	0a970d10 	beq	fe5c5f24 <__bss_end__+0xfe59afb8>
    2ae0:	39020000 	stmdbcc	r2, {}	; <UNPREDICTABLE>
    2ae4:	00000080 	andeq	r0, r0, r0, lsl #1
    2ae8:	0ab50d18 	beq	fed45f50 <__bss_end__+0xfed1afe4>
    2aec:	3a020000 	bcc	82af4 <__bss_end__+0x57b88>
    2af0:	00000080 	andeq	r0, r0, r0, lsl #1
    2af4:	11040020 	tstne	r4, r0, lsr #32
    2af8:	0200000a 	andeq	r0, r0, #10
    2afc:	0002063b 	andeq	r0, r2, fp, lsr r6
    2b00:	024b0500 	subeq	r0, fp, #0, 10
    2b04:	aa0b0000 	bge	2c2b0c <__bss_end__+0x297ba0>
    2b08:	0200000a 	andeq	r0, r0, #10
    2b0c:	0002563d 	andeq	r5, r2, sp, lsr r6
    2b10:	01551000 	cmpeq	r5, r0
    2b14:	11040000 	mrsne	r0, (UNDEF: 4)
    2b18:	67880305 	strvs	r0, [r8, r5, lsl #6]
    2b1c:	51110001 	tstpl	r1, r1
    2b20:	3b040064 	blcc	102cb8 <__bss_end__+0xd7d4c>
    2b24:	00000176 	andeq	r0, r0, r6, ror r1
    2b28:	67b00305 	ldrvs	r0, [r0, r5, lsl #6]!
    2b2c:	85100001 	ldrhi	r0, [r0, #-1]
    2b30:	04000001 	streq	r0, [r0], #-1
    2b34:	d003053f 	andle	r0, r3, pc, lsr r5
    2b38:	10000167 	andne	r0, r0, r7, ror #2
    2b3c:	0000025b 	andeq	r0, r0, fp, asr r2
    2b40:	03054204 	movweq	r4, #20996	; 0x5204
    2b44:	000167e0 	andeq	r6, r1, r0, ror #15
    2b48:	00018e10 	andeq	r8, r1, r0, lsl lr
    2b4c:	054b0400 	strbeq	r0, [fp, #-1024]	; 0xfffffc00
    2b50:	01680803 	cmneq	r8, r3, lsl #16
    2b54:	01991000 	orrseq	r1, r9, r0
    2b58:	4f040000 	svcmi	0x00040000
    2b5c:	68280305 	stmdavs	r8!, {r0, r2, r8, r9}
    2b60:	bf100001 	svclt	0x00100001
    2b64:	04000001 	streq	r0, [r0], #-1
    2b68:	38030551 	stmdacc	r3, {r0, r4, r6, r8, sl}
    2b6c:	10000168 	andne	r0, r0, r8, ror #2
    2b70:	000001ca 	andeq	r0, r0, sl, asr #3
    2b74:	03055404 	movweq	r5, #21508	; 0x5404
    2b78:	00016840 	andeq	r6, r1, r0, asr #16
    2b7c:	0001f010 	andeq	pc, r1, r0, lsl r0	; <UNPREDICTABLE>
    2b80:	05570400 	ldrbeq	r0, [r7, #-1024]	; 0xfffffc00
    2b84:	01685003 	cmneq	r8, r3
    2b88:	01fb1000 	mvnseq	r1, r0
    2b8c:	5c040000 	stcpl	0, cr0, [r4], {-0}
    2b90:	68980305 	ldmvs	r8, {r0, r2, r8, r9}
    2b94:	c0000001 	andgt	r0, r0, r1
    2b98:	04000006 	streq	r0, [r0], #-6
    2b9c:	000ae600 	andeq	lr, sl, r0, lsl #12
    2ba0:	69010400 	stmdbvs	r1, {sl}
    2ba4:	0c000001 	stceq	0, cr0, [r0], {1}
    2ba8:	00000b91 	muleq	r0, r1, fp
    2bac:	0000032c 	andeq	r0, r0, ip, lsr #6
    2bb0:	00014f70 	andeq	r4, r1, r0, ror pc
    2bb4:	000011e8 	andeq	r1, r0, r8, ror #3
    2bb8:	00000ae8 	andeq	r0, r0, r8, ror #21
    2bbc:	f9070402 			; <UNDEFINED> instruction: 0xf9070402
    2bc0:	03000000 	movweq	r0, #0
    2bc4:	6e690504 	cdpvs	5, 6, cr0, cr9, cr4, {0}
    2bc8:	04020074 	streq	r0, [r2], #-116	; 0xffffff8c
    2bcc:	00024205 	andeq	r4, r2, r5, lsl #4
    2bd0:	05080200 	streq	r0, [r8, #-512]	; 0xfffffe00
    2bd4:	0000023d 	andeq	r0, r0, sp, lsr r2
    2bd8:	bd080102 	stflts	f0, [r8, #-8]
    2bdc:	02000003 	andeq	r0, r0, #3
    2be0:	03ff0702 	mvnseq	r0, #524288	; 0x80000
    2be4:	04020000 	streq	r0, [r2], #-0
    2be8:	0000f407 	andeq	pc, r0, r7, lsl #8
    2bec:	06010200 	streq	r0, [r1], -r0, lsl #4
    2bf0:	000003bf 			; <UNDEFINED> instruction: 0x000003bf
    2bf4:	07050202 	streq	r0, [r5, -r2, lsl #4]
    2bf8:	02000003 	andeq	r0, r0, #3
    2bfc:	00ef0708 	rsceq	r0, pc, r8, lsl #14
    2c00:	04020000 	streq	r0, [r2], #-0
    2c04:	00039807 	andeq	r9, r3, r7, lsl #16
    2c08:	08010200 	stmdaeq	r1, {r9}
    2c0c:	000003c6 	andeq	r0, r0, r6, asr #7
    2c10:	00007204 	andeq	r7, r0, r4, lsl #4
    2c14:	79040500 	stmdbvc	r4, {r8, sl}
    2c18:	06000000 	streq	r0, [r0], -r0
    2c1c:	000001c3 	andeq	r0, r0, r3, asr #3
    2c20:	00332f02 	eorseq	r2, r3, r2, lsl #30
    2c24:	04020000 	streq	r0, [r2], #-0
    2c28:	0000d304 	andeq	sp, r0, r4, lsl #6
    2c2c:	02e90600 	rsceq	r0, r9, #0, 12
    2c30:	32020000 	andcc	r0, r2, #0
    2c34:	000000a1 	andeq	r0, r0, r1, lsr #1
    2c38:	17040802 	strne	r0, [r4, -r2, lsl #16]
    2c3c:	04000004 	streq	r0, [r0], #-4
    2c40:	000000a1 	andeq	r0, r0, r1, lsr #1
    2c44:	0001bd06 	andeq	fp, r1, r6, lsl #26
    2c48:	84440200 	strbhi	r0, [r4], #-512	; 0xfffffe00
    2c4c:	06000000 	streq	r0, [r0], -r0
    2c50:	00000371 	andeq	r0, r0, r1, ror r3
    2c54:	00964702 	addseq	r4, r6, r2, lsl #14
    2c58:	b9070000 	stmdblt	r7, {}	; <UNPREDICTABLE>
    2c5c:	0c000000 	stceq	0, cr0, [r0], {-0}
    2c60:	00ee8002 	rsceq	r8, lr, r2
    2c64:	6c080000 	stcvs	0, cr0, [r8], {-0}
    2c68:	ad810200 	sfmge	f0, 4, [r1]
    2c6c:	00000000 	andeq	r0, r0, r0
    2c70:	02006308 	andeq	r6, r0, #8, 6	; 0x20000000
    2c74:	0000ad82 	andeq	sl, r0, r2, lsl #27
    2c78:	6d080400 	cfstrsvs	mvf0, [r8, #-0]
    2c7c:	f9830200 			; <UNDEFINED> instruction: 0xf9830200
    2c80:	08000000 	stmdaeq	r0, {}	; <UNPREDICTABLE>
    2c84:	00b80900 	adcseq	r0, r8, r0, lsl #18
    2c88:	00f90000 	rscseq	r0, r9, r0
    2c8c:	000a0000 	andeq	r0, sl, r0
    2c90:	00ee0405 	rsceq	r0, lr, r5, lsl #8
    2c94:	b9060000 	stmdblt	r6, {}	; <UNPREDICTABLE>
    2c98:	02000000 	andeq	r0, r0, #0
    2c9c:	0000c384 	andeq	ip, r0, r4, lsl #7
    2ca0:	00ff0400 	rscseq	r0, pc, r0, lsl #8
    2ca4:	740b0000 	strvc	r0, [fp], #-0
    2ca8:	0300000a 	movweq	r0, #10
    2cac:	00010a2a 	andeq	r0, r1, sl, lsr #20
    2cb0:	0b970c00 	bleq	fe5c5cb8 <__bss_end__+0xfe59ad4c>
    2cb4:	14010000 	strne	r0, [r1], #-0
    2cb8:	0000007e 	andeq	r0, r0, lr, ror r0
    2cbc:	70700305 	rsbsvc	r0, r0, r5, lsl #6
    2cc0:	b00c0002 	andlt	r0, ip, r2
    2cc4:	0100000b 	tsteq	r0, fp
    2cc8:	00007e15 	andeq	r7, r0, r5, lsl lr
    2ccc:	74030500 	strvc	r0, [r3], #-1280	; 0xfffffb00
    2cd0:	0c000270 	sfmeq	f0, 4, [r0], {112}	; 0x70
    2cd4:	00000b3d 	andeq	r0, r0, sp, lsr fp
    2cd8:	007e1601 	rsbseq	r1, lr, r1, lsl #12
    2cdc:	03050000 	movweq	r0, #20480	; 0x5000
    2ce0:	00027078 	andeq	r7, r2, r8, ror r0
    2ce4:	000b490c 	andeq	r4, fp, ip, lsl #18
    2ce8:	7e170100 	mufvcs	f0, f7, f0
    2cec:	05000000 	streq	r0, [r0, #-0]
    2cf0:	02707c03 	rsbseq	r7, r0, #768	; 0x300
    2cf4:	0be90c00 	bleq	ffa45cfc <__bss_end__+0xffa1ad90>
    2cf8:	18010000 	stmdane	r1, {}	; <UNPREDICTABLE>
    2cfc:	0000007e 	andeq	r0, r0, lr, ror r0
    2d00:	70800305 	addvc	r0, r0, r5, lsl #6
    2d04:	a8090002 	stmdage	r9, {r1}
    2d08:	85000000 	strhi	r0, [r0, #-0]
    2d0c:	0d000001 	stceq	0, cr0, [r0, #-4]
    2d10:	0000006b 	andeq	r0, r0, fp, rrx
    2d14:	006b0d02 	rsbeq	r0, fp, r2, lsl #26
    2d18:	00020000 	andeq	r0, r2, r0
    2d1c:	00016f04 	andeq	r6, r1, r4, lsl #30
    2d20:	0b5a0c00 	bleq	1685d28 <__bss_end__+0x165adbc>
    2d24:	1b010000 	blne	42d2c <__bss_end__+0x17dc0>
    2d28:	00000185 	andeq	r0, r0, r5, lsl #3
    2d2c:	69300305 	ldmdbvs	r0!, {r0, r2, r8, r9}
    2d30:	0f0e0001 	svceq	0x000e0001
    2d34:	01000001 	tsteq	r0, r1
    2d38:	7803051c 	stmdavc	r3, {r2, r3, r4, r8, sl}
    2d3c:	0f000169 	svceq	0x00000169
    2d40:	00000b32 	andeq	r0, r0, r2, lsr fp
    2d44:	50015801 	andpl	r5, r1, r1, lsl #16
    2d48:	08000160 	stmdaeq	r0, {r5, r6, r8}
    2d4c:	01000001 	tsteq	r0, r1
    2d50:	0001f59c 	muleq	r1, ip, r5
    2d54:	70411000 	subvc	r1, r1, r0
    2d58:	01580100 	cmpeq	r8, r0, lsl #2
    2d5c:	000001f5 	strdeq	r0, [r0], -r5
    2d60:	106c9102 	rsbne	r9, ip, r2, lsl #2
    2d64:	01007042 	tsteq	r0, r2, asr #32
    2d68:	01fb0158 	mvnseq	r0, r8, asr r1
    2d6c:	91020000 	mrsls	r0, (UNDEF: 2)
    2d70:	00691168 	rsbeq	r1, r9, r8, ror #2
    2d74:	2c015a01 			; <UNDEFINED> instruction: 0x2c015a01
    2d78:	02000000 	andeq	r0, r0, #0
    2d7c:	6a117491 	bvs	45ffc8 <__bss_end__+0x43505c>
    2d80:	015a0100 	cmpeq	sl, r0, lsl #2
    2d84:	0000002c 	andeq	r0, r0, ip, lsr #32
    2d88:	00709102 	rsbseq	r9, r0, r2, lsl #2
    2d8c:	010a0405 	tsteq	sl, r5, lsl #8
    2d90:	04050000 	streq	r0, [r5], #-0
    2d94:	000000ff 	strdeq	r0, [r0], -pc	; <UNPREDICTABLE>
    2d98:	000b8912 	andeq	r8, fp, r2, lsl r9
    2d9c:	011c0100 	tsteq	ip, r0, lsl #2
    2da0:	00015ce0 	andeq	r5, r1, r0, ror #25
    2da4:	00000370 	andeq	r0, r0, r0, ror r3
    2da8:	028f9c01 	addeq	r9, pc, #256	; 0x100
    2dac:	41100000 	tstmi	r0, r0
    2db0:	1c010070 	stcne	0, cr0, [r1], {112}	; 0x70
    2db4:	0001f501 	andeq	pc, r1, r1, lsl #10
    2db8:	5c910200 	lfmpl	f0, 4, [r1], {0}
    2dbc:	00704210 	rsbseq	r4, r0, r0, lsl r2
    2dc0:	fb011c01 	blx	49dce <__bss_end__+0x1ee62>
    2dc4:	02000001 	andeq	r0, r0, #1
    2dc8:	64115891 	ldrvs	r5, [r1], #-2193	; 0xfffff76f
    2dcc:	01007465 	tsteq	r0, r5, ror #8
    2dd0:	00a1011e 	adceq	r0, r1, lr, lsl r1
    2dd4:	91020000 	mrsls	r0, (UNDEF: 2)
    2dd8:	5d9c1360 	ldcpl	3, cr1, [ip, #384]	; 0x180
    2ddc:	00780001 	rsbseq	r0, r8, r1
    2de0:	026a0000 	rsbeq	r0, sl, #0
    2de4:	61110000 	tstvs	r1, r0
    2de8:	01300100 	teqeq	r0, r0, lsl #2
    2dec:	000002a5 	andeq	r0, r0, r5, lsr #5
    2df0:	11749102 	cmnne	r4, r2, lsl #2
    2df4:	31010062 	tstcc	r1, r2, rrx
    2df8:	0002a501 	andeq	sl, r2, r1, lsl #10
    2dfc:	70910200 	addsvc	r0, r1, r0, lsl #4
    2e00:	5e181400 	cfmulspl	mvf1, mvf8, mvf0
    2e04:	02140001 	andseq	r0, r4, #1
    2e08:	61110000 	tstvs	r1, r0
    2e0c:	013d0100 	teqeq	sp, r0, lsl #2
    2e10:	000002c1 	andeq	r0, r0, r1, asr #5
    2e14:	116c9102 	cmnne	ip, r2, lsl #2
    2e18:	3e010062 	cdpcc	0, 0, cr0, cr1, cr2, {3}
    2e1c:	0002c101 	andeq	ip, r2, r1, lsl #2
    2e20:	68910200 	ldmvs	r1, {r9}
    2e24:	a1090000 	mrsge	r0, (UNDEF: 9)
    2e28:	a5000000 	strge	r0, [r0, #-0]
    2e2c:	0d000002 	stceq	0, cr0, [r0, #-8]
    2e30:	0000006b 	andeq	r0, r0, fp, rrx
    2e34:	006b0d01 	rsbeq	r0, fp, r1, lsl #26
    2e38:	00010000 	andeq	r0, r1, r0
    2e3c:	028f0405 	addeq	r0, pc, #83886080	; 0x5000000
    2e40:	a1090000 	mrsge	r0, (UNDEF: 9)
    2e44:	c1000000 	mrsgt	r0, (UNDEF: 0)
    2e48:	0d000002 	stceq	0, cr0, [r0, #-8]
    2e4c:	0000006b 	andeq	r0, r0, fp, rrx
    2e50:	006b0d02 	rsbeq	r0, fp, r2, lsl #26
    2e54:	00020000 	andeq	r0, r2, r0
    2e58:	02ab0405 	adceq	r0, fp, #83886080	; 0x5000000
    2e5c:	c5150000 	ldrgt	r0, [r5, #-0]
    2e60:	0100000b 	tsteq	r0, fp
    2e64:	015b5cf4 	ldrsheq	r5, [fp, #-196]	; 0xffffff3c
    2e68:	00018400 	andeq	r8, r1, r0, lsl #8
    2e6c:	2a9c0100 	bcs	fe703274 <__bss_end__+0xfe6d8308>
    2e70:	16000003 	strne	r0, [r0], -r3
    2e74:	01007041 	tsteq	r0, r1, asr #32
    2e78:	0001f5f4 	strdeq	pc, [r1], -r4
    2e7c:	6c910200 	lfmvs	f0, 4, [r1], {0}
    2e80:	74656416 	strbtvc	r6, [r5], #-1046	; 0xfffffbea
    2e84:	2af40100 	bcs	ffd0328c <__bss_end__+0xffcd8320>
    2e88:	02000003 	andeq	r0, r0, #3
    2e8c:	c4136891 	ldrgt	r6, [r3], #-2193	; 0xfffff76f
    2e90:	4000015b 	andmi	r0, r0, fp, asr r1
    2e94:	12000000 	andne	r0, r0, #0
    2e98:	11000003 	tstne	r0, r3
    2e9c:	0101006d 	tsteq	r1, sp, rrx
    2ea0:	0002a501 	andeq	sl, r2, r1, lsl #10
    2ea4:	74910200 	ldrvc	r0, [r1], #512	; 0x200
    2ea8:	5c081400 	cfstrspl	mvf1, [r8], {-0}
    2eac:	00c40001 	sbceq	r0, r4, r1
    2eb0:	6d110000 	ldcvs	0, cr0, [r1, #-0]
    2eb4:	01070100 	mrseq	r0, (UNDEF: 23)
    2eb8:	000002c1 	andeq	r0, r0, r1, asr #5
    2ebc:	00709102 	rsbseq	r9, r0, r2, lsl #2
    2ec0:	a1040500 	tstge	r4, r0, lsl #10
    2ec4:	17000000 	strne	r0, [r0, -r0]
    2ec8:	00000b65 	andeq	r0, r0, r5, ror #22
    2ecc:	5b30ec01 	blpl	c3ded8 <__bss_end__+0xc12f6c>
    2ed0:	002c0001 	eoreq	r0, ip, r1
    2ed4:	9c010000 	stcls	0, cr0, [r1], {-0}
    2ed8:	00000353 	andeq	r0, r0, r3, asr r3
    2edc:	00704116 	rsbseq	r4, r0, r6, lsl r1
    2ee0:	01fbec01 	mvnseq	lr, r1, lsl #24
    2ee4:	91020000 	mrsls	r0, (UNDEF: 2)
    2ee8:	ba170074 	blt	5c30c0 <__bss_end__+0x598154>
    2eec:	0100000b 	tsteq	r0, fp
    2ef0:	015a44db 	ldrsbeq	r4, [sl, #-75]	; 0xffffffb5
    2ef4:	0000ec00 	andeq	lr, r0, r0, lsl #24
    2ef8:	a69c0100 	ldrge	r0, [ip], r0, lsl #2
    2efc:	16000003 	strne	r0, [r0], -r3
    2f00:	db01006c 	blle	430b8 <__bss_end__+0x1814c>
    2f04:	0000002c 	andeq	r0, r0, ip, lsr #32
    2f08:	166c9102 	strbtne	r9, [ip], -r2, lsl #2
    2f0c:	db010063 	blle	430a0 <__bss_end__+0x18134>
    2f10:	0000002c 	andeq	r0, r0, ip, lsr #32
    2f14:	16689102 	strbtne	r9, [r8], -r2, lsl #2
    2f18:	01007041 	tsteq	r0, r1, asr #32
    2f1c:	0001fbdb 	ldrdeq	pc, [r1], -fp
    2f20:	64910200 	ldrvs	r0, [r1], #512	; 0x200
    2f24:	01006918 	tsteq	r0, r8, lsl r9
    2f28:	00002cdd 	ldrdeq	r2, [r0], -sp
    2f2c:	74910200 	ldrvc	r0, [r1], #512	; 0x200
    2f30:	01006a18 	tsteq	r0, r8, lsl sl
    2f34:	00002cdd 	ldrdeq	r2, [r0], -sp
    2f38:	70910200 	addsvc	r0, r1, r0, lsl #4
    2f3c:	0ba51700 	bleq	fe948b44 <__bss_end__+0xfe91dbd8>
    2f40:	cf010000 	svcgt	0x00010000
    2f44:	000159d0 	ldrdeq	r5, [r1], -r0
    2f48:	00000074 	andeq	r0, r0, r4, ror r0
    2f4c:	03f19c01 	mvnseq	r9, #256	; 0x100
    2f50:	41160000 	tstmi	r6, r0
    2f54:	cf010070 	svcgt	0x00010070
    2f58:	000001f5 	strdeq	r0, [r0], -r5
    2f5c:	16649102 	strbtne	r9, [r4], -r2, lsl #2
    2f60:	01007042 	tsteq	r0, r2, asr #32
    2f64:	0001f5cf 	andeq	pc, r1, pc, asr #11
    2f68:	60910200 	addsvs	r0, r1, r0, lsl #4
    2f6c:	00704316 	rsbseq	r4, r0, r6, lsl r3
    2f70:	01fbcf01 	mvnseq	ip, r1, lsl #30
    2f74:	91020000 	mrsls	r0, (UNDEF: 2)
    2f78:	6d74185c 	ldclvs	8, cr1, [r4, #-368]!	; 0xfffffe90
    2f7c:	d1010070 	tstle	r1, r0, ror r0
    2f80:	000000ff 	strdeq	r0, [r0], -pc	; <UNPREDICTABLE>
    2f84:	006c9102 	rsbeq	r9, ip, r2, lsl #2
    2f88:	000b7f17 	andeq	r7, fp, r7, lsl pc
    2f8c:	5cc30100 	stfple	f0, [r3], {0}
    2f90:	74000159 	strvc	r0, [r0], #-345	; 0xfffffea7
    2f94:	01000000 	mrseq	r0, (UNDEF: 0)
    2f98:	00043c9c 	muleq	r4, ip, ip
    2f9c:	70411600 	subvc	r1, r1, r0, lsl #12
    2fa0:	f5c30100 			; <UNDEFINED> instruction: 0xf5c30100
    2fa4:	02000001 	andeq	r0, r0, #1
    2fa8:	42166491 	andsmi	r6, r6, #-1862270976	; 0x91000000
    2fac:	c3010070 	movwgt	r0, #4208	; 0x1070
    2fb0:	000001f5 	strdeq	r0, [r0], -r5
    2fb4:	16609102 	strbtne	r9, [r0], -r2, lsl #2
    2fb8:	01007043 	tsteq	r0, r3, asr #32
    2fbc:	0001fbc3 	andeq	pc, r1, r3, asr #23
    2fc0:	5c910200 	lfmpl	f0, 4, [r1], {0}
    2fc4:	706d7418 	rsbvc	r7, sp, r8, lsl r4
    2fc8:	ffc50100 			; <UNDEFINED> instruction: 0xffc50100
    2fcc:	02000000 	andeq	r0, r0, #0
    2fd0:	15006c91 	strne	r6, [r0, #-3217]	; 0xfffff36f
    2fd4:	00000bd5 	ldrdeq	r0, [r0], -r5
    2fd8:	5778aa01 	ldrbpl	sl, [r8, -r1, lsl #20]!
    2fdc:	01e40001 	mvneq	r0, r1
    2fe0:	9c010000 	stcls	0, cr0, [r1], {-0}
    2fe4:	000004aa 	andeq	r0, r0, sl, lsr #9
    2fe8:	00704116 	rsbseq	r4, r0, r6, lsl r1
    2fec:	01f5aa01 	mvnseq	sl, r1, lsl #20
    2ff0:	91020000 	mrsls	r0, (UNDEF: 2)
    2ff4:	70421664 	subvc	r1, r2, r4, ror #12
    2ff8:	f5aa0100 			; <UNDEFINED> instruction: 0xf5aa0100
    2ffc:	02000001 	andeq	r0, r0, #1
    3000:	43166091 	tstmi	r6, #145	; 0x91
    3004:	aa010070 	bge	431cc <__bss_end__+0x18260>
    3008:	000001fb 	strdeq	r0, [r0], -fp
    300c:	145c9102 	ldrbne	r9, [ip], #-258	; 0xfffffefe
    3010:	000157d8 	ldrdeq	r5, [r1], -r8
    3014:	00000170 	andeq	r0, r0, r0, ror r1
    3018:	00616918 	rsbeq	r6, r1, r8, lsl r9
    301c:	002cb201 	eoreq	fp, ip, r1, lsl #4
    3020:	91020000 	mrsls	r0, (UNDEF: 2)
    3024:	63691874 	cmnvs	r9, #116, 16	; 0x740000
    3028:	2cb20100 	ldfcss	f0, [r2]
    302c:	02000000 	andeq	r0, r0, #0
    3030:	6a187091 	bvs	61f27c <__bss_end__+0x5f4310>
    3034:	b2010063 	andlt	r0, r1, #99	; 0x63
    3038:	0000002c 	andeq	r0, r0, ip, lsr #32
    303c:	006c9102 	rsbeq	r9, ip, r2, lsl #2
    3040:	0b751500 	bleq	1d48448 <__bss_end__+0x1d1d4dc>
    3044:	90010000 	andls	r0, r1, r0
    3048:	00015594 	muleq	r1, r4, r5
    304c:	000001e4 	andeq	r0, r0, r4, ror #3
    3050:	05189c01 	ldreq	r9, [r8, #-3073]	; 0xfffff3ff
    3054:	41160000 	tstmi	r6, r0
    3058:	90010070 	andls	r0, r1, r0, ror r0
    305c:	000001f5 	strdeq	r0, [r0], -r5
    3060:	16649102 	strbtne	r9, [r4], -r2, lsl #2
    3064:	01007042 	tsteq	r0, r2, asr #32
    3068:	0001f590 	muleq	r1, r0, r5
    306c:	60910200 	addsvs	r0, r1, r0, lsl #4
    3070:	00704316 	rsbseq	r4, r0, r6, lsl r3
    3074:	01fb9001 	mvnseq	r9, r1
    3078:	91020000 	mrsls	r0, (UNDEF: 2)
    307c:	55f4145c 	ldrbpl	r1, [r4, #1116]!	; 0x45c
    3080:	01700001 	cmneq	r0, r1
    3084:	69180000 	ldmdbvs	r8, {}	; <UNPREDICTABLE>
    3088:	98010061 	stmdals	r1, {r0, r5, r6}
    308c:	0000002c 	andeq	r0, r0, ip, lsr #32
    3090:	18749102 	ldmdane	r4!, {r1, r8, ip, pc}^
    3094:	01006369 	tsteq	r0, r9, ror #6
    3098:	00002c98 	muleq	r0, r8, ip
    309c:	70910200 	addsvc	r0, r1, r0, lsl #4
    30a0:	00636a18 	rsbeq	r6, r3, r8, lsl sl
    30a4:	002c9801 	eoreq	r9, ip, r1, lsl #16
    30a8:	91020000 	mrsls	r0, (UNDEF: 2)
    30ac:	1500006c 	strne	r0, [r0, #-108]	; 0xffffff94
    30b0:	00000bcd 	andeq	r0, r0, sp, asr #23
    30b4:	53b07501 	movspl	r7, #4194304	; 0x400000
    30b8:	01e40001 	mvneq	r0, r1
    30bc:	9c010000 	stcls	0, cr0, [r1], {-0}
    30c0:	00000586 	andeq	r0, r0, r6, lsl #11
    30c4:	00704116 	rsbseq	r4, r0, r6, lsl r1
    30c8:	01f57501 	mvnseq	r7, r1, lsl #10
    30cc:	91020000 	mrsls	r0, (UNDEF: 2)
    30d0:	70421664 	subvc	r1, r2, r4, ror #12
    30d4:	f5750100 			; <UNDEFINED> instruction: 0xf5750100
    30d8:	02000001 	andeq	r0, r0, #1
    30dc:	43166091 	tstmi	r6, #145	; 0x91
    30e0:	75010070 	strvc	r0, [r1, #-112]	; 0xffffff90
    30e4:	000001fb 	strdeq	r0, [r0], -fp
    30e8:	145c9102 	ldrbne	r9, [ip], #-258	; 0xfffffefe
    30ec:	00015410 	andeq	r5, r1, r0, lsl r4
    30f0:	00000170 	andeq	r0, r0, r0, ror r1
    30f4:	00616918 	rsbeq	r6, r1, r8, lsl r9
    30f8:	002c7d01 	eoreq	r7, ip, r1, lsl #26
    30fc:	91020000 	mrsls	r0, (UNDEF: 2)
    3100:	63691874 	cmnvs	r9, #116, 16	; 0x740000
    3104:	2c7d0100 	ldfcse	f0, [sp], #-0
    3108:	02000000 	andeq	r0, r0, #0
    310c:	6a187091 	bvs	61f358 <__bss_end__+0x5f43ec>
    3110:	7d010063 	stcvc	0, cr0, [r1, #-396]	; 0xfffffe74
    3114:	0000002c 	andeq	r0, r0, ip, lsr #32
    3118:	006c9102 	rsbeq	r9, ip, r2, lsl #2
    311c:	0b6d1500 	bleq	1b48524 <__bss_end__+0x1b1d5b8>
    3120:	5d010000 	stcpl	0, cr0, [r1, #-0]
    3124:	00015244 	andeq	r5, r1, r4, asr #4
    3128:	0000016c 	andeq	r0, r0, ip, ror #2
    312c:	05e59c01 	strbeq	r9, [r5, #3073]!	; 0xc01
    3130:	41160000 	tstmi	r6, r0
    3134:	5d010070 	stcpl	0, cr0, [r1, #-448]	; 0xfffffe40
    3138:	000001f5 	strdeq	r0, [r0], -r5
    313c:	166c9102 	strbtne	r9, [ip], -r2, lsl #2
    3140:	01007042 	tsteq	r0, r2, asr #32
    3144:	0001f55d 	andeq	pc, r1, sp, asr r5	; <UNPREDICTABLE>
    3148:	68910200 	ldmvs	r1, {r9}
    314c:	00704316 	rsbseq	r4, r0, r6, lsl r3
    3150:	01fb5d01 	mvnseq	r5, r1, lsl #26
    3154:	91020000 	mrsls	r0, (UNDEF: 2)
    3158:	52bc1464 	adcspl	r1, ip, #100, 8	; 0x64000000
    315c:	00e00001 	rsceq	r0, r0, r1
    3160:	69180000 	ldmdbvs	r8, {}	; <UNPREDICTABLE>
    3164:	2c660100 	stfcse	f0, [r6], #-0
    3168:	02000000 	andeq	r0, r0, #0
    316c:	6a187491 	bvs	6203b8 <__bss_end__+0x5f544c>
    3170:	2c660100 	stfcse	f0, [r6], #-0
    3174:	02000000 	andeq	r0, r0, #0
    3178:	00007091 	muleq	r0, r1, r0
    317c:	000b2a15 	andeq	r2, fp, r5, lsl sl
    3180:	d8460100 	stmdale	r6, {r8}^
    3184:	6c000150 	stfvss	f0, [r0], {80}	; 0x50
    3188:	01000001 	tsteq	r0, r1
    318c:	0006449c 	muleq	r6, ip, r4
    3190:	70411600 	subvc	r1, r1, r0, lsl #12
    3194:	f5460100 			; <UNDEFINED> instruction: 0xf5460100
    3198:	02000001 	andeq	r0, r0, #1
    319c:	42166c91 	andsmi	r6, r6, #37120	; 0x9100
    31a0:	46010070 			; <UNDEFINED> instruction: 0x46010070
    31a4:	000001f5 	strdeq	r0, [r0], -r5
    31a8:	16689102 	strbtne	r9, [r8], -r2, lsl #2
    31ac:	01007043 	tsteq	r0, r3, asr #32
    31b0:	0001fb46 	andeq	pc, r1, r6, asr #22
    31b4:	64910200 	ldrvs	r0, [r1], #512	; 0x200
    31b8:	01515014 	cmpeq	r1, r4, lsl r0
    31bc:	0000e000 	andeq	lr, r0, r0
    31c0:	00691800 	rsbeq	r1, r9, r0, lsl #16
    31c4:	002c4f01 	eoreq	r4, ip, r1, lsl #30
    31c8:	91020000 	mrsls	r0, (UNDEF: 2)
    31cc:	006a1874 	rsbeq	r1, sl, r4, ror r8
    31d0:	002c4f01 	eoreq	r4, ip, r1, lsl #30
    31d4:	91020000 	mrsls	r0, (UNDEF: 2)
    31d8:	17000070 	smlsdxne	r0, r0, r0, r0
    31dc:	00000be0 	andeq	r0, r0, r0, ror #23
    31e0:	504c3701 	subpl	r3, ip, r1, lsl #14
    31e4:	008c0001 	addeq	r0, ip, r1
    31e8:	9c010000 	stcls	0, cr0, [r1], {-0}
    31ec:	00000680 	andeq	r0, r0, r0, lsl #13
    31f0:	00704116 	rsbseq	r4, r0, r6, lsl r1
    31f4:	01fb3701 	mvnseq	r3, r1, lsl #14
    31f8:	91020000 	mrsls	r0, (UNDEF: 2)
    31fc:	7042166c 	subvc	r1, r2, ip, ror #12
    3200:	f5370100 			; <UNDEFINED> instruction: 0xf5370100
    3204:	02000001 	andeq	r0, r0, #1
    3208:	73186891 	tstvc	r8, #9502720	; 0x910000
    320c:	2c390100 	ldfcss	f0, [r9], #-0
    3210:	02000000 	andeq	r0, r0, #0
    3214:	19007491 	stmdbne	r0, {r0, r4, r7, sl, ip, sp, lr}
    3218:	00000b1d 	andeq	r0, r0, sp, lsl fp
    321c:	4f702b01 	svcmi	0x00702b01
    3220:	00dc0001 	sbcseq	r0, ip, r1
    3224:	9c010000 	stcls	0, cr0, [r1], {-0}
    3228:	00704116 	rsbseq	r4, r0, r6, lsl r1
    322c:	01fb2b01 	mvnseq	r2, r1, lsl #22
    3230:	91020000 	mrsls	r0, (UNDEF: 2)
    3234:	006b166c 	rsbeq	r1, fp, ip, ror #12
    3238:	00a12b01 	adceq	r2, r1, r1, lsl #22
    323c:	91020000 	mrsls	r0, (UNDEF: 2)
    3240:	00691860 	rsbeq	r1, r9, r0, ror #16
    3244:	002c2d01 	eoreq	r2, ip, r1, lsl #26
    3248:	91020000 	mrsls	r0, (UNDEF: 2)
    324c:	006a1874 	rsbeq	r1, sl, r4, ror r8
    3250:	002c2d01 	eoreq	r2, ip, r1, lsl #26
    3254:	91020000 	mrsls	r0, (UNDEF: 2)
    3258:	48000070 	stmdami	r0, {r4, r5, r6}
    325c:	04000005 	streq	r0, [r0], #-5
    3260:	000c6100 	andeq	r6, ip, r0, lsl #2
    3264:	69010400 	stmdbvs	r1, {sl}
    3268:	0c000001 	stceq	0, cr0, [r0], {1}
    326c:	00000c0c 	andeq	r0, r0, ip, lsl #24
    3270:	0000032c 	andeq	r0, r0, ip, lsr #6
    3274:	00016158 	andeq	r6, r1, r8, asr r1
    3278:	00000140 	andeq	r0, r0, r0, asr #2
    327c:	00000d50 	andeq	r0, r0, r0, asr sp
    3280:	bf060102 	svclt	0x00060102
    3284:	02000003 	andeq	r0, r0, #3
    3288:	03070502 	movweq	r0, #29954	; 0x7502
    328c:	04030000 	streq	r0, [r3], #-0
    3290:	746e6905 	strbtvc	r6, [lr], #-2309	; 0xfffff6fb
    3294:	05080200 	streq	r0, [r8, #-512]	; 0xfffffe00
    3298:	0000023d 	andeq	r0, r0, sp, lsr r2
    329c:	bd080102 	stflts	f0, [r8, #-8]
    32a0:	02000003 	andeq	r0, r0, #3
    32a4:	03ff0702 	mvnseq	r0, #524288	; 0x80000
    32a8:	04020000 	streq	r0, [r2], #-0
    32ac:	0000f907 	andeq	pc, r0, r7, lsl #18
    32b0:	07080200 	streq	r0, [r8, -r0, lsl #4]
    32b4:	000000ef 	andeq	r0, r0, pc, ror #1
    32b8:	42050402 	andmi	r0, r5, #33554432	; 0x2000000
    32bc:	02000002 	andeq	r0, r0, #2
    32c0:	00f40704 	rscseq	r0, r4, r4, lsl #14
    32c4:	04020000 	streq	r0, [r2], #-0
    32c8:	0000d304 	andeq	sp, r0, r4, lsl #6
    32cc:	04080200 	streq	r0, [r8], #-512	; 0xfffffe00
    32d0:	00000417 	andeq	r0, r0, r7, lsl r4
    32d4:	98070402 	stmdals	r7, {r1, sl}
    32d8:	04000003 	streq	r0, [r0], #-3
    32dc:	00000141 	andeq	r0, r0, r1, asr #2
    32e0:	004fd802 	subeq	sp, pc, r2, lsl #16
    32e4:	86040000 	strhi	r0, [r4], -r0
    32e8:	03000002 	movweq	r0, #2
    32ec:	00003a37 	andeq	r3, r0, r7, lsr sl
    32f0:	03f00400 	mvnseq	r0, #0, 8
    32f4:	83030000 	movwhi	r0, #12288	; 0x3000
    32f8:	0000005d 	andeq	r0, r0, sp, asr r0
    32fc:	00045104 	andeq	r5, r4, r4, lsl #2
    3300:	8b840300 	blhi	fe103f08 <__bss_end__+0xfe0d8f9c>
    3304:	04000000 	streq	r0, [r0], #-0
    3308:	00000c02 	andeq	r0, r0, r2, lsl #24
    330c:	005d8703 	subseq	r8, sp, r3, lsl #14
    3310:	04050000 	streq	r0, [r5], #-0
    3314:	00bf0406 	adcseq	r0, pc, r6, lsl #8
    3318:	01020000 	mrseq	r0, (UNDEF: 2)
    331c:	0003c608 	andeq	ip, r3, r8, lsl #12
    3320:	00bf0700 	adcseq	r0, pc, r0, lsl #14
    3324:	04040000 	streq	r0, [r4], #-0
    3328:	0400000c 	streq	r0, [r0], #-12
    332c:	0000ac3b 	andeq	sl, r0, fp, lsr ip
    3330:	00000400 	andeq	r0, r0, r0, lsl #8
    3334:	25050000 	strcs	r0, [r5, #-0]
    3338:	00000064 	andeq	r0, r0, r4, rrx
    333c:	000c7108 	andeq	r7, ip, r8, lsl #2
    3340:	28052400 	stmdacs	r5, {sl, sp}
    3344:	00000104 	andeq	r0, r0, r4, lsl #2
    3348:	000c4909 	andeq	r4, ip, r9, lsl #18
    334c:	042a0500 	strteq	r0, [sl], #-1280	; 0xfffffb00
    3350:	09000001 	stmdbeq	r0, {r0}
    3354:	00000c64 	andeq	r0, r0, r4, ror #24
    3358:	005d2b05 	subseq	r2, sp, r5, lsl #22
    335c:	0a000000 	beq	3364 <shift+0x3364>
    3360:	000000bf 	strheq	r0, [r0], -pc	; <UNPREDICTABLE>
    3364:	00000114 	andeq	r0, r0, r4, lsl r1
    3368:	0000790b 	andeq	r7, r0, fp, lsl #18
    336c:	04002300 	streq	r2, [r0], #-768	; 0xfffffd00
    3370:	00000c71 	andeq	r0, r0, r1, ror ip
    3374:	00e12e05 	rsceq	r2, r1, r5, lsl #28
    3378:	14070000 	strne	r0, [r7], #-0
    337c:	0c000001 	stceq	0, cr0, [r0], {1}
    3380:	000003ad 	andeq	r0, r0, sp, lsr #7
    3384:	a1f10698 			; <UNDEFINED> instruction: 0xa1f10698
    3388:	0d000002 	stceq	0, cr0, [r0, #-8]
    338c:	0000007f 	andeq	r0, r0, pc, ror r0
    3390:	0033f206 	eorseq	pc, r3, r6, lsl #4
    3394:	0d000000 	stceq	0, cr0, [r0, #-0]
    3398:	000001f5 	strdeq	r0, [r0], -r5
    339c:	00b9f706 	adcseq	pc, r9, r6, lsl #14
    33a0:	0d040000 	stceq	0, cr0, [r4, #-0]
    33a4:	000002fa 	strdeq	r0, [r0], -sl
    33a8:	00b9f806 	adcseq	pc, r9, r6, lsl #16
    33ac:	0d080000 	stceq	0, cr0, [r8, #-0]
    33b0:	00000148 	andeq	r0, r0, r8, asr #2
    33b4:	00b9f906 	adcseq	pc, r9, r6, lsl #18
    33b8:	0d0c0000 	stceq	0, cr0, [ip, #-0]
    33bc:	0000021f 	andeq	r0, r0, pc, lsl r2
    33c0:	00b9fa06 	adcseq	pc, r9, r6, lsl #20
    33c4:	0d100000 	ldceq	0, cr0, [r0, #-0]
    33c8:	000003da 	ldrdeq	r0, [r0], -sl
    33cc:	00b9fb06 	adcseq	pc, r9, r6, lsl #22
    33d0:	0d140000 	ldceq	0, cr0, [r4, #-0]
    33d4:	0000005f 	andeq	r0, r0, pc, asr r0
    33d8:	00b9fc06 	adcseq	pc, r9, r6, lsl #24
    33dc:	0d180000 	ldceq	0, cr0, [r8, #-0]
    33e0:	00000464 	andeq	r0, r0, r4, ror #8
    33e4:	00b9fd06 	adcseq	pc, r9, r6, lsl #26
    33e8:	0d1c0000 	ldceq	0, cr0, [ip, #-0]
    33ec:	0000002d 	andeq	r0, r0, sp, lsr #32
    33f0:	00b9fe06 	adcseq	pc, r9, r6, lsl #28
    33f4:	0e200000 	cdpeq	0, 2, cr0, cr0, cr0, {0}
    33f8:	0000025b 	andeq	r0, r0, fp, asr r2
    33fc:	b9010006 	stmdblt	r1, {r1, r2}
    3400:	24000000 	strcs	r0, [r0], #-0
    3404:	0001190e 	andeq	r1, r1, lr, lsl #18
    3408:	01010600 	tsteq	r1, r0, lsl #12
    340c:	000000b9 	strheq	r0, [r0], -r9
    3410:	00c60e28 	sbceq	r0, r6, r8, lsr #28
    3414:	02060000 	andeq	r0, r6, #0
    3418:	0000b901 	andeq	fp, r0, r1, lsl #18
    341c:	860e2c00 	strhi	r2, [lr], -r0, lsl #24
    3420:	06000000 	streq	r0, [r0], -r0
    3424:	02d90104 	sbcseq	r0, r9, #4, 2
    3428:	0e300000 	cdpeq	0, 3, cr0, cr0, cr0, {0}
    342c:	0000041e 	andeq	r0, r0, lr, lsl r4
    3430:	df010606 	svcle	0x00010606
    3434:	34000002 	strcc	r0, [r0], #-2
    3438:	0001320e 	andeq	r3, r1, lr, lsl #4
    343c:	01080600 	tsteq	r8, r0, lsl #12
    3440:	00000033 	andeq	r0, r0, r3, lsr r0
    3444:	04250e38 	strteq	r0, [r5], #-3640	; 0xfffff1c8
    3448:	0c060000 	stceq	0, cr0, [r6], {-0}
    344c:	00003301 	andeq	r3, r0, r1, lsl #6
    3450:	a10e3c00 	tstge	lr, r0, lsl #24
    3454:	06000003 	streq	r0, [r0], -r3
    3458:	0096010e 	addseq	r0, r6, lr, lsl #2
    345c:	0e400000 	cdpeq	0, 4, cr0, cr0, cr0, {0}
    3460:	0000042d 	andeq	r0, r0, sp, lsr #8
    3464:	48011206 	stmdami	r1, {r1, r2, r9, ip}
    3468:	44000000 	strmi	r0, [r0], #-0
    346c:	0002bb0e 	andeq	fp, r2, lr, lsl #22
    3470:	01130600 	tsteq	r3, r0, lsl #12
    3474:	00000025 	andeq	r0, r0, r5, lsr #32
    3478:	000a0e46 	andeq	r0, sl, r6, asr #28
    347c:	14060000 	strne	r0, [r6], #-0
    3480:	0002e501 	andeq	lr, r2, r1, lsl #10
    3484:	920e4700 	andls	r4, lr, #0, 14
    3488:	06000003 	streq	r0, [r0], -r3
    348c:	02f50118 	rscseq	r0, r5, #24, 2
    3490:	0e480000 	cdpeq	0, 4, cr0, cr8, cr0, {0}
    3494:	000003a5 	andeq	r0, r0, r5, lsr #7
    3498:	a1012106 	tstge	r1, r6, lsl #2
    349c:	50000000 	andpl	r0, r0, r0
    34a0:	0002980e 	andeq	r9, r2, lr, lsl #16
    34a4:	01290600 			; <UNDEFINED> instruction: 0x01290600
    34a8:	000000b7 	strheq	r0, [r0], -r7
    34ac:	029f0e58 	addseq	r0, pc, #88, 28	; 0x580
    34b0:	2a060000 	bcs	1834b8 <__bss_end__+0x15854c>
    34b4:	0000b701 	andeq	fp, r0, r1, lsl #14
    34b8:	a60e5c00 	strge	r5, [lr], -r0, lsl #24
    34bc:	06000002 	streq	r0, [r0], -r2
    34c0:	00b7012b 	adcseq	r0, r7, fp, lsr #2
    34c4:	0e600000 	cdpeq	0, 6, cr0, cr0, cr0, {0}
    34c8:	000002ad 	andeq	r0, r0, sp, lsr #5
    34cc:	b7012c06 	strlt	r2, [r1, -r6, lsl #24]
    34d0:	64000000 	strvs	r0, [r0], #-0
    34d4:	0002b40e 	andeq	fp, r2, lr, lsl #8
    34d8:	012e0600 			; <UNDEFINED> instruction: 0x012e0600
    34dc:	00000080 	andeq	r0, r0, r0, lsl #1
    34e0:	01d30e68 	bicseq	r0, r3, r8, ror #28
    34e4:	2f060000 	svccs	0x00060000
    34e8:	00003301 	andeq	r3, r0, r1, lsl #6
    34ec:	5b0e6c00 	blpl	39e4f4 <__bss_end__+0x373588>
    34f0:	06000004 	streq	r0, [r0], -r4
    34f4:	02fb0131 	rscseq	r0, fp, #1073741836	; 0x4000000c
    34f8:	00700000 	rsbseq	r0, r0, r0
    34fc:	00001b0f 	andeq	r1, r0, pc, lsl #22
    3500:	0c960600 	ldceq	6, cr0, [r6], {0}
    3504:	000001e4 	andeq	r0, r0, r4, ror #3
    3508:	d99c060c 	ldmible	ip, {r2, r3, r9, sl}
    350c:	0d000002 	stceq	0, cr0, [r0, #-8]
    3510:	00000163 	andeq	r0, r0, r3, ror #2
    3514:	02d99d06 	sbcseq	r9, r9, #384	; 0x180
    3518:	0d000000 	stceq	0, cr0, [r0, #-0]
    351c:	000003d4 	ldrdeq	r0, [r0], -r4
    3520:	02df9e06 	sbcseq	r9, pc, #6, 28	; 0x60
    3524:	0d040000 	stceq	0, cr0, [r4, #-0]
    3528:	00000978 	andeq	r0, r0, r8, ror r9
    352c:	0033a206 	eorseq	sl, r3, r6, lsl #4
    3530:	00080000 	andeq	r0, r8, r0
    3534:	02a80406 	adceq	r0, r8, #100663296	; 0x6000000
    3538:	04060000 	streq	r0, [r6], #-0
    353c:	00000124 	andeq	r0, r0, r4, lsr #2
    3540:	0000bf0a 	andeq	fp, r0, sl, lsl #30
    3544:	0002f500 	andeq	pc, r2, r0, lsl #10
    3548:	00790b00 	rsbseq	r0, r9, r0, lsl #22
    354c:	00000000 	andeq	r0, r0, r0
    3550:	02a10406 	adceq	r0, r1, #100663296	; 0x6000000
    3554:	bf0a0000 	svclt	0x000a0000
    3558:	0b000000 	bleq	3560 <shift+0x3560>
    355c:	0b000003 	bleq	3570 <shift+0x3570>
    3560:	00000079 	andeq	r0, r0, r9, ror r0
    3564:	84100027 	ldrhi	r0, [r0], #-39	; 0xffffffd9
    3568:	11000003 	tstne	r0, r3
    356c:	0000022e 	andeq	r0, r0, lr, lsr #4
    3570:	0b013b06 	bleq	52190 <__bss_end__+0x27224>
    3574:	11000003 	tstne	r0, r3
    3578:	0000024b 	andeq	r0, r0, fp, asr #4
    357c:	0b013c06 	bleq	5259c <__bss_end__+0x27630>
    3580:	11000003 	tstne	r0, r3
    3584:	00000441 	andeq	r0, r0, r1, asr #8
    3588:	0b013d06 	bleq	529a8 <__bss_end__+0x27a3c>
    358c:	06000003 	streq	r0, [r0], -r3
    3590:	0000c604 	andeq	ip, r0, r4, lsl #12
    3594:	03340700 	teqeq	r4, #0, 14
    3598:	5d120000 	ldcpl	0, cr0, [r2, #-0]
    359c:	07000001 	streq	r0, [r0, -r1]
    35a0:	0002dfaa 	andeq	sp, r2, sl, lsr #31
    35a4:	00bf1200 	adcseq	r1, pc, r0, lsl #4
    35a8:	ab070000 	blge	1c35b0 <__bss_end__+0x198644>
    35ac:	000002df 	ldrdeq	r0, [r0], -pc	; <UNPREDICTABLE>
    35b0:	00002612 	andeq	r2, r0, r2, lsl r6
    35b4:	dfac0700 	svcle	0x00ac0700
    35b8:	12000002 	andne	r0, r0, #2
    35bc:	00000129 	andeq	r0, r0, r9, lsr #2
    35c0:	00331a08 	eorseq	r1, r3, r8, lsl #20
    35c4:	3a0a0000 	bcc	2835cc <__bss_end__+0x258660>
    35c8:	76000003 	strvc	r0, [r0], -r3
    35cc:	13000003 	movwne	r0, #3
    35d0:	036b0700 	cmneq	fp, #0, 14
    35d4:	0d120000 	ldceq	0, cr0, [r2, #-0]
    35d8:	08000001 	stmdaeq	r0, {r0}
    35dc:	0003761b 	andeq	r7, r3, fp, lsl r6
    35e0:	00571200 	subseq	r1, r7, r0, lsl #4
    35e4:	a8090000 	stmdage	r9, {}	; <UNPREDICTABLE>
    35e8:	00000033 	andeq	r0, r0, r3, lsr r0
    35ec:	00330414 	eorseq	r0, r3, r4, lsl r4
    35f0:	5c090000 	stcpl	0, cr0, [r9], {-0}
    35f4:	0003bd01 	andeq	fp, r3, r1, lsl #26
    35f8:	01561500 	cmpeq	r6, r0, lsl #10
    35fc:	167f0000 	ldrbtne	r0, [pc], -r0
    3600:	000000b2 	strheq	r0, [r0], -r2
    3604:	04391600 	ldrteq	r1, [r9], #-1536	; 0xfffffa00
    3608:	16010000 	strne	r0, [r1], -r0
    360c:	0000004f 	andeq	r0, r0, pc, asr #32
    3610:	01061602 	tsteq	r6, r2, lsl #12
    3614:	00030000 	andeq	r0, r3, r0
    3618:	00006d17 	andeq	r6, r0, r7, lsl sp
    361c:	01620900 	cmneq	r2, r0, lsl #18
    3620:	00000391 	muleq	r0, r1, r3
    3624:	00020211 	andeq	r0, r2, r1, lsl r2
    3628:	01670900 	cmneq	r7, r0, lsl #18
    362c:	000003bd 			; <UNDEFINED> instruction: 0x000003bd
    3630:	0000b90a 	andeq	fp, r0, sl, lsl #18
    3634:	0003e500 	andeq	lr, r3, r0, lsl #10
    3638:	00790b00 	rsbseq	r0, r9, r0, lsl #22
    363c:	00010000 	andeq	r0, r1, r0
    3640:	0003cb11 	andeq	ip, r3, r1, lsl fp
    3644:	011a0400 	tsteq	sl, r0, lsl #8
    3648:	000003d5 	ldrdeq	r0, [r0], -r5
    364c:	0001d911 	andeq	sp, r1, r1, lsl r9
    3650:	011b0400 	tsteq	fp, r0, lsl #8
    3654:	00000033 	andeq	r0, r0, r3, lsr r0
    3658:	0000a111 	andeq	sl, r0, r1, lsl r1
    365c:	011c0400 	tsteq	ip, r0, lsl #8
    3660:	0000005d 	andeq	r0, r0, sp, asr r0
    3664:	0003cd11 	andeq	ip, r3, r1, lsl sp
    3668:	01210400 			; <UNDEFINED> instruction: 0x01210400
    366c:	000003d5 	ldrdeq	r0, [r0], -r5
    3670:	0001db11 	andeq	sp, r1, r1, lsl fp
    3674:	01290400 			; <UNDEFINED> instruction: 0x01290400
    3678:	00000033 	andeq	r0, r0, r3, lsr r0
    367c:	0000a311 	andeq	sl, r0, r1, lsl r3
    3680:	012a0400 			; <UNDEFINED> instruction: 0x012a0400
    3684:	0000005d 	andeq	r0, r0, sp, asr r0
    3688:	000c5918 	andeq	r5, ip, r8, lsl r9
    368c:	b7210100 	strlt	r0, [r1, -r0, lsl #2]!
    3690:	50000000 	andpl	r0, r0, r0
    3694:	48000162 	stmdami	r0, {r1, r5, r6, r8}
    3698:	01000000 	mrseq	r0, (UNDEF: 0)
    369c:	0004639c 	muleq	r4, ip, r3
    36a0:	0c4b1900 	mcrreq	9, 0, r1, fp, cr0	; <UNPREDICTABLE>
    36a4:	21010000 	mrscs	r0, (UNDEF: 1)
    36a8:	00000033 	andeq	r0, r0, r3, lsr r0
    36ac:	1a6c9102 	bne	1b27abc <__bss_end__+0x1afcb50>
    36b0:	00000c50 	andeq	r0, r0, r0, asr ip
    36b4:	00b72301 	adcseq	r2, r7, r1, lsl #6
    36b8:	91020000 	mrsls	r0, (UNDEF: 2)
    36bc:	3e180074 	mrccc	0, 0, r0, cr8, cr4, {3}
    36c0:	0100000c 	tsteq	r0, ip
    36c4:	00003318 	andeq	r3, r0, r8, lsl r3
    36c8:	01620400 	cmneq	r2, r0, lsl #8
    36cc:	00004c00 	andeq	r4, r0, r0, lsl #24
    36d0:	989c0100 	ldmls	ip, {r8}
    36d4:	1b000004 	blne	36ec <shift+0x36ec>
    36d8:	01006874 	tsteq	r0, r4, ror r8
    36dc:	0000d618 	andeq	sp, r0, r8, lsl r6
    36e0:	74910200 	ldrvc	r0, [r1], #512	; 0x200
    36e4:	000bf419 	andeq	pc, fp, r9, lsl r4	; <UNPREDICTABLE>
    36e8:	98180100 	ldmdals	r8, {r8}
    36ec:	02000004 	andeq	r0, r0, #4
    36f0:	06007091 			; <UNDEFINED> instruction: 0x06007091
    36f4:	0000b704 	andeq	fp, r0, r4, lsl #14
    36f8:	0c231800 	stceq	8, cr1, [r3], #-0
    36fc:	11010000 	mrsne	r0, (UNDEF: 1)
    3700:	00000033 	andeq	r0, r0, r3, lsr r0
    3704:	000161a8 	andeq	r6, r1, r8, lsr #3
    3708:	0000005c 	andeq	r0, r0, ip, asr r0
    370c:	04f09c01 	ldrbteq	r9, [r0], #3073	; 0xc01
    3710:	42190000 	andsmi	r0, r9, #0
    3714:	0100000c 	tsteq	r0, ip
    3718:	0004f011 	andeq	pc, r4, r1, lsl r0	; <UNPREDICTABLE>
    371c:	74910200 	ldrvc	r0, [r1], #512	; 0x200
    3720:	000c6c19 	andeq	r6, ip, r9, lsl ip
    3724:	f6110100 			; <UNDEFINED> instruction: 0xf6110100
    3728:	02000004 	andeq	r0, r0, #4
    372c:	30197091 	mulscc	r9, r1, r0
    3730:	0100000c 	tsteq	r0, ip
    3734:	00050b11 	andeq	r0, r5, r1, lsl fp
    3738:	6c910200 	lfmvs	f0, 4, [r1], {0}
    373c:	6772611b 			; <UNDEFINED> instruction: 0x6772611b
    3740:	b7110100 	ldrlt	r0, [r1, -r0, lsl #2]
    3744:	02000000 	andeq	r0, r0, #0
    3748:	06006891 			; <UNDEFINED> instruction: 0x06006891
    374c:	0000d604 	andeq	sp, r0, r4, lsl #12
    3750:	1f040600 	svcne	0x00040600
    3754:	1c000001 	stcne	0, cr0, [r0], {1}
    3758:	000000b7 	strheq	r0, [r0], -r7
    375c:	0000050b 	andeq	r0, r0, fp, lsl #10
    3760:	0000b71d 	andeq	fp, r0, sp, lsl r7
    3764:	04060000 	streq	r0, [r6], #-0
    3768:	000004fc 	strdeq	r0, [r0], -ip
    376c:	000c1a1e 	andeq	r1, ip, lr, lsl sl
    3770:	580b0100 	stmdapl	fp, {r8}
    3774:	50000161 	andpl	r0, r0, r1, ror #2
    3778:	01000000 	mrseq	r0, (UNDEF: 0)
    377c:	00691b9c 	mlseq	r9, ip, fp, r1
    3780:	00330b01 	eorseq	r0, r3, r1, lsl #22
    3784:	91020000 	mrsls	r0, (UNDEF: 2)
    3788:	06771a6c 	ldrbteq	r1, [r7], -ip, ror #20
    378c:	0d010000 	stceq	0, cr0, [r1, #-0]
    3790:	000000cb 	andeq	r0, r0, fp, asr #1
    3794:	1f749102 	svcne	0x00749102
    3798:	00646e65 	rsbeq	r6, r4, r5, ror #28
    379c:	00cb0d01 	sbceq	r0, fp, r1, lsl #26
    37a0:	91020000 	mrsls	r0, (UNDEF: 2)
    37a4:	Adresse 0x000037a4 hors intervalle.


Déassemblage de la section .debug_abbrev :

00000000 <.debug_abbrev>:
   0:	25011101 	strcs	r1, [r1, #-257]	; 0xfffffeff
   4:	030b130e 	movweq	r1, #45838	; 0xb30e
   8:	110e1b0e 	tstne	lr, lr, lsl #22
   c:	10061201 	andne	r1, r6, r1, lsl #4
  10:	02000017 	andeq	r0, r0, #23
  14:	0b0b0024 	bleq	2c00ac <__bss_end__+0x295140>
  18:	0e030b3e 	vmoveq.16	d3[0], r0
  1c:	24030000 	strcs	r0, [r3], #-0
  20:	3e0b0b00 	vmlacc.f64	d0, d11, d0
  24:	0008030b 	andeq	r0, r8, fp, lsl #6
  28:	00160400 	andseq	r0, r6, r0, lsl #8
  2c:	0b3a0e03 	bleq	e83840 <__bss_end__+0xe588d4>
  30:	13490b3b 	movtne	r0, #39739	; 0x9b3b
  34:	13050000 	movwne	r0, #20480	; 0x5000
  38:	0b0e0301 	bleq	380c44 <__bss_end__+0x355cd8>
  3c:	3b0b3a0b 	blcc	2ce870 <__bss_end__+0x2a3904>
  40:	0013010b 	andseq	r0, r3, fp, lsl #2
  44:	000d0600 	andeq	r0, sp, r0, lsl #12
  48:	0b3a0803 	bleq	e8205c <__bss_end__+0xe570f0>
  4c:	13490b3b 	movtne	r0, #39739	; 0x9b3b
  50:	00000b38 	andeq	r0, r0, r8, lsr fp
  54:	03000d07 	movweq	r0, #3335	; 0xd07
  58:	3b0b3a0e 	blcc	2ce898 <__bss_end__+0x2a392c>
  5c:	3813490b 	ldmdacc	r3, {r0, r1, r3, r8, fp, lr}
  60:	0800000b 	stmdaeq	r0, {r0, r1, r3}
  64:	13490101 	movtne	r0, #37121	; 0x9101
  68:	00001301 	andeq	r1, r0, r1, lsl #6
  6c:	00002109 	andeq	r2, r0, r9, lsl #2
  70:	000f0a00 	andeq	r0, pc, r0, lsl #20
  74:	13490b0b 	movtne	r0, #39691	; 0x9b0b
  78:	0f0b0000 	svceq	0x000b0000
  7c:	000b0b00 	andeq	r0, fp, r0, lsl #22
  80:	00260c00 	eoreq	r0, r6, r0, lsl #24
  84:	00001349 	andeq	r1, r0, r9, asr #6
  88:	03000d0d 	movweq	r0, #3341	; 0xd0d
  8c:	3b0b3a0e 	blcc	2ce8cc <__bss_end__+0x2a3960>
  90:	38134905 	ldmdacc	r3, {r0, r2, r8, fp, lr}
  94:	0e00000b 	cdpeq	0, 0, cr0, cr0, cr11, {0}
  98:	0e030016 	mcreq	0, 0, r0, cr3, cr6, {0}
  9c:	0b3b0b3a 	bleq	ec2d8c <__bss_end__+0xe97e20>
  a0:	210f0000 	mrscs	r0, CPSR
  a4:	2f134900 	svccs	0x00134900
  a8:	1000000b 	andne	r0, r0, fp
  ac:	0e030013 	mcreq	0, 0, r0, cr3, cr3, {0}
  b0:	0000193c 	andeq	r1, r0, ip, lsr r9
  b4:	03003411 	movweq	r3, #1041	; 0x411
  b8:	3b0b3a0e 	blcc	2ce8f8 <__bss_end__+0x2a398c>
  bc:	3f134905 	svccc	0x00134905
  c0:	00193c19 	andseq	r3, r9, r9, lsl ip
  c4:	00341200 	eorseq	r1, r4, r0, lsl #4
  c8:	0b3a0e03 	bleq	e838dc <__bss_end__+0xe58970>
  cc:	13490b3b 	movtne	r0, #39739	; 0x9b3b
  d0:	193c193f 	ldmdbne	ip!, {r0, r1, r2, r3, r4, r5, r8, fp, ip}
  d4:	04130000 	ldreq	r0, [r3], #-0
  d8:	490b0b01 	stmdbmi	fp, {r0, r8, r9, fp}
  dc:	3b0b3a13 	blcc	2ce930 <__bss_end__+0x2a39c4>
  e0:	00130105 	andseq	r0, r3, r5, lsl #2
  e4:	00281400 	eoreq	r1, r8, r0, lsl #8
  e8:	0d1c0e03 	ldceq	14, cr0, [ip, #-12]
  ec:	28150000 	ldmdacs	r5, {}	; <UNPREDICTABLE>
  f0:	1c0e0300 	stcne	3, cr0, [lr], {-0}
  f4:	1600000b 	strne	r0, [r0], -fp
  f8:	0e030016 	mcreq	0, 0, r0, cr3, cr6, {0}
  fc:	053b0b3a 	ldreq	r0, [fp, #-2874]!	; 0xfffff4c6
 100:	00001349 	andeq	r1, r0, r9, asr #6
 104:	3f012e17 	svccc	0x00012e17
 108:	3a0e0319 	bcc	380d74 <__bss_end__+0x355e08>
 10c:	490b3b0b 	stmdbmi	fp, {r0, r1, r3, r8, r9, fp, ip, sp}
 110:	12011113 	andne	r1, r1, #-1073741820	; 0xc0000004
 114:	96184006 	ldrls	r4, [r8], -r6
 118:	13011942 	movwne	r1, #6466	; 0x1942
 11c:	34180000 	ldrcc	r0, [r8], #-0
 120:	3a0e0300 	bcc	380d28 <__bss_end__+0x355dbc>
 124:	490b3b0b 	stmdbmi	fp, {r0, r1, r3, r8, r9, fp, ip, sp}
 128:	00180213 	andseq	r0, r8, r3, lsl r2
 12c:	00341900 	eorseq	r1, r4, r0, lsl #18
 130:	0b3a0803 	bleq	e82144 <__bss_end__+0xe571d8>
 134:	13490b3b 	movtne	r0, #39739	; 0x9b3b
 138:	00001802 	andeq	r1, r0, r2, lsl #16
 13c:	11010b1a 	tstne	r1, sl, lsl fp
 140:	00061201 	andeq	r1, r6, r1, lsl #4
 144:	01011b00 	tsteq	r1, r0, lsl #22
 148:	00001349 	andeq	r1, r0, r9, asr #6
 14c:	01110100 	tsteq	r1, r0, lsl #2
 150:	0b130e25 	bleq	4c39ec <__bss_end__+0x498a80>
 154:	0e1b0e03 	cdpeq	14, 1, cr0, cr11, cr3, {0}
 158:	06120111 			; <UNDEFINED> instruction: 0x06120111
 15c:	00001710 	andeq	r1, r0, r0, lsl r7
 160:	0b002402 	bleq	9170 <shift+0x9170>
 164:	030b3e0b 	movweq	r3, #48651	; 0xbe0b
 168:	0300000e 	movweq	r0, #14
 16c:	0b0b0024 	bleq	2c0204 <__bss_end__+0x295298>
 170:	08030b3e 	stmdaeq	r3, {r1, r2, r3, r4, r5, r8, r9, fp}
 174:	16040000 	strne	r0, [r4], -r0
 178:	3a0e0300 	bcc	380d80 <__bss_end__+0x355e14>
 17c:	490b3b0b 	stmdbmi	fp, {r0, r1, r3, r8, r9, fp, ip, sp}
 180:	05000013 	streq	r0, [r0, #-19]	; 0xffffffed
 184:	13490026 	movtne	r0, #36902	; 0x9026
 188:	13060000 	movwne	r0, #24576	; 0x6000
 18c:	0b0e0301 	bleq	380d98 <__bss_end__+0x355e2c>
 190:	3b0b3a0b 	blcc	2ce9c4 <__bss_end__+0x2a3a58>
 194:	0013010b 	andseq	r0, r3, fp, lsl #2
 198:	000d0700 	andeq	r0, sp, r0, lsl #14
 19c:	0b3a0803 	bleq	e821b0 <__bss_end__+0xe57244>
 1a0:	13490b3b 	movtne	r0, #39739	; 0x9b3b
 1a4:	00000b38 	andeq	r0, r0, r8, lsr fp
 1a8:	03000d08 	movweq	r0, #3336	; 0xd08
 1ac:	3b0b3a0e 	blcc	2ce9ec <__bss_end__+0x2a3a80>
 1b0:	3813490b 	ldmdacc	r3, {r0, r1, r3, r8, fp, lr}
 1b4:	0900000b 	stmdbeq	r0, {r0, r1, r3}
 1b8:	0e030034 	mcreq	0, 0, r0, cr3, cr4, {1}
 1bc:	0b3b0b3a 	bleq	ec2eac <__bss_end__+0xe97f40>
 1c0:	193f1349 	ldmdbne	pc!, {r0, r3, r6, r8, r9, ip}	; <UNPREDICTABLE>
 1c4:	0000193c 	andeq	r1, r0, ip, lsr r9
 1c8:	0b01040a 	bleq	411f8 <__bss_end__+0x1628c>
 1cc:	3a13490b 	bcc	4d2600 <__bss_end__+0x4a7694>
 1d0:	01053b0b 	tsteq	r5, fp, lsl #22
 1d4:	0b000013 	bleq	228 <shift+0x228>
 1d8:	0e030028 	cdpeq	0, 0, cr0, cr3, cr8, {1}
 1dc:	00000d1c 	andeq	r0, r0, ip, lsl sp
 1e0:	0300280c 	movweq	r2, #2060	; 0x80c
 1e4:	000b1c0e 	andeq	r1, fp, lr, lsl #24
 1e8:	00160d00 	andseq	r0, r6, r0, lsl #26
 1ec:	0b3a0e03 	bleq	e83a00 <__bss_end__+0xe58a94>
 1f0:	1349053b 	movtne	r0, #38203	; 0x953b
 1f4:	340e0000 	strcc	r0, [lr], #-0
 1f8:	3a0e0300 	bcc	380e00 <__bss_end__+0x355e94>
 1fc:	49053b0b 	stmdbmi	r5, {r0, r1, r3, r8, r9, fp, ip, sp}
 200:	3c193f13 	ldccc	15, cr3, [r9], {19}
 204:	0f000019 	svceq	0x00000019
 208:	0e03012e 	adfeqsp	f0, f3, #0.5
 20c:	0b3b0b3a 	bleq	ec2efc <__bss_end__+0xe97f90>
 210:	01111927 	tsteq	r1, r7, lsr #18
 214:	18400612 	stmdane	r0, {r1, r4, r9, sl}^
 218:	01194297 			; <UNDEFINED> instruction: 0x01194297
 21c:	10000013 	andne	r0, r0, r3, lsl r0
 220:	0e030005 	cdpeq	0, 0, cr0, cr3, cr5, {0}
 224:	0b3b0b3a 	bleq	ec2f14 <__bss_end__+0xe97fa8>
 228:	18021349 	stmdane	r2, {r0, r3, r6, r8, r9, ip}
 22c:	05110000 	ldreq	r0, [r1, #-0]
 230:	3a080300 	bcc	200e38 <__bss_end__+0x1d5ecc>
 234:	490b3b0b 	stmdbmi	fp, {r0, r1, r3, r8, r9, fp, ip, sp}
 238:	00180213 	andseq	r0, r8, r3, lsl r2
 23c:	000f1200 	andeq	r1, pc, r0, lsl #4
 240:	13490b0b 	movtne	r0, #39691	; 0x9b0b
 244:	01130000 	tsteq	r3, r0
 248:	01134901 	tsteq	r3, r1, lsl #18
 24c:	14000013 	strne	r0, [r0], #-19	; 0xffffffed
 250:	13490021 	movtne	r0, #36897	; 0x9021
 254:	00000b2f 	andeq	r0, r0, pc, lsr #22
 258:	3f012e15 	svccc	0x00012e15
 25c:	3a0e0319 	bcc	380ec8 <__bss_end__+0x355f5c>
 260:	270b3b0b 	strcs	r3, [fp, -fp, lsl #22]
 264:	12011119 	andne	r1, r1, #1073741830	; 0x40000006
 268:	96184006 	ldrls	r4, [r8], -r6
 26c:	13011942 	movwne	r1, #6466	; 0x1942
 270:	34160000 	ldrcc	r0, [r6], #-0
 274:	3a080300 	bcc	200e7c <__bss_end__+0x1d5f10>
 278:	490b3b0b 	stmdbmi	fp, {r0, r1, r3, r8, r9, fp, ip, sp}
 27c:	00180213 	andseq	r0, r8, r3, lsl r2
 280:	00341700 	eorseq	r1, r4, r0, lsl #14
 284:	0b3a0e03 	bleq	e83a98 <__bss_end__+0xe58b2c>
 288:	13490b3b 	movtne	r0, #39739	; 0x9b3b
 28c:	00001802 	andeq	r1, r0, r2, lsl #16
 290:	3f012e18 	svccc	0x00012e18
 294:	3a0e0319 	bcc	380f00 <__bss_end__+0x355f94>
 298:	270b3b0b 	strcs	r3, [fp, -fp, lsl #22]
 29c:	12011119 	andne	r1, r1, #1073741830	; 0x40000006
 2a0:	96184006 	ldrls	r4, [r8], -r6
 2a4:	00001942 	andeq	r1, r0, r2, asr #18
 2a8:	01110100 	tsteq	r1, r0, lsl #2
 2ac:	0b130e25 	bleq	4c3b48 <__bss_end__+0x498bdc>
 2b0:	0e1b0e03 	cdpeq	14, 1, cr0, cr11, cr3, {0}
 2b4:	06120111 			; <UNDEFINED> instruction: 0x06120111
 2b8:	00001710 	andeq	r1, r0, r0, lsl r7
 2bc:	0b002402 	bleq	92cc <shift+0x92cc>
 2c0:	030b3e0b 	movweq	r3, #48651	; 0xbe0b
 2c4:	0300000e 	movweq	r0, #14
 2c8:	0e030034 	mcreq	0, 0, r0, cr3, cr4, {1}
 2cc:	0b3b0b3a 	bleq	ec2fbc <__bss_end__+0xe98050>
 2d0:	193f1349 	ldmdbne	pc!, {r0, r3, r6, r8, r9, ip}	; <UNPREDICTABLE>
 2d4:	0000193c 	andeq	r1, r0, ip, lsr r9
 2d8:	0b002404 	bleq	92f0 <shift+0x92f0>
 2dc:	030b3e0b 	movweq	r3, #48651	; 0xbe0b
 2e0:	05000008 	streq	r0, [r0, #-8]
 2e4:	0b0b0104 	bleq	2c06fc <__bss_end__+0x295790>
 2e8:	0b3a1349 	bleq	e85014 <__bss_end__+0xe5a0a8>
 2ec:	1301053b 	movwne	r0, #5435	; 0x153b
 2f0:	28060000 	stmdacs	r6, {}	; <UNPREDICTABLE>
 2f4:	1c0e0300 	stcne	3, cr0, [lr], {-0}
 2f8:	0700000d 	streq	r0, [r0, -sp]
 2fc:	0e030028 	cdpeq	0, 0, cr0, cr3, cr8, {1}
 300:	00000b1c 	andeq	r0, r0, ip, lsl fp
 304:	03001608 	movweq	r1, #1544	; 0x608
 308:	3b0b3a0e 	blcc	2ceb48 <__bss_end__+0x2a3bdc>
 30c:	00134905 	andseq	r4, r3, r5, lsl #18
 310:	00340900 	eorseq	r0, r4, r0, lsl #18
 314:	0b3a0e03 	bleq	e83b28 <__bss_end__+0xe58bbc>
 318:	1349053b 	movtne	r0, #38203	; 0x953b
 31c:	193c193f 	ldmdbne	ip!, {r0, r1, r2, r3, r4, r5, r8, fp, ip}
 320:	160a0000 	strne	r0, [sl], -r0
 324:	3a0e0300 	bcc	380f2c <__bss_end__+0x355fc0>
 328:	490b3b0b 	stmdbmi	fp, {r0, r1, r3, r8, r9, fp, ip, sp}
 32c:	0b000013 	bleq	380 <shift+0x380>
 330:	0e030113 	mcreq	1, 0, r0, cr3, cr3, {0}
 334:	0b3a0b0b 	bleq	e82f68 <__bss_end__+0xe57ffc>
 338:	13010b3b 	movwne	r0, #6971	; 0x1b3b
 33c:	0d0c0000 	stceq	0, cr0, [ip, #-0]
 340:	3a080300 	bcc	200f48 <__bss_end__+0x1d5fdc>
 344:	490b3b0b 	stmdbmi	fp, {r0, r1, r3, r8, r9, fp, ip, sp}
 348:	000b3813 	andeq	r3, fp, r3, lsl r8
 34c:	000d0d00 	andeq	r0, sp, r0, lsl #26
 350:	0b3a0e03 	bleq	e83b64 <__bss_end__+0xe58bf8>
 354:	13490b3b 	movtne	r0, #39739	; 0x9b3b
 358:	00000b38 	andeq	r0, r0, r8, lsr fp
 35c:	4901010e 	stmdbmi	r1, {r1, r2, r3, r8}
 360:	00130113 	andseq	r0, r3, r3, lsl r1
 364:	00210f00 	eoreq	r0, r1, r0, lsl #30
 368:	0f100000 	svceq	0x00100000
 36c:	490b0b00 	stmdbmi	fp, {r8, r9, fp}
 370:	11000013 	tstne	r0, r3, lsl r0
 374:	0e030104 	adfeqs	f0, f3, f4
 378:	13490b0b 	movtne	r0, #39691	; 0x9b0b
 37c:	0b3b0b3a 	bleq	ec306c <__bss_end__+0xe98100>
 380:	00001301 	andeq	r1, r0, r1, lsl #6
 384:	03001612 	movweq	r1, #1554	; 0x612
 388:	3b0b3a08 	blcc	2cebb0 <__bss_end__+0x2a3c44>
 38c:	0013490b 	andseq	r4, r3, fp, lsl #18
 390:	01131300 	tsteq	r3, r0, lsl #6
 394:	0b0b0803 	bleq	2c23a8 <__bss_end__+0x29743c>
 398:	0b3b0b3a 	bleq	ec3088 <__bss_end__+0xe9811c>
 39c:	00001301 	andeq	r1, r0, r1, lsl #6
 3a0:	49002114 	stmdbmi	r0, {r2, r4, r8, sp}
 3a4:	000b2f13 	andeq	r2, fp, r3, lsl pc
 3a8:	01131500 	tsteq	r3, r0, lsl #10
 3ac:	050b0e03 	streq	r0, [fp, #-3587]	; 0xfffff1fd
 3b0:	0b3b0b3a 	bleq	ec30a0 <__bss_end__+0xe98134>
 3b4:	00001301 	andeq	r1, r0, r1, lsl #6
 3b8:	49002116 	stmdbmi	r0, {r1, r2, r4, r8, sp}
 3bc:	00052f13 	andeq	r2, r5, r3, lsl pc
 3c0:	01131700 	tsteq	r3, r0, lsl #14
 3c4:	0b3a0b0b 	bleq	e82ff8 <__bss_end__+0xe5808c>
 3c8:	13010b3b 	movwne	r0, #6971	; 0x1b3b
 3cc:	2e180000 	cdpcs	0, 1, cr0, cr8, cr0, {0}
 3d0:	03193f01 	tsteq	r9, #1, 30
 3d4:	3b0b3a0e 	blcc	2cec14 <__bss_end__+0x2a3ca8>
 3d8:	11192705 	tstne	r9, r5, lsl #14
 3dc:	40061201 	andmi	r1, r6, r1, lsl #4
 3e0:	19429618 	stmdbne	r2, {r3, r4, r9, sl, ip, pc}^
 3e4:	00001301 	andeq	r1, r0, r1, lsl #6
 3e8:	03000519 	movweq	r0, #1305	; 0x519
 3ec:	3b0b3a08 	blcc	2cec14 <__bss_end__+0x2a3ca8>
 3f0:	02134905 	andseq	r4, r3, #81920	; 0x14000
 3f4:	1a000018 	bne	45c <shift+0x45c>
 3f8:	0e030005 	cdpeq	0, 0, cr0, cr3, cr5, {0}
 3fc:	053b0b3a 	ldreq	r0, [fp, #-2874]!	; 0xfffff4c6
 400:	18021349 	stmdane	r2, {r0, r3, r6, r8, r9, ip}
 404:	341b0000 	ldrcc	r0, [fp], #-0
 408:	3a0e0300 	bcc	381010 <__bss_end__+0x3560a4>
 40c:	49053b0b 	stmdbmi	r5, {r0, r1, r3, r8, r9, fp, ip, sp}
 410:	00180213 	andseq	r0, r8, r3, lsl r2
 414:	00341c00 	eorseq	r1, r4, r0, lsl #24
 418:	0b3a0803 	bleq	e8242c <__bss_end__+0xe574c0>
 41c:	1349053b 	movtne	r0, #38203	; 0x953b
 420:	00001802 	andeq	r1, r0, r2, lsl #16
 424:	03012e1d 	movweq	r2, #7709	; 0x1e1d
 428:	3b0b3a0e 	blcc	2cec68 <__bss_end__+0x2a3cfc>
 42c:	11192705 	tstne	r9, r5, lsl #14
 430:	40061201 	andmi	r1, r6, r1, lsl #4
 434:	19429618 	stmdbne	r2, {r3, r4, r9, sl, ip, pc}^
 438:	00001301 	andeq	r1, r0, r1, lsl #6
 43c:	03012e1e 	movweq	r2, #7710	; 0x1e1e
 440:	3b0b3a0e 	blcc	2cec80 <__bss_end__+0x2a3d14>
 444:	4919270b 	ldmdbmi	r9, {r0, r1, r3, r8, r9, sl, sp}
 448:	12011113 	andne	r1, r1, #-1073741820	; 0xc0000004
 44c:	96184006 	ldrls	r4, [r8], -r6
 450:	13011942 	movwne	r1, #6466	; 0x1942
 454:	051f0000 	ldreq	r0, [pc, #-0]	; 45c <shift+0x45c>
 458:	3a0e0300 	bcc	381060 <__bss_end__+0x3560f4>
 45c:	490b3b0b 	stmdbmi	fp, {r0, r1, r3, r8, r9, fp, ip, sp}
 460:	00180213 	andseq	r0, r8, r3, lsl r2
 464:	00342000 	eorseq	r2, r4, r0
 468:	0b3a0e03 	bleq	e83c7c <__bss_end__+0xe58d10>
 46c:	13490b3b 	movtne	r0, #39739	; 0x9b3b
 470:	00001802 	andeq	r1, r0, r2, lsl #16
 474:	03003421 	movweq	r3, #1057	; 0x421
 478:	3b0b3a08 	blcc	2ceca0 <__bss_end__+0x2a3d34>
 47c:	0213490b 	andseq	r4, r3, #180224	; 0x2c000
 480:	22000018 	andcs	r0, r0, #24
 484:	0111010b 	tsteq	r1, fp, lsl #2
 488:	13010612 	movwne	r0, #5650	; 0x1612
 48c:	0b230000 	bleq	8c0494 <__bss_end__+0x895528>
 490:	12011101 	andne	r1, r1, #1073741824	; 0x40000000
 494:	24000006 	strcs	r0, [r0], #-6
 498:	08030005 	stmdaeq	r3, {r0, r2}
 49c:	0b3b0b3a 	bleq	ec318c <__bss_end__+0xe98220>
 4a0:	18021349 	stmdane	r2, {r0, r3, r6, r8, r9, ip}
 4a4:	2e250000 	cdpcs	0, 2, cr0, cr5, cr0, {0}
 4a8:	3a0e0301 	bcc	3810b4 <__bss_end__+0x356148>
 4ac:	270b3b0b 	strcs	r3, [fp, -fp, lsl #22]
 4b0:	11134919 	tstne	r3, r9, lsl r9
 4b4:	40061201 	andmi	r1, r6, r1, lsl #4
 4b8:	19429718 	stmdbne	r2, {r3, r4, r8, r9, sl, ip, pc}^
 4bc:	00001301 	andeq	r1, r0, r1, lsl #6
 4c0:	03012e26 	movweq	r2, #7718	; 0x1e26
 4c4:	3b0b3a0e 	blcc	2ced04 <__bss_end__+0x2a3d98>
 4c8:	1119270b 	tstne	r9, fp, lsl #14
 4cc:	40061201 	andmi	r1, r6, r1, lsl #4
 4d0:	19429618 	stmdbne	r2, {r3, r4, r9, sl, ip, pc}^
 4d4:	00001301 	andeq	r1, r0, r1, lsl #6
 4d8:	03012e27 	movweq	r2, #7719	; 0x1e27
 4dc:	3b0b3a0e 	blcc	2ced1c <__bss_end__+0x2a3db0>
 4e0:	4919270b 	ldmdbmi	r9, {r0, r1, r3, r8, r9, sl, sp}
 4e4:	12011113 	andne	r1, r1, #-1073741820	; 0xc0000004
 4e8:	97184006 	ldrls	r4, [r8, -r6]
 4ec:	00001942 	andeq	r1, r0, r2, asr #18
 4f0:	01110100 	tsteq	r1, r0, lsl #2
 4f4:	0b130e25 	bleq	4c3d90 <__bss_end__+0x498e24>
 4f8:	0e1b0e03 	cdpeq	14, 1, cr0, cr11, cr3, {0}
 4fc:	06120111 			; <UNDEFINED> instruction: 0x06120111
 500:	00001710 	andeq	r1, r0, r0, lsl r7
 504:	03001602 	movweq	r1, #1538	; 0x602
 508:	3b0b3a0e 	blcc	2ced48 <__bss_end__+0x2a3ddc>
 50c:	0013490b 	andseq	r4, r3, fp, lsl #18
 510:	00240300 	eoreq	r0, r4, r0, lsl #6
 514:	0b3e0b0b 	bleq	f83148 <__bss_end__+0xf581dc>
 518:	00000e03 	andeq	r0, r0, r3, lsl #28
 51c:	0b002404 	bleq	9534 <shift+0x9534>
 520:	030b3e0b 	movweq	r3, #48651	; 0xbe0b
 524:	05000008 	streq	r0, [r0, #-8]
 528:	0b0b000f 	bleq	2c056c <__bss_end__+0x295600>
 52c:	0f060000 	svceq	0x00060000
 530:	490b0b00 	stmdbmi	fp, {r8, r9, fp}
 534:	07000013 	smladeq	r0, r3, r0, r0
 538:	13490026 	movtne	r0, #36902	; 0x9026
 53c:	13080000 	movwne	r0, #32768	; 0x8000
 540:	0b0e0301 	bleq	38114c <__bss_end__+0x3561e0>
 544:	3b0b3a0b 	blcc	2ced78 <__bss_end__+0x2a3e0c>
 548:	0013010b 	andseq	r0, r3, fp, lsl #2
 54c:	000d0900 	andeq	r0, sp, r0, lsl #18
 550:	0b3a0e03 	bleq	e83d64 <__bss_end__+0xe58df8>
 554:	13490b3b 	movtne	r0, #39739	; 0x9b3b
 558:	00000b38 	andeq	r0, r0, r8, lsr fp
 55c:	03000d0a 	movweq	r0, #3338	; 0xd0a
 560:	3b0b3a0e 	blcc	2ceda0 <__bss_end__+0x2a3e34>
 564:	38134905 	ldmdacc	r3, {r0, r2, r8, fp, lr}
 568:	0b00000b 	bleq	59c <shift+0x59c>
 56c:	0e030016 	mcreq	0, 0, r0, cr3, cr6, {0}
 570:	0b3b0b3a 	bleq	ec3260 <__bss_end__+0xe982f4>
 574:	010c0000 	mrseq	r0, (UNDEF: 12)
 578:	01134901 	tsteq	r3, r1, lsl #18
 57c:	0d000013 	stceq	0, cr0, [r0, #-76]	; 0xffffffb4
 580:	13490021 	movtne	r0, #36897	; 0x9021
 584:	00000b2f 	andeq	r0, r0, pc, lsr #22
 588:	0300130e 	movweq	r1, #782	; 0x30e
 58c:	00193c0e 	andseq	r3, r9, lr, lsl #24
 590:	00340f00 	eorseq	r0, r4, r0, lsl #30
 594:	0b3a0e03 	bleq	e83da8 <__bss_end__+0xe58e3c>
 598:	1349053b 	movtne	r0, #38203	; 0x953b
 59c:	193c193f 	ldmdbne	ip!, {r0, r1, r2, r3, r4, r5, r8, fp, ip}
 5a0:	34100000 	ldrcc	r0, [r0], #-0
 5a4:	3a0e0300 	bcc	3811ac <__bss_end__+0x356240>
 5a8:	490b3b0b 	stmdbmi	fp, {r0, r1, r3, r8, r9, fp, ip, sp}
 5ac:	3c193f13 	ldccc	15, cr3, [r9], {19}
 5b0:	11000019 	tstne	r0, r9, lsl r0
 5b4:	00000021 	andeq	r0, r0, r1, lsr #32
 5b8:	03000d12 	movweq	r0, #3346	; 0xd12
 5bc:	3b0b3a08 	blcc	2cede4 <__bss_end__+0x2a3e78>
 5c0:	3813490b 	ldmdacc	r3, {r0, r1, r3, r8, fp, lr}
 5c4:	1300000b 	movwne	r0, #11
 5c8:	0b0b0113 	bleq	2c0a1c <__bss_end__+0x295ab0>
 5cc:	0b3b0b3a 	bleq	ec32bc <__bss_end__+0xe98350>
 5d0:	00001301 	andeq	r1, r0, r1, lsl #6
 5d4:	03003414 	movweq	r3, #1044	; 0x414
 5d8:	3b0b3a0e 	blcc	2cee18 <__bss_end__+0x2a3eac>
 5dc:	3f13490b 	svccc	0x0013490b
 5e0:	00180219 	andseq	r0, r8, r9, lsl r2
 5e4:	012e1500 			; <UNDEFINED> instruction: 0x012e1500
 5e8:	0e03193f 			; <UNDEFINED> instruction: 0x0e03193f
 5ec:	0b3b0b3a 	bleq	ec32dc <__bss_end__+0xe98370>
 5f0:	01111927 	tsteq	r1, r7, lsr #18
 5f4:	18400612 	stmdane	r0, {r1, r4, r9, sl}^
 5f8:	01194296 			; <UNDEFINED> instruction: 0x01194296
 5fc:	16000013 			; <UNDEFINED> instruction: 0x16000013
 600:	08030005 	stmdaeq	r3, {r0, r2}
 604:	0b3b0b3a 	bleq	ec32f4 <__bss_end__+0xe98388>
 608:	18021349 	stmdane	r2, {r0, r3, r6, r8, r9, ip}
 60c:	05170000 	ldreq	r0, [r7, #-0]
 610:	3a0e0300 	bcc	381218 <__bss_end__+0x3562ac>
 614:	490b3b0b 	stmdbmi	fp, {r0, r1, r3, r8, r9, fp, ip, sp}
 618:	00180213 	andseq	r0, r8, r3, lsl r2
 61c:	00341800 	eorseq	r1, r4, r0, lsl #16
 620:	0b3a0e03 	bleq	e83e34 <__bss_end__+0xe58ec8>
 624:	13490b3b 	movtne	r0, #39739	; 0x9b3b
 628:	00001802 	andeq	r1, r0, r2, lsl #16
 62c:	3f012e19 	svccc	0x00012e19
 630:	3a0e0319 	bcc	38129c <__bss_end__+0x356330>
 634:	270b3b0b 	strcs	r3, [fp, -fp, lsl #22]
 638:	11134919 	tstne	r3, r9, lsl r9
 63c:	40061201 	andmi	r1, r6, r1, lsl #4
 640:	19429618 	stmdbne	r2, {r3, r4, r9, sl, ip, pc}^
 644:	00001301 	andeq	r1, r0, r1, lsl #6
 648:	0300341a 	movweq	r3, #1050	; 0x41a
 64c:	3b0b3a08 	blcc	2cee74 <__bss_end__+0x2a3f08>
 650:	0213490b 	andseq	r4, r3, #180224	; 0x2c000
 654:	1b000018 	blne	6bc <shift+0x6bc>
 658:	193f002e 	ldmdbne	pc!, {r1, r2, r3, r5}	; <UNPREDICTABLE>
 65c:	0b3a0e03 	bleq	e83e70 <__bss_end__+0xe58f04>
 660:	19270b3b 	stmdbne	r7!, {r0, r1, r3, r4, r5, r8, r9, fp}
 664:	06120111 			; <UNDEFINED> instruction: 0x06120111
 668:	42961840 	addsmi	r1, r6, #64, 16	; 0x400000
 66c:	1c000019 	stcne	0, cr0, [r0], {25}
 670:	193f012e 	ldmdbne	pc!, {r1, r2, r3, r5, r8}	; <UNPREDICTABLE>
 674:	0b3a0e03 	bleq	e83e88 <__bss_end__+0xe58f1c>
 678:	19270b3b 	stmdbne	r7!, {r0, r1, r3, r4, r5, r8, r9, fp}
 67c:	06120111 			; <UNDEFINED> instruction: 0x06120111
 680:	42961840 	addsmi	r1, r6, #64, 16	; 0x400000
 684:	00000019 	andeq	r0, r0, r9, lsl r0
 688:	25011101 	strcs	r1, [r1, #-257]	; 0xfffffeff
 68c:	030b130e 	movweq	r1, #45838	; 0xb30e
 690:	110e1b0e 	tstne	lr, lr, lsl #22
 694:	10061201 	andne	r1, r6, r1, lsl #4
 698:	02000017 	andeq	r0, r0, #23
 69c:	0b0b0024 	bleq	2c0734 <__bss_end__+0x2957c8>
 6a0:	0e030b3e 	vmoveq.16	d3[0], r0
 6a4:	34030000 	strcc	r0, [r3], #-0
 6a8:	3a0e0300 	bcc	3812b0 <__bss_end__+0x356344>
 6ac:	490b3b0b 	stmdbmi	fp, {r0, r1, r3, r8, r9, fp, ip, sp}
 6b0:	3c193f13 	ldccc	15, cr3, [r9], {19}
 6b4:	04000019 	streq	r0, [r0], #-25	; 0xffffffe7
 6b8:	0b0b0024 	bleq	2c0750 <__bss_end__+0x2957e4>
 6bc:	08030b3e 	stmdaeq	r3, {r1, r2, r3, r4, r5, r8, r9, fp}
 6c0:	04050000 	streq	r0, [r5], #-0
 6c4:	490b0b01 	stmdbmi	fp, {r0, r8, r9, fp}
 6c8:	3b0b3a13 	blcc	2cef1c <__bss_end__+0x2a3fb0>
 6cc:	00130105 	andseq	r0, r3, r5, lsl #2
 6d0:	00280600 	eoreq	r0, r8, r0, lsl #12
 6d4:	0d1c0e03 	ldceq	14, cr0, [ip, #-12]
 6d8:	28070000 	stmdacs	r7, {}	; <UNPREDICTABLE>
 6dc:	1c0e0300 	stcne	3, cr0, [lr], {-0}
 6e0:	0800000b 	stmdaeq	r0, {r0, r1, r3}
 6e4:	0e030016 	mcreq	0, 0, r0, cr3, cr6, {0}
 6e8:	053b0b3a 	ldreq	r0, [fp, #-2874]!	; 0xfffff4c6
 6ec:	00001349 	andeq	r1, r0, r9, asr #6
 6f0:	03003409 	movweq	r3, #1033	; 0x409
 6f4:	3b0b3a0e 	blcc	2cef34 <__bss_end__+0x2a3fc8>
 6f8:	3f134905 	svccc	0x00134905
 6fc:	00193c19 	andseq	r3, r9, r9, lsl ip
 700:	00160a00 	andseq	r0, r6, r0, lsl #20
 704:	0b3a0e03 	bleq	e83f18 <__bss_end__+0xe58fac>
 708:	13490b3b 	movtne	r0, #39739	; 0x9b3b
 70c:	130b0000 	movwne	r0, #45056	; 0xb000
 710:	0b0e0301 	bleq	38131c <__bss_end__+0x3563b0>
 714:	3b0b3a0b 	blcc	2cef48 <__bss_end__+0x2a3fdc>
 718:	0013010b 	andseq	r0, r3, fp, lsl #2
 71c:	000d0c00 	andeq	r0, sp, r0, lsl #24
 720:	0b3a0803 	bleq	e82734 <__bss_end__+0xe577c8>
 724:	13490b3b 	movtne	r0, #39739	; 0x9b3b
 728:	00000b38 	andeq	r0, r0, r8, lsr fp
 72c:	03000d0d 	movweq	r0, #3341	; 0xd0d
 730:	3b0b3a0e 	blcc	2cef70 <__bss_end__+0x2a4004>
 734:	3813490b 	ldmdacc	r3, {r0, r1, r3, r8, fp, lr}
 738:	0e00000b 	cdpeq	0, 0, cr0, cr0, cr11, {0}
 73c:	0e030104 	adfeqs	f0, f3, f4
 740:	13490b0b 	movtne	r0, #39691	; 0x9b0b
 744:	0b3b0b3a 	bleq	ec3434 <__bss_end__+0xe984c8>
 748:	00001301 	andeq	r1, r0, r1, lsl #6
 74c:	0300160f 	movweq	r1, #1551	; 0x60f
 750:	3b0b3a08 	blcc	2cef78 <__bss_end__+0x2a400c>
 754:	0013490b 	andseq	r4, r3, fp, lsl #18
 758:	01131000 	tsteq	r3, r0
 75c:	0b0b0803 	bleq	2c2770 <__bss_end__+0x297804>
 760:	0b3b0b3a 	bleq	ec3450 <__bss_end__+0xe984e4>
 764:	00001301 	andeq	r1, r0, r1, lsl #6
 768:	0b000f11 	bleq	43b4 <shift+0x43b4>
 76c:	0013490b 	andseq	r4, r3, fp, lsl #18
 770:	01011200 	mrseq	r1, R9_usr
 774:	13011349 	movwne	r1, #4937	; 0x1349
 778:	21130000 	tstcs	r3, r0
 77c:	2f134900 	svccs	0x00134900
 780:	1400000b 	strne	r0, [r0], #-11
 784:	0b0b0113 	bleq	2c0bd8 <__bss_end__+0x295c6c>
 788:	0b3b0b3a 	bleq	ec3478 <__bss_end__+0xe9850c>
 78c:	00001301 	andeq	r1, r0, r1, lsl #6
 790:	3f012e15 	svccc	0x00012e15
 794:	3a0e0319 	bcc	381400 <__bss_end__+0x356494>
 798:	27053b0b 	strcs	r3, [r5, -fp, lsl #22]
 79c:	11134919 	tstne	r3, r9, lsl r9
 7a0:	40061201 	andmi	r1, r6, r1, lsl #4
 7a4:	19429618 	stmdbne	r2, {r3, r4, r9, sl, ip, pc}^
 7a8:	00001301 	andeq	r1, r0, r1, lsl #6
 7ac:	03000516 	movweq	r0, #1302	; 0x516
 7b0:	3b0b3a08 	blcc	2cefd8 <__bss_end__+0x2a406c>
 7b4:	02134905 	andseq	r4, r3, #81920	; 0x14000
 7b8:	17000018 	smladne	r0, r8, r0, r0
 7bc:	193f012e 	ldmdbne	pc!, {r1, r2, r3, r5, r8}	; <UNPREDICTABLE>
 7c0:	0b3a0e03 	bleq	e83fd4 <__bss_end__+0xe59068>
 7c4:	1927053b 	stmdbne	r7!, {r0, r1, r3, r4, r5, r8, sl}
 7c8:	01111349 	tsteq	r1, r9, asr #6
 7cc:	18400612 	stmdane	r0, {r1, r4, r9, sl}^
 7d0:	01194297 			; <UNDEFINED> instruction: 0x01194297
 7d4:	18000013 	stmdane	r0, {r0, r1, r4}
 7d8:	08030034 	stmdaeq	r3, {r2, r4, r5}
 7dc:	053b0b3a 	ldreq	r0, [fp, #-2874]!	; 0xfffff4c6
 7e0:	18021349 	stmdane	r2, {r0, r3, r6, r8, r9, ip}
 7e4:	34190000 	ldrcc	r0, [r9], #-0
 7e8:	3a0e0300 	bcc	3813f0 <__bss_end__+0x356484>
 7ec:	49053b0b 	stmdbmi	r5, {r0, r1, r3, r8, r9, fp, ip, sp}
 7f0:	00180213 	andseq	r0, r8, r3, lsl r2
 7f4:	00051a00 	andeq	r1, r5, r0, lsl #20
 7f8:	0b3a0e03 	bleq	e8400c <__bss_end__+0xe590a0>
 7fc:	1349053b 	movtne	r0, #38203	; 0x953b
 800:	00001802 	andeq	r1, r0, r2, lsl #16
 804:	3f012e1b 	svccc	0x00012e1b
 808:	3a0e0319 	bcc	381474 <__bss_end__+0x356508>
 80c:	27053b0b 	strcs	r3, [r5, -fp, lsl #22]
 810:	12011119 	andne	r1, r1, #1073741830	; 0x40000006
 814:	96184006 	ldrls	r4, [r8], -r6
 818:	13011942 	movwne	r1, #6466	; 0x1942
 81c:	2e1c0000 	cdpcs	0, 1, cr0, cr12, cr0, {0}
 820:	03193f01 	tsteq	r9, #1, 30
 824:	3b0b3a0e 	blcc	2cf064 <__bss_end__+0x2a40f8>
 828:	1119270b 	tstne	r9, fp, lsl #14
 82c:	40061201 	andmi	r1, r6, r1, lsl #4
 830:	19429618 	stmdbne	r2, {r3, r4, r9, sl, ip, pc}^
 834:	00001301 	andeq	r1, r0, r1, lsl #6
 838:	0300051d 	movweq	r0, #1309	; 0x51d
 83c:	3b0b3a08 	blcc	2cf064 <__bss_end__+0x2a40f8>
 840:	0213490b 	andseq	r4, r3, #180224	; 0x2c000
 844:	1e000018 	mcrne	0, 0, r0, cr0, cr8, {0}
 848:	0e030005 	cdpeq	0, 0, cr0, cr3, cr5, {0}
 84c:	0b3b0b3a 	bleq	ec353c <__bss_end__+0xe985d0>
 850:	18021349 	stmdane	r2, {r0, r3, r6, r8, r9, ip}
 854:	341f0000 	ldrcc	r0, [pc], #-0	; 85c <shift+0x85c>
 858:	3a0e0300 	bcc	381460 <__bss_end__+0x3564f4>
 85c:	490b3b0b 	stmdbmi	fp, {r0, r1, r3, r8, r9, fp, ip, sp}
 860:	00180213 	andseq	r0, r8, r3, lsl r2
 864:	012e2000 			; <UNDEFINED> instruction: 0x012e2000
 868:	0e03193f 			; <UNDEFINED> instruction: 0x0e03193f
 86c:	0b3b0b3a 	bleq	ec355c <__bss_end__+0xe985f0>
 870:	13491927 	movtne	r1, #39207	; 0x9927
 874:	06120111 			; <UNDEFINED> instruction: 0x06120111
 878:	42961840 	addsmi	r1, r6, #64, 16	; 0x400000
 87c:	00130119 	andseq	r0, r3, r9, lsl r1
 880:	00342100 	eorseq	r2, r4, r0, lsl #2
 884:	0b3a0803 	bleq	e82898 <__bss_end__+0xe5792c>
 888:	13490b3b 	movtne	r0, #39739	; 0x9b3b
 88c:	00001802 	andeq	r1, r0, r2, lsl #16
 890:	3f012e22 	svccc	0x00012e22
 894:	3a0e0319 	bcc	381500 <__bss_end__+0x356594>
 898:	270b3b0b 	strcs	r3, [fp, -fp, lsl #22]
 89c:	11134919 	tstne	r3, r9, lsl r9
 8a0:	40061201 	andmi	r1, r6, r1, lsl #4
 8a4:	19429718 	stmdbne	r2, {r3, r4, r8, r9, sl, ip, pc}^
 8a8:	00001301 	andeq	r1, r0, r1, lsl #6
 8ac:	3f012e23 	svccc	0x00012e23
 8b0:	3a0e0319 	bcc	38151c <__bss_end__+0x3565b0>
 8b4:	270b3b0b 	strcs	r3, [fp, -fp, lsl #22]
 8b8:	11134919 	tstne	r3, r9, lsl r9
 8bc:	40061201 	andmi	r1, r6, r1, lsl #4
 8c0:	19429718 	stmdbne	r2, {r3, r4, r8, r9, sl, ip, pc}^
 8c4:	01000000 	mrseq	r0, (UNDEF: 0)
 8c8:	0e250111 	mcreq	1, 1, r0, cr5, cr1, {0}
 8cc:	0e030b13 	vmoveq.32	d3[0], r0
 8d0:	01110e1b 	tsteq	r1, fp, lsl lr
 8d4:	17100612 			; <UNDEFINED> instruction: 0x17100612
 8d8:	24020000 	strcs	r0, [r2], #-0
 8dc:	3e0b0b00 	vmlacc.f64	d0, d11, d0
 8e0:	000e030b 	andeq	r0, lr, fp, lsl #6
 8e4:	00240300 	eoreq	r0, r4, r0, lsl #6
 8e8:	0b3e0b0b 	bleq	f8351c <__bss_end__+0xf585b0>
 8ec:	00000803 	andeq	r0, r0, r3, lsl #16
 8f0:	03001604 	movweq	r1, #1540	; 0x604
 8f4:	3b0b3a0e 	blcc	2cf134 <__bss_end__+0x2a41c8>
 8f8:	0013490b 	andseq	r4, r3, fp, lsl #18
 8fc:	00260500 	eoreq	r0, r6, r0, lsl #10
 900:	00001349 	andeq	r1, r0, r9, asr #6
 904:	03011306 	movweq	r1, #4870	; 0x1306
 908:	3a0b0b0e 	bcc	2c3548 <__bss_end__+0x2985dc>
 90c:	010b3b0b 	tsteq	fp, fp, lsl #22
 910:	07000013 	smladeq	r0, r3, r0, r0
 914:	0803000d 	stmdaeq	r3, {r0, r2, r3}
 918:	0b3b0b3a 	bleq	ec3608 <__bss_end__+0xe9869c>
 91c:	0b381349 	bleq	e05648 <__bss_end__+0xdda6dc>
 920:	0d080000 	stceq	0, cr0, [r8, #-0]
 924:	3a0e0300 	bcc	38152c <__bss_end__+0x3565c0>
 928:	490b3b0b 	stmdbmi	fp, {r0, r1, r3, r8, r9, fp, ip, sp}
 92c:	000b3813 	andeq	r3, fp, r3, lsl r8
 930:	01010900 	tsteq	r1, r0, lsl #18
 934:	13011349 	movwne	r1, #4937	; 0x1349
 938:	210a0000 	mrscs	r0, (UNDEF: 10)
 93c:	0b000000 	bleq	944 <shift+0x944>
 940:	0b0b000f 	bleq	2c0984 <__bss_end__+0x295a18>
 944:	00001349 	andeq	r1, r0, r9, asr #6
 948:	0300340c 	movweq	r3, #1036	; 0x40c
 94c:	3b0b3a0e 	blcc	2cf18c <__bss_end__+0x2a4220>
 950:	3f13490b 	svccc	0x0013490b
 954:	00193c19 	andseq	r3, r9, r9, lsl ip
 958:	01040d00 	tsteq	r4, r0, lsl #26
 95c:	13490b0b 	movtne	r0, #39691	; 0x9b0b
 960:	053b0b3a 	ldreq	r0, [fp, #-2874]!	; 0xfffff4c6
 964:	00001301 	andeq	r1, r0, r1, lsl #6
 968:	0300280e 	movweq	r2, #2062	; 0x80e
 96c:	000d1c0e 	andeq	r1, sp, lr, lsl #24
 970:	00280f00 	eoreq	r0, r8, r0, lsl #30
 974:	0b1c0e03 	bleq	704188 <__bss_end__+0x6d921c>
 978:	16100000 	ldrne	r0, [r0], -r0
 97c:	3a0e0300 	bcc	381584 <__bss_end__+0x356618>
 980:	49053b0b 	stmdbmi	r5, {r0, r1, r3, r8, r9, fp, ip, sp}
 984:	11000013 	tstne	r0, r3, lsl r0
 988:	0e030034 	mcreq	0, 0, r0, cr3, cr4, {1}
 98c:	053b0b3a 	ldreq	r0, [fp, #-2874]!	; 0xfffff4c6
 990:	193f1349 	ldmdbne	pc!, {r0, r3, r6, r8, r9, ip}	; <UNPREDICTABLE>
 994:	0000193c 	andeq	r1, r0, ip, lsr r9
 998:	0b011312 	bleq	455e8 <__bss_end__+0x1a67c>
 99c:	3b0b3a0b 	blcc	2cf1d0 <__bss_end__+0x2a4264>
 9a0:	0013010b 	andseq	r0, r3, fp, lsl #2
 9a4:	00211300 	eoreq	r1, r1, r0, lsl #6
 9a8:	0b2f1349 	bleq	bc56d4 <__bss_end__+0xb9a768>
 9ac:	34140000 	ldrcc	r0, [r4], #-0
 9b0:	3a080300 	bcc	2015b8 <__bss_end__+0x1d664c>
 9b4:	490b3b0b 	stmdbmi	fp, {r0, r1, r3, r8, r9, fp, ip, sp}
 9b8:	3c193f13 	ldccc	15, cr3, [r9], {19}
 9bc:	15000019 	strne	r0, [r0, #-25]	; 0xffffffe7
 9c0:	08030034 	stmdaeq	r3, {r2, r4, r5}
 9c4:	0b3b0b3a 	bleq	ec36b4 <__bss_end__+0xe98748>
 9c8:	193f1349 	ldmdbne	pc!, {r0, r3, r6, r8, r9, ip}	; <UNPREDICTABLE>
 9cc:	00001802 	andeq	r1, r0, r2, lsl #16
 9d0:	3f012e16 	svccc	0x00012e16
 9d4:	3a0e0319 	bcc	381640 <__bss_end__+0x3566d4>
 9d8:	270b3b0b 	strcs	r3, [fp, -fp, lsl #22]
 9dc:	11134919 	tstne	r3, r9, lsl r9
 9e0:	40061201 	andmi	r1, r6, r1, lsl #4
 9e4:	19429618 	stmdbne	r2, {r3, r4, r9, sl, ip, pc}^
 9e8:	00001301 	andeq	r1, r0, r1, lsl #6
 9ec:	03000517 	movweq	r0, #1303	; 0x517
 9f0:	3b0b3a0e 	blcc	2cf230 <__bss_end__+0x2a42c4>
 9f4:	0213490b 	andseq	r4, r3, #180224	; 0x2c000
 9f8:	18000018 	stmdane	r0, {r3, r4}
 9fc:	0e030034 	mcreq	0, 0, r0, cr3, cr4, {1}
 a00:	0b3b0b3a 	bleq	ec36f0 <__bss_end__+0xe98784>
 a04:	18021349 	stmdane	r2, {r0, r3, r6, r8, r9, ip}
 a08:	0f190000 	svceq	0x00190000
 a0c:	000b0b00 	andeq	r0, fp, r0, lsl #22
 a10:	11010000 	mrsne	r0, (UNDEF: 1)
 a14:	130e2501 	movwne	r2, #58625	; 0xe501
 a18:	1b0e030b 	blne	38164c <__bss_end__+0x3566e0>
 a1c:	0017100e 	andseq	r1, r7, lr
 a20:	00240200 	eoreq	r0, r4, r0, lsl #4
 a24:	0b3e0b0b 	bleq	f83658 <__bss_end__+0xf586ec>
 a28:	00000e03 	andeq	r0, r0, r3, lsl #28
 a2c:	0b002403 	bleq	9a40 <shift+0x9a40>
 a30:	030b3e0b 	movweq	r3, #48651	; 0xbe0b
 a34:	04000008 	streq	r0, [r0], #-8
 a38:	0e030016 	mcreq	0, 0, r0, cr3, cr6, {0}
 a3c:	0b3b0b3a 	bleq	ec372c <__bss_end__+0xe987c0>
 a40:	00001349 	andeq	r1, r0, r9, asr #6
 a44:	49002605 	stmdbmi	r0, {r0, r2, r9, sl, sp}
 a48:	06000013 			; <UNDEFINED> instruction: 0x06000013
 a4c:	0e030113 	mcreq	1, 0, r0, cr3, cr3, {0}
 a50:	0b3a0b0b 	bleq	e83684 <__bss_end__+0xe58718>
 a54:	13010b3b 	movwne	r0, #6971	; 0x1b3b
 a58:	0d070000 	stceq	0, cr0, [r7, #-0]
 a5c:	3a080300 	bcc	201664 <__bss_end__+0x1d66f8>
 a60:	490b3b0b 	stmdbmi	fp, {r0, r1, r3, r8, r9, fp, ip, sp}
 a64:	000b3813 	andeq	r3, fp, r3, lsl r8
 a68:	01010800 	tsteq	r1, r0, lsl #16
 a6c:	13011349 	movwne	r1, #4937	; 0x1349
 a70:	21090000 	mrscs	r0, (UNDEF: 9)
 a74:	0a000000 	beq	a7c <shift+0xa7c>
 a78:	0b0b000f 	bleq	2c0abc <__bss_end__+0x295b50>
 a7c:	00001349 	andeq	r1, r0, r9, asr #6
 a80:	0300340b 	movweq	r3, #1035	; 0x40b
 a84:	3b0b3a0e 	blcc	2cf2c4 <__bss_end__+0x2a4358>
 a88:	3f13490b 	svccc	0x0013490b
 a8c:	00193c19 	andseq	r3, r9, r9, lsl ip
 a90:	01130c00 	tsteq	r3, r0, lsl #24
 a94:	0b3a0b0b 	bleq	e836c8 <__bss_end__+0xe5875c>
 a98:	13010b3b 	movwne	r0, #6971	; 0x1b3b
 a9c:	0d0d0000 	stceq	0, cr0, [sp, #-0]
 aa0:	3a0e0300 	bcc	3816a8 <__bss_end__+0x35673c>
 aa4:	490b3b0b 	stmdbmi	fp, {r0, r1, r3, r8, r9, fp, ip, sp}
 aa8:	000b3813 	andeq	r3, fp, r3, lsl r8
 aac:	00210e00 	eoreq	r0, r1, r0, lsl #28
 ab0:	0b2f1349 	bleq	bc57dc <__bss_end__+0xb9a870>
 ab4:	340f0000 	strcc	r0, [pc], #-0	; abc <shift+0xabc>
 ab8:	3a080300 	bcc	2016c0 <__bss_end__+0x1d6754>
 abc:	490b3b0b 	stmdbmi	fp, {r0, r1, r3, r8, r9, fp, ip, sp}
 ac0:	3c193f13 	ldccc	15, cr3, [r9], {19}
 ac4:	10000019 	andne	r0, r0, r9, lsl r0
 ac8:	13470034 	movtne	r0, #28724	; 0x7034
 acc:	0b3b0b3a 	bleq	ec37bc <__bss_end__+0xe98850>
 ad0:	00001802 	andeq	r1, r0, r2, lsl #16
 ad4:	03003411 	movweq	r3, #1041	; 0x411
 ad8:	3b0b3a08 	blcc	2cf300 <__bss_end__+0x2a4394>
 adc:	3f13490b 	svccc	0x0013490b
 ae0:	00180219 	andseq	r0, r8, r9, lsl r2
 ae4:	11010000 	mrsne	r0, (UNDEF: 1)
 ae8:	130e2501 	movwne	r2, #58625	; 0xe501
 aec:	1b0e030b 	blne	381720 <__bss_end__+0x3567b4>
 af0:	1201110e 	andne	r1, r1, #-2147483645	; 0x80000003
 af4:	00171006 	andseq	r1, r7, r6
 af8:	00240200 	eoreq	r0, r4, r0, lsl #4
 afc:	0b3e0b0b 	bleq	f83730 <__bss_end__+0xf587c4>
 b00:	00000e03 	andeq	r0, r0, r3, lsl #28
 b04:	0b002403 	bleq	9b18 <shift+0x9b18>
 b08:	030b3e0b 	movweq	r3, #48651	; 0xbe0b
 b0c:	04000008 	streq	r0, [r0], #-8
 b10:	13490026 	movtne	r0, #36902	; 0x9026
 b14:	0f050000 	svceq	0x00050000
 b18:	490b0b00 	stmdbmi	fp, {r8, r9, fp}
 b1c:	06000013 			; <UNDEFINED> instruction: 0x06000013
 b20:	0e030016 	mcreq	0, 0, r0, cr3, cr6, {0}
 b24:	0b3b0b3a 	bleq	ec3814 <__bss_end__+0xe988a8>
 b28:	00001349 	andeq	r1, r0, r9, asr #6
 b2c:	03011307 	movweq	r1, #4871	; 0x1307
 b30:	3a0b0b0e 	bcc	2c3770 <__bss_end__+0x298804>
 b34:	010b3b0b 	tsteq	fp, fp, lsl #22
 b38:	08000013 	stmdaeq	r0, {r0, r1, r4}
 b3c:	0803000d 	stmdaeq	r3, {r0, r2, r3}
 b40:	0b3b0b3a 	bleq	ec3830 <__bss_end__+0xe988c4>
 b44:	0b381349 	bleq	e05870 <__bss_end__+0xdda904>
 b48:	01090000 	mrseq	r0, (UNDEF: 9)
 b4c:	01134901 	tsteq	r3, r1, lsl #18
 b50:	0a000013 	beq	ba4 <shift+0xba4>
 b54:	00000021 	andeq	r0, r0, r1, lsr #32
 b58:	0300340b 	movweq	r3, #1035	; 0x40b
 b5c:	3b0b3a0e 	blcc	2cf39c <__bss_end__+0x2a4430>
 b60:	3f13490b 	svccc	0x0013490b
 b64:	00193c19 	andseq	r3, r9, r9, lsl ip
 b68:	00340c00 	eorseq	r0, r4, r0, lsl #24
 b6c:	0b3a0e03 	bleq	e84380 <__bss_end__+0xe59414>
 b70:	13490b3b 	movtne	r0, #39739	; 0x9b3b
 b74:	1802193f 	stmdane	r2, {r0, r1, r2, r3, r4, r5, r8, fp, ip}
 b78:	210d0000 	mrscs	r0, (UNDEF: 13)
 b7c:	2f134900 	svccs	0x00134900
 b80:	0e00000b 	cdpeq	0, 0, cr0, cr0, cr11, {0}
 b84:	13470034 	movtne	r0, #28724	; 0x7034
 b88:	0b3b0b3a 	bleq	ec3878 <__bss_end__+0xe9890c>
 b8c:	00001802 	andeq	r1, r0, r2, lsl #16
 b90:	3f012e0f 	svccc	0x00012e0f
 b94:	3a0e0319 	bcc	381800 <__bss_end__+0x356894>
 b98:	27053b0b 	strcs	r3, [r5, -fp, lsl #22]
 b9c:	12011119 	andne	r1, r1, #1073741830	; 0x40000006
 ba0:	97184006 	ldrls	r4, [r8, -r6]
 ba4:	13011942 	movwne	r1, #6466	; 0x1942
 ba8:	05100000 	ldreq	r0, [r0, #-0]
 bac:	3a080300 	bcc	2017b4 <__bss_end__+0x1d6848>
 bb0:	49053b0b 	stmdbmi	r5, {r0, r1, r3, r8, r9, fp, ip, sp}
 bb4:	00180213 	andseq	r0, r8, r3, lsl r2
 bb8:	00341100 	eorseq	r1, r4, r0, lsl #2
 bbc:	0b3a0803 	bleq	e82bd0 <__bss_end__+0xe57c64>
 bc0:	1349053b 	movtne	r0, #38203	; 0x953b
 bc4:	00001802 	andeq	r1, r0, r2, lsl #16
 bc8:	3f012e12 	svccc	0x00012e12
 bcc:	3a0e0319 	bcc	381838 <__bss_end__+0x3568cc>
 bd0:	27053b0b 	strcs	r3, [r5, -fp, lsl #22]
 bd4:	12011119 	andne	r1, r1, #1073741830	; 0x40000006
 bd8:	96184006 	ldrls	r4, [r8], -r6
 bdc:	13011942 	movwne	r1, #6466	; 0x1942
 be0:	0b130000 	bleq	4c0be8 <__bss_end__+0x495c7c>
 be4:	12011101 	andne	r1, r1, #1073741824	; 0x40000000
 be8:	00130106 	andseq	r0, r3, r6, lsl #2
 bec:	010b1400 	tsteq	fp, r0, lsl #8
 bf0:	06120111 			; <UNDEFINED> instruction: 0x06120111
 bf4:	2e150000 	cdpcs	0, 1, cr0, cr5, cr0, {0}
 bf8:	03193f01 	tsteq	r9, #1, 30
 bfc:	3b0b3a0e 	blcc	2cf43c <__bss_end__+0x2a44d0>
 c00:	1119270b 	tstne	r9, fp, lsl #14
 c04:	40061201 	andmi	r1, r6, r1, lsl #4
 c08:	19429718 	stmdbne	r2, {r3, r4, r8, r9, sl, ip, pc}^
 c0c:	00001301 	andeq	r1, r0, r1, lsl #6
 c10:	03000516 	movweq	r0, #1302	; 0x516
 c14:	3b0b3a08 	blcc	2cf43c <__bss_end__+0x2a44d0>
 c18:	0213490b 	andseq	r4, r3, #180224	; 0x2c000
 c1c:	17000018 	smladne	r0, r8, r0, r0
 c20:	193f012e 	ldmdbne	pc!, {r1, r2, r3, r5, r8}	; <UNPREDICTABLE>
 c24:	0b3a0e03 	bleq	e84438 <__bss_end__+0xe594cc>
 c28:	19270b3b 	stmdbne	r7!, {r0, r1, r3, r4, r5, r8, r9, fp}
 c2c:	06120111 			; <UNDEFINED> instruction: 0x06120111
 c30:	42961840 	addsmi	r1, r6, #64, 16	; 0x400000
 c34:	00130119 	andseq	r0, r3, r9, lsl r1
 c38:	00341800 	eorseq	r1, r4, r0, lsl #16
 c3c:	0b3a0803 	bleq	e82c50 <__bss_end__+0xe57ce4>
 c40:	13490b3b 	movtne	r0, #39739	; 0x9b3b
 c44:	00001802 	andeq	r1, r0, r2, lsl #16
 c48:	3f012e19 	svccc	0x00012e19
 c4c:	3a0e0319 	bcc	3818b8 <__bss_end__+0x35694c>
 c50:	270b3b0b 	strcs	r3, [fp, -fp, lsl #22]
 c54:	12011119 	andne	r1, r1, #1073741830	; 0x40000006
 c58:	97184006 	ldrls	r4, [r8, -r6]
 c5c:	00001942 	andeq	r1, r0, r2, asr #18
 c60:	01110100 	tsteq	r1, r0, lsl #2
 c64:	0b130e25 	bleq	4c4500 <__bss_end__+0x499594>
 c68:	0e1b0e03 	cdpeq	14, 1, cr0, cr11, cr3, {0}
 c6c:	06120111 			; <UNDEFINED> instruction: 0x06120111
 c70:	00001710 	andeq	r1, r0, r0, lsl r7
 c74:	0b002402 	bleq	9c84 <shift+0x9c84>
 c78:	030b3e0b 	movweq	r3, #48651	; 0xbe0b
 c7c:	0300000e 	movweq	r0, #14
 c80:	0b0b0024 	bleq	2c0d18 <__bss_end__+0x295dac>
 c84:	08030b3e 	stmdaeq	r3, {r1, r2, r3, r4, r5, r8, r9, fp}
 c88:	16040000 	strne	r0, [r4], -r0
 c8c:	3a0e0300 	bcc	381894 <__bss_end__+0x356928>
 c90:	490b3b0b 	stmdbmi	fp, {r0, r1, r3, r8, r9, fp, ip, sp}
 c94:	05000013 	streq	r0, [r0, #-19]	; 0xffffffed
 c98:	0b0b000f 	bleq	2c0cdc <__bss_end__+0x295d70>
 c9c:	0f060000 	svceq	0x00060000
 ca0:	490b0b00 	stmdbmi	fp, {r8, r9, fp}
 ca4:	07000013 	smladeq	r0, r3, r0, r0
 ca8:	13490026 	movtne	r0, #36902	; 0x9026
 cac:	17080000 	strne	r0, [r8, -r0]
 cb0:	0b0e0301 	bleq	3818bc <__bss_end__+0x356950>
 cb4:	3b0b3a0b 	blcc	2cf4e8 <__bss_end__+0x2a457c>
 cb8:	0013010b 	andseq	r0, r3, fp, lsl #2
 cbc:	000d0900 	andeq	r0, sp, r0, lsl #18
 cc0:	0b3a0e03 	bleq	e844d4 <__bss_end__+0xe59568>
 cc4:	13490b3b 	movtne	r0, #39739	; 0x9b3b
 cc8:	010a0000 	mrseq	r0, (UNDEF: 10)
 ccc:	01134901 	tsteq	r3, r1, lsl #18
 cd0:	0b000013 	bleq	d24 <shift+0xd24>
 cd4:	13490021 	movtne	r0, #36897	; 0x9021
 cd8:	00000b2f 	andeq	r0, r0, pc, lsr #22
 cdc:	0301130c 	movweq	r1, #4876	; 0x130c
 ce0:	3a0b0b0e 	bcc	2c3920 <__bss_end__+0x2989b4>
 ce4:	010b3b0b 	tsteq	fp, fp, lsl #22
 ce8:	0d000013 	stceq	0, cr0, [r0, #-76]	; 0xffffffb4
 cec:	0e03000d 	cdpeq	0, 0, cr0, cr3, cr13, {0}
 cf0:	0b3b0b3a 	bleq	ec39e0 <__bss_end__+0xe98a74>
 cf4:	0b381349 	bleq	e05a20 <__bss_end__+0xddaab4>
 cf8:	0d0e0000 	stceq	0, cr0, [lr, #-0]
 cfc:	3a0e0300 	bcc	381904 <__bss_end__+0x356998>
 d00:	49053b0b 	stmdbmi	r5, {r0, r1, r3, r8, r9, fp, ip, sp}
 d04:	000b3813 	andeq	r3, fp, r3, lsl r8
 d08:	00160f00 	andseq	r0, r6, r0, lsl #30
 d0c:	0b3a0e03 	bleq	e84520 <__bss_end__+0xe595b4>
 d10:	00000b3b 	andeq	r0, r0, fp, lsr fp
 d14:	03001310 	movweq	r1, #784	; 0x310
 d18:	00193c0e 	andseq	r3, r9, lr, lsl #24
 d1c:	00341100 	eorseq	r1, r4, r0, lsl #2
 d20:	0b3a0e03 	bleq	e84534 <__bss_end__+0xe595c8>
 d24:	1349053b 	movtne	r0, #38203	; 0x953b
 d28:	193c193f 	ldmdbne	ip!, {r0, r1, r2, r3, r4, r5, r8, fp, ip}
 d2c:	34120000 	ldrcc	r0, [r2], #-0
 d30:	3a0e0300 	bcc	381938 <__bss_end__+0x3569cc>
 d34:	490b3b0b 	stmdbmi	fp, {r0, r1, r3, r8, r9, fp, ip, sp}
 d38:	3c193f13 	ldccc	15, cr3, [r9], {19}
 d3c:	13000019 	movwne	r0, #25
 d40:	00000021 	andeq	r0, r0, r1, lsr #32
 d44:	0b010414 	bleq	41d9c <__bss_end__+0x16e30>
 d48:	3a13490b 	bcc	4d317c <__bss_end__+0x4a8210>
 d4c:	01053b0b 	tsteq	r5, fp, lsl #22
 d50:	15000013 	strne	r0, [r0, #-19]	; 0xffffffed
 d54:	0e030028 	cdpeq	0, 0, cr0, cr3, cr8, {1}
 d58:	00000d1c 	andeq	r0, r0, ip, lsl sp
 d5c:	03002816 	movweq	r2, #2070	; 0x816
 d60:	000b1c0e 	andeq	r1, fp, lr, lsl #24
 d64:	00161700 	andseq	r1, r6, r0, lsl #14
 d68:	0b3a0e03 	bleq	e8457c <__bss_end__+0xe59610>
 d6c:	1349053b 	movtne	r0, #38203	; 0x953b
 d70:	2e180000 	cdpcs	0, 1, cr0, cr8, cr0, {0}
 d74:	03193f01 	tsteq	r9, #1, 30
 d78:	3b0b3a0e 	blcc	2cf5b8 <__bss_end__+0x2a464c>
 d7c:	4919270b 	ldmdbmi	r9, {r0, r1, r3, r8, r9, sl, sp}
 d80:	12011113 	andne	r1, r1, #-1073741820	; 0xc0000004
 d84:	96184006 	ldrls	r4, [r8], -r6
 d88:	13011942 	movwne	r1, #6466	; 0x1942
 d8c:	05190000 	ldreq	r0, [r9, #-0]
 d90:	3a0e0300 	bcc	381998 <__bss_end__+0x356a2c>
 d94:	490b3b0b 	stmdbmi	fp, {r0, r1, r3, r8, r9, fp, ip, sp}
 d98:	00180213 	andseq	r0, r8, r3, lsl r2
 d9c:	00341a00 	eorseq	r1, r4, r0, lsl #20
 da0:	0b3a0e03 	bleq	e845b4 <__bss_end__+0xe59648>
 da4:	13490b3b 	movtne	r0, #39739	; 0x9b3b
 da8:	00001802 	andeq	r1, r0, r2, lsl #16
 dac:	0300051b 	movweq	r0, #1307	; 0x51b
 db0:	3b0b3a08 	blcc	2cf5d8 <__bss_end__+0x2a466c>
 db4:	0213490b 	andseq	r4, r3, #180224	; 0x2c000
 db8:	1c000018 	stcne	0, cr0, [r0], {24}
 dbc:	19270115 	stmdbne	r7!, {r0, r2, r4, r8}
 dc0:	13011349 	movwne	r1, #4937	; 0x1349
 dc4:	051d0000 	ldreq	r0, [sp, #-0]
 dc8:	00134900 	andseq	r4, r3, r0, lsl #18
 dcc:	012e1e00 			; <UNDEFINED> instruction: 0x012e1e00
 dd0:	0e03193f 			; <UNDEFINED> instruction: 0x0e03193f
 dd4:	0b3b0b3a 	bleq	ec3ac4 <__bss_end__+0xe98b58>
 dd8:	01111927 	tsteq	r1, r7, lsr #18
 ddc:	18400612 	stmdane	r0, {r1, r4, r9, sl}^
 de0:	00194296 	mulseq	r9, r6, r2
 de4:	00341f00 	eorseq	r1, r4, r0, lsl #30
 de8:	0b3a0803 	bleq	e82dfc <__bss_end__+0xe57e90>
 dec:	13490b3b 	movtne	r0, #39739	; 0x9b3b
 df0:	00001802 	andeq	r1, r0, r2, lsl #16
	...

Déassemblage de la section .debug_line :

00000000 <.debug_line>:
   0:	00000150 	andeq	r0, r0, r0, asr r1
   4:	01120002 	tsteq	r2, r2
   8:	01020000 	mrseq	r0, (UNDEF: 2)
   c:	000d0efb 	strdeq	r0, [sp], -fp
  10:	01010101 	tsteq	r1, r1, lsl #2
  14:	01000000 	mrseq	r0, (UNDEF: 0)
  18:	2e010000 	cdpcs	0, 0, cr0, cr1, cr0, {0}
  1c:	752f002e 	strvc	r0, [pc, #-46]!	; fffffff6 <__bss_end__+0xfffd508a>
  20:	6c2f7273 	sfmvs	f7, 4, [pc], #-460	; fffffe5c <__bss_end__+0xfffd4ef0>
  24:	672f6269 	strvs	r6, [pc, -r9, ror #4]!
  28:	612f6363 			; <UNDEFINED> instruction: 0x612f6363
  2c:	6c2d6d72 	stcvs	13, cr6, [sp], #-456	; 0xfffffe38
  30:	78756e69 	ldmdavc	r5!, {r0, r3, r5, r6, r9, sl, fp, sp, lr}^
  34:	756e672d 	strbvc	r6, [lr, #-1837]!	; 0xfffff8d3
  38:	69626165 	stmdbvs	r2!, {r0, r2, r5, r6, r8, sp, lr}^
  3c:	362f6668 	strtcc	r6, [pc], -r8, ror #12
  40:	636e692f 	cmnvs	lr, #770048	; 0xbc000
  44:	6564756c 	strbvs	r7, [r4, #-1388]!	; 0xfffffa94
  48:	73752f00 	cmnvc	r5, #0, 30
  4c:	6e692f72 	mcrvs	15, 3, r2, cr9, cr2, {3}
  50:	64756c63 	ldrbtvs	r6, [r5], #-3171	; 0xfffff39d
  54:	72612f65 	rsbvc	r2, r1, #404	; 0x194
  58:	696c2d6d 	stmdbvs	ip!, {r0, r2, r3, r5, r6, r8, sl, fp, sp}^
  5c:	2d78756e 	cfldr64cs	mvdx7, [r8, #-440]!	; 0xfffffe48
  60:	65756e67 	ldrbvs	r6, [r5, #-3687]!	; 0xfffff199
  64:	68696261 	stmdavs	r9!, {r0, r5, r6, r9, sp, lr}^
  68:	69622f66 	stmdbvs	r2!, {r1, r2, r5, r6, r8, r9, sl, fp, sp}^
  6c:	2f007374 	svccs	0x00007374
  70:	2f727375 	svccs	0x00727375
  74:	6c636e69 	stclvs	14, cr6, [r3], #-420	; 0xfffffe5c
  78:	00656475 	rsbeq	r6, r5, r5, ror r4
  7c:	69616d00 	stmdbvs	r1!, {r8, sl, fp, sp, lr}^
  80:	00632e6e 	rsbeq	r2, r3, lr, ror #28
  84:	70000000 	andvc	r0, r0, r0
  88:	6674616c 	ldrbtvs	r6, [r4], -ip, ror #2
  8c:	5f6d726f 	svcpl	0x006d726f
  90:	65707974 	ldrbvs	r7, [r0, #-2420]!	; 0xfffff68c
  94:	00682e73 	rsbeq	r2, r8, r3, ror lr
  98:	74000001 	strvc	r0, [r0], #-1
  9c:	74726977 	ldrbtvc	r6, [r2], #-2423	; 0xfffff689
  a0:	682e6565 	stmdavs	lr!, {r0, r2, r5, r6, r8, sl, sp, lr}
  a4:	00000100 	andeq	r0, r0, r0, lsl #2
  a8:	756d6973 	strbvc	r6, [sp, #-2419]!	; 0xfffff68d
  ac:	6f74616c 	svcvs	0x0074616c
  b0:	00682e72 	rsbeq	r2, r8, r2, ror lr
  b4:	73000000 	movwvc	r0, #0
  b8:	65646474 	strbvs	r6, [r4, #-1140]!	; 0xfffffb8c
  bc:	00682e66 	rsbeq	r2, r8, r6, ror #28
  c0:	74000002 	strvc	r0, [r0], #-2
  c4:	73657079 	cmnvc	r5, #121	; 0x79
  c8:	0300682e 	movweq	r6, #2094	; 0x82e
  cc:	74700000 	ldrbtvc	r0, [r0], #-0
  d0:	61657268 	cmnvs	r5, r8, ror #4
  d4:	70797464 	rsbsvc	r7, r9, r4, ror #8
  d8:	682e7365 	stmdavs	lr!, {r0, r2, r5, r6, r8, r9, ip, sp, lr}
  dc:	00000300 	andeq	r0, r0, r0, lsl #6
  e0:	6962696c 	stmdbvs	r2!, {r2, r3, r5, r6, r8, fp, sp, lr}^
  e4:	00682e6f 	rsbeq	r2, r8, pc, ror #28
  e8:	73000004 	movwvc	r0, #4
  ec:	6f696474 	svcvs	0x00696474
  f0:	0400682e 	streq	r6, [r0], #-2094	; 0xfffff7d2
  f4:	79730000 	ldmdbvc	r3!, {}^	; <UNPREDICTABLE>
  f8:	72655f73 	rsbvc	r5, r5, #460	; 0x1cc
  fc:	73696c72 	cmnvc	r9, #29184	; 0x7200
 100:	00682e74 	rsbeq	r2, r8, r4, ror lr
 104:	6d000003 	stcvs	0, cr0, [r0, #-12]
 108:	2e687461 	cdpcs	4, 6, cr7, cr8, cr1, {3}
 10c:	00040068 	andeq	r0, r4, r8, rrx
 110:	6d697400 	cfstrdvs	mvd7, [r9, #-0]
 114:	00682e65 	rsbeq	r2, r8, r5, ror #28
 118:	00000004 	andeq	r0, r0, r4
 11c:	90020500 	andls	r0, r2, r0, lsl #10
 120:	03000108 	movweq	r0, #264	; 0x108
 124:	4e6d0122 	powmiep	f0, f5, f2
 128:	bbbbbbbb 	bllt	feeef01c <__bss_end__+0xfeec40b0>
 12c:	4b4bbcbe 	blmi	12ef42c <__bss_end__+0x12c44c0>
 130:	e5084e4b 	str	r4, [r8, #-3659]	; 0xfffff1b5
 134:	0402004c 	streq	r0, [r2], #-76	; 0xffffffb4
 138:	02006703 	andeq	r6, r0, #786432	; 0xc0000
 13c:	00a00304 	adceq	r0, r0, r4, lsl #6
 140:	7f030402 	svcvc	0x00030402
 144:	01040200 	mrseq	r0, R12_usr
 148:	03066606 	movweq	r6, #26118	; 0x6606
 14c:	022f660a 	eoreq	r6, pc, #10485760	; 0xa00000
 150:	0101000a 	tsteq	r1, sl
 154:	0000008f 	andeq	r0, r0, pc, lsl #1
 158:	00450002 	subeq	r0, r5, r2
 15c:	01020000 	mrseq	r0, (UNDEF: 2)
 160:	000d0efb 	strdeq	r0, [sp], -fp
 164:	01010101 	tsteq	r1, r1, lsl #2
 168:	01000000 	mrseq	r0, (UNDEF: 0)
 16c:	2f010000 	svccs	0x00010000
 170:	2f727375 	svccs	0x00727375
 174:	6c636e69 	stclvs	14, cr6, [r3], #-420	; 0xfffffe5c
 178:	00656475 	rsbeq	r6, r5, r5, ror r4
 17c:	6e616b00 	vmulvs.f64	d22, d1, d0
 180:	6d617961 			; <UNDEFINED> instruction: 0x6d617961
 184:	00632e61 	rsbeq	r2, r3, r1, ror #28
 188:	74000000 	strvc	r0, [r0], #-0
 18c:	74726977 	ldrbtvc	r6, [r2], #-2423	; 0xfffff689
 190:	682e6565 	stmdavs	lr!, {r0, r2, r5, r6, r8, sl, sp, lr}
 194:	00000000 	andeq	r0, r0, r0
 198:	6874616d 	ldmdavs	r4!, {r0, r2, r3, r5, r6, r8, sp, lr}^
 19c:	0100682e 	tsteq	r0, lr, lsr #16
 1a0:	00000000 	andeq	r0, r0, r0
 1a4:	09fc0205 	ldmibeq	ip!, {r0, r2, r9}^
 1a8:	12030001 	andne	r0, r3, #1
 1ac:	9fe60801 	svcls	0x00e60801
 1b0:	d7f3d7d7 	ubfxle	sp, r7, #15, #20
 1b4:	8583834d 	strhi	r8, [r3, #845]	; 0x34d
 1b8:	02683d08 	rsbeq	r3, r8, #8, 26	; 0x200
 1bc:	d79f1422 	ldrle	r1, [pc, r2, lsr #8]
 1c0:	4cd7f3d7 	ldclmi	3, cr15, [r7], {215}	; 0xd7
 1c4:	08f4f3f3 	ldmeq	r4!, {r0, r1, r4, r5, r6, r7, r8, r9, ip, sp, lr, pc}^
 1c8:	67ad085a 	sbfxvs	r0, sl, #16, #14
 1cc:	4bad08a0 	blmi	feb42454 <__bss_end__+0xfeb174e8>
 1d0:	e5084d4b 	str	r4, [r8, #-3403]	; 0xfffff2b5
 1d4:	bc132c02 	ldclt	12, cr2, [r3], {2}
 1d8:	e5085a08 	str	r5, [r8, #-2568]	; 0xfffff5f8
 1dc:	02132602 	andseq	r2, r3, #2097152	; 0x200000
 1e0:	08021326 	stmdaeq	r2, {r1, r2, r5, r8, r9, ip}
 1e4:	e1010100 	mrs	r0, (UNDEF: 17)
 1e8:	02000002 	andeq	r0, r0, #2
 1ec:	00005600 	andeq	r5, r0, r0, lsl #12
 1f0:	fb010200 	blx	409fa <__bss_end__+0x15a8e>
 1f4:	01000d0e 	tsteq	r0, lr, lsl #26
 1f8:	00010101 	andeq	r0, r1, r1, lsl #2
 1fc:	00010000 	andeq	r0, r1, r0
 200:	752f0100 	strvc	r0, [pc, #-256]!	; 108 <shift+0x108>
 204:	692f7273 	stmdbvs	pc!, {r0, r1, r4, r5, r6, r9, ip, sp, lr}	; <UNPREDICTABLE>
 208:	756c636e 	strbvc	r6, [ip, #-878]!	; 0xfffffc92
 20c:	00006564 	andeq	r6, r0, r4, ror #10
 210:	64697567 	strbtvs	r7, [r9], #-1383	; 0xfffffa99
 214:	65636e61 	strbvs	r6, [r3, #-3681]!	; 0xfffff19f
 218:	72676d5f 	rsbvc	r6, r7, #6080	; 0x17c0
 21c:	0000632e 	andeq	r6, r0, lr, lsr #6
 220:	616d0000 	cmnvs	sp, r0
 224:	682e6874 	stmdavs	lr!, {r2, r4, r5, r6, fp, sp, lr}
 228:	00000100 	andeq	r0, r0, r0, lsl #2
 22c:	72697774 	rsbvc	r7, r9, #116, 14	; 0x1d00000
 230:	2e656574 	mcrcs	5, 3, r6, cr5, cr4, {3}
 234:	00000068 	andeq	r0, r0, r8, rrx
 238:	67657300 	strbvs	r7, [r5, -r0, lsl #6]!
 23c:	746e656d 	strbtvc	r6, [lr], #-1389	; 0xfffffa93
 240:	0000682e 	andeq	r6, r0, lr, lsr #16
 244:	00000000 	andeq	r0, r0, r0
 248:	0f000205 	svceq	0x00000205
 24c:	1d030001 	stcne	0, cr0, [r3, #-4]
 250:	02009f01 	andeq	r9, r0, #1, 30
 254:	d6060104 	strle	r0, [r6], -r4, lsl #2
 258:	03040200 	movweq	r0, #16896	; 0x4200
 25c:	040200d6 	streq	r0, [r2], #-214	; 0xffffff2a
 260:	02004a04 	andeq	r4, r0, #4, 20	; 0x4000
 264:	002e0604 	eoreq	r0, lr, r4, lsl #12
 268:	06060402 	streq	r0, [r6], -r2, lsl #8
 26c:	4bd7892f 	blmi	ff5e2730 <__bss_end__+0xff5b77c4>
 270:	01040200 	mrseq	r0, R12_usr
 274:	0200ba06 	andeq	fp, r0, #24576	; 0x6000
 278:	00660204 	rsbeq	r0, r6, r4, lsl #4
 27c:	2e040402 	cdpcs	4, 0, cr0, cr4, cr2, {0}
 280:	04040200 	streq	r0, [r4], #-512	; 0xfffffe00
 284:	02002f06 	andeq	r2, r0, #6, 30
 288:	59080404 	stmdbpl	r8, {r2, sl}
 28c:	04040200 	streq	r0, [r4], #-512	; 0xfffffe00
 290:	04020067 	streq	r0, [r2], #-103	; 0xffffff99
 294:	02686804 	rsbeq	r6, r8, #4, 16	; 0x40000
 298:	5908142a 	stmdbpl	r8, {r1, r3, r5, sl, ip}
 29c:	02005908 	andeq	r5, r0, #8, 18	; 0x20000
 2a0:	7a030204 	bvc	c0ab8 <__bss_end__+0x95b4c>
 2a4:	0402002e 	streq	r0, [r2], #-46	; 0xffffffd2
 2a8:	06660601 	strbteq	r0, [r6], -r1, lsl #12
 2ac:	bb9e0b03 	bllt	fe782ec0 <__bss_end__+0xfe757f54>
 2b0:	0383bb83 	orreq	fp, r3, #134144	; 0x20c00
 2b4:	24089e0b 	strcs	r9, [r8], #-3595	; 0xfffff1f5
 2b8:	694e4b4b 	stmdbvs	lr, {r0, r1, r3, r6, r8, r9, fp, lr}^
 2bc:	6802859f 	stmdavs	r2, {r0, r1, r2, r3, r4, r7, r8, sl, pc}
 2c0:	02008315 	andeq	r8, r0, #1409286144	; 0x54000000
 2c4:	004f0204 	subeq	r0, pc, r4, lsl #4
 2c8:	02020402 	andeq	r0, r2, #33554432	; 0x2000000
 2cc:	02001362 	andeq	r1, r0, #-2013265919	; 0x88000001
 2d0:	00840204 	addeq	r0, r4, r4, lsl #4
 2d4:	03020402 	movweq	r0, #9218	; 0x2402
 2d8:	0200ba6d 	andeq	fp, r0, #446464	; 0x6d000
 2dc:	66060104 	strvs	r0, [r6], -r4, lsl #2
 2e0:	ba170306 	blt	5c0f00 <__bss_end__+0x595f94>
 2e4:	040200d7 	streq	r0, [r2], #-215	; 0xffffff29
 2e8:	08c19f01 	stmiaeq	r1, {r0, r8, r9, sl, fp, ip, pc}^
 2ec:	83836877 	orrhi	r6, r3, #7798784	; 0x770000
 2f0:	2108a183 	smlabbcs	r8, r3, r1, sl
 2f4:	f5f32108 			; <UNDEFINED> instruction: 0xf5f32108
 2f8:	01040200 	mrseq	r0, R12_usr
 2fc:	9f069e06 	svcls	0x00069e06
 300:	08e508a0 	stmiaeq	r5!, {r5, r7, fp}^
 304:	f4f383e5 			; <UNDEFINED> instruction: 0xf4f383e5
 308:	4b6a4ba0 	blmi	1a93190 <__bss_end__+0x1a68224>
 30c:	6a4ba04d 	bvs	12e8448 <__bss_end__+0x12bd4dc>
 310:	02004e4b 	andeq	r4, r0, #1200	; 0x4b0
 314:	9e060104 	adflss	f0, f6, f4
 318:	02040200 	andeq	r0, r4, #0, 4
 31c:	02009f06 	andeq	r9, r0, #6, 30
 320:	832d0204 			; <UNDEFINED> instruction: 0x832d0204
 324:	5602a3a1 	strpl	sl, [r2], -r1, lsr #7
 328:	0200a013 	andeq	sl, r0, #19
 32c:	a3f40104 	mvnsge	r0, #4, 2
 330:	0402009f 	streq	r0, [r2], #-159	; 0xffffff61
 334:	00660602 	rsbeq	r0, r6, r2, lsl #12
 338:	66030402 	strvs	r0, [r3], -r2, lsl #8
 33c:	04040200 	streq	r0, [r4], #-512	; 0xfffffe00
 340:	0402004a 	streq	r0, [r2], #-74	; 0xffffffb6
 344:	02002e06 	andeq	r2, r0, #6, 28	; 0x60
 348:	2f060604 	svccs	0x00060604
 34c:	839108a3 	orrshi	r0, r1, #10682368	; 0xa30000
 350:	02009d84 	andeq	r9, r0, #132, 26	; 0x2100
 354:	00bb0304 	adcseq	r0, fp, r4, lsl #6
 358:	06020402 	streq	r0, [r2], -r2, lsl #8
 35c:	0402009e 	streq	r0, [r2], #-158	; 0xffffff62
 360:	0200ba04 	andeq	fp, r0, #4, 20	; 0x4000
 364:	004a0504 	subeq	r0, sl, r4, lsl #10
 368:	2e070402 	cdpcs	4, 0, cr0, cr7, cr2, {0}
 36c:	07040200 	streq	r0, [r4, -r0, lsl #4]
 370:	d8a42f06 	stmiale	r4!, {r1, r2, r8, r9, sl, fp, sp}
 374:	02004b4b 	andeq	r4, r0, #76800	; 0x12c00
 378:	9e060104 	adflss	f0, f6, f4
 37c:	02040200 	andeq	r0, r4, #0, 4
 380:	00123c02 	andseq	r3, r2, r2, lsl #24
 384:	02040402 	andeq	r0, r4, #33554432	; 0x2000000
 388:	02001238 	andeq	r1, r0, #56, 4	; 0x80000003
 38c:	4b060404 	blmi	1813a4 <__bss_end__+0x156438>
 390:	04040200 	streq	r0, [r4], #-512	; 0xfffffe00
 394:	13033d08 	movwne	r3, #15624	; 0x3d08
 398:	080b03f2 	stmdaeq	fp, {r1, r4, r5, r6, r7, r8, r9}
 39c:	4e4b6874 	mcrmi	8, 2, r6, cr11, cr4, {3}
 3a0:	08cd084e 	stmiaeq	sp, {r1, r2, r3, r6, fp}^
 3a4:	876a843f 			; <UNDEFINED> instruction: 0x876a843f
 3a8:	01040200 	mrseq	r0, R12_usr
 3ac:	0206d606 	andeq	sp, r6, #6291456	; 0x600000
 3b0:	46021534 			; <UNDEFINED> instruction: 0x46021534
 3b4:	4a0b0314 	bmi	2c100c <__bss_end__+0x2960a0>
 3b8:	4d4b5908 	vstrmi.16	s11, [fp, #-16]	; <UNPREDICTABLE>
 3bc:	f3155a02 	vpmax.u16	d5, d5, d2
 3c0:	08d93369 	ldmeq	r9, {r0, r3, r5, r6, r8, r9, ip, sp}^
 3c4:	644c64ca 	strbvs	r6, [ip], #-1226	; 0xfffffb36
 3c8:	85182402 	ldrhi	r2, [r8, #-1026]	; 0xfffffbfe
 3cc:	02192c02 	andseq	r2, r9, #512	; 0x200
 3d0:	4c64142e 	cfstrdmi	mvd1, [r4], #-184	; 0xffffff48
 3d4:	162c0264 	strtne	r0, [ip], -r4, ror #4
 3d8:	039e6403 	orrseq	r6, lr, #50331648	; 0x3000000
 3dc:	08859e21 	stmeq	r5, {r0, r5, r9, sl, fp, ip, pc}
 3e0:	02006ce8 	andeq	r6, r0, #232, 24	; 0xe800
 3e4:	08060104 	stmdaeq	r6, {r2, r8}
 3e8:	04020058 	streq	r0, [r2], #-88	; 0xffffffa8
 3ec:	02009e03 	andeq	r9, r0, #3, 28	; 0x30
 3f0:	069e0404 	ldreq	r0, [lr], r4, lsl #8
 3f4:	210868bf 			; <UNDEFINED> instruction: 0x210868bf
 3f8:	4e4b3f08 	cdpmi	15, 4, cr3, cr11, cr8, {0}
 3fc:	3e026767 	cdpcc	7, 0, cr6, cr2, cr7, {3}
 400:	04020013 	streq	r0, [r2], #-19	; 0xffffffed
 404:	009e0601 	addseq	r0, lr, r1, lsl #12
 408:	82020402 	andhi	r0, r2, #33554432	; 0x2000000
 40c:	04040200 	streq	r0, [r4], #-512	; 0xfffffe00
 410:	0402004a 	streq	r0, [r2], #-74	; 0xffffffb6
 414:	004b0604 	subeq	r0, fp, r4, lsl #12
 418:	68040402 	stmdavs	r4, {r1, sl}
 41c:	08678384 	stmdaeq	r7!, {r2, r7, r8, r9, pc}^
 420:	04020023 	streq	r0, [r2], #-35	; 0xffffffdd
 424:	00ba0601 	adcseq	r0, sl, r1, lsl #12
 428:	d6020402 	strle	r0, [r2], -r2, lsl #8
 42c:	03040200 	movweq	r0, #16896	; 0x4200
 430:	83d806d6 	bicshi	r0, r8, #224395264	; 0xd600000
 434:	7fa0034e 	svcvc	0x00a0034e
 438:	04020066 	streq	r0, [r2], #-102	; 0xffffff9a
 43c:	06660601 	strbteq	r0, [r6], -r1, lsl #12
 440:	6600e703 	strvs	lr, [r0], -r3, lsl #14
 444:	1532026a 	ldrne	r0, [r2, #-618]!	; 0xfffffd96
 448:	6a152602 	bvs	549c58 <__bss_end__+0x51ecec>
 44c:	143a0267 	ldrtne	r0, [sl], #-615	; 0xfffffd99
 450:	67142602 	ldrvs	r2, [r4, -r2, lsl #12]
 454:	6d4f8568 	cfstr64vs	mvdx8, [pc, #-416]	; 2bc <shift+0x2bc>
 458:	78024b4b 	stmdavc	r2, {r0, r1, r3, r6, r8, r9, fp, lr}
 45c:	6a590814 	bvs	16424b4 <__bss_end__+0x1617548>
 460:	6a152c02 	bvs	54b470 <__bss_end__+0x520504>
 464:	c0026752 	andgt	r6, r2, r2, asr r7
 468:	ac021401 	cfstrsge	mvf1, [r2], {1}
 46c:	02001501 	andeq	r1, r0, #4194304	; 0x400000
 470:	82060104 	andhi	r0, r6, #4, 2
 474:	6867a206 	stmdavs	r7!, {r1, r2, r9, sp, pc}^
 478:	01040200 	mrseq	r0, R12_usr
 47c:	02006606 	andeq	r6, r0, #6291456	; 0x600000
 480:	36020204 	strcc	r0, [r2], -r4, lsl #4
 484:	04020012 	streq	r0, [r2], #-18	; 0xffffffee
 488:	12220204 	eorne	r0, r2, #4, 4	; 0x40000000
 48c:	04040200 	streq	r0, [r4], #-512	; 0xfffffe00
 490:	02004b06 	andeq	r4, r0, #6144	; 0x1800
 494:	00670404 	rsbeq	r0, r7, r4, lsl #8
 498:	67040402 	strvs	r0, [r4, -r2, lsl #8]
 49c:	04040200 	streq	r0, [r4], #-512	; 0xfffffe00
 4a0:	02005083 	andeq	r5, r0, #131	; 0x83
 4a4:	882f0104 	stmdahi	pc!, {r2, r8}	; <UNPREDICTABLE>
 4a8:	2a02e508 	bcs	b98d0 <__bss_end__+0x8e964>
 4ac:	2c3f0813 	ldccs	8, cr0, [pc], #-76	; 468 <shift+0x468>
 4b0:	2202a6d8 	andcs	sl, r2, #216, 12	; 0xd800000
 4b4:	699f8318 	ldmibvs	pc, {r3, r4, r8, r9, pc}	; <UNPREDICTABLE>
 4b8:	e508c908 	str	ip, [r8, #-2312]	; 0xfffff6f8
 4bc:	2402ad08 	strcs	sl, [r2], #-3336	; 0xfffff2f8
 4c0:	08d99f13 	ldmeq	r9, {r0, r1, r4, r8, r9, sl, fp, ip, pc}^
 4c4:	02210859 	eoreq	r0, r1, #5832704	; 0x590000
 4c8:	01010006 	tsteq	r1, r6
 4cc:	000001c7 	andeq	r0, r0, r7, asr #3
 4d0:	01040002 	tsteq	r4, r2
 4d4:	01020000 	mrseq	r0, (UNDEF: 2)
 4d8:	000d0efb 	strdeq	r0, [sp], -fp
 4dc:	01010101 	tsteq	r1, r1, lsl #2
 4e0:	01000000 	mrseq	r0, (UNDEF: 0)
 4e4:	2f010000 	svccs	0x00010000
 4e8:	2f727375 	svccs	0x00727375
 4ec:	2f62696c 	svccs	0x0062696c
 4f0:	2f636367 	svccs	0x00636367
 4f4:	2d6d7261 	sfmcs	f7, 2, [sp, #-388]!	; 0xfffffe7c
 4f8:	756e696c 	strbvc	r6, [lr, #-2412]!	; 0xfffff694
 4fc:	6e672d78 	mcrvs	13, 3, r2, cr7, cr8, {3}
 500:	62616575 	rsbvs	r6, r1, #490733568	; 0x1d400000
 504:	2f666869 	svccs	0x00666869
 508:	6e692f36 	mcrvs	15, 3, r2, cr9, cr6, {1}
 50c:	64756c63 	ldrbtvs	r6, [r5], #-3171	; 0xfffff39d
 510:	752f0065 	strvc	r0, [pc, #-101]!	; 4b3 <shift+0x4b3>
 514:	692f7273 	stmdbvs	pc!, {r0, r1, r4, r5, r6, r9, ip, sp, lr}	; <UNPREDICTABLE>
 518:	756c636e 	strbvc	r6, [ip, #-878]!	; 0xfffffc92
 51c:	612f6564 			; <UNDEFINED> instruction: 0x612f6564
 520:	6c2d6d72 	stcvs	13, cr6, [sp], #-456	; 0xfffffe38
 524:	78756e69 	ldmdavc	r5!, {r0, r3, r5, r6, r9, sl, fp, sp, lr}^
 528:	756e672d 	strbvc	r6, [lr, #-1837]!	; 0xfffff8d3
 52c:	69626165 	stmdbvs	r2!, {r0, r2, r5, r6, r8, sp, lr}^
 530:	622f6668 	eorvs	r6, pc, #104, 12	; 0x6800000
 534:	00737469 	rsbseq	r7, r3, r9, ror #8
 538:	7273752f 	rsbsvc	r7, r3, #197132288	; 0xbc00000
 53c:	636e692f 	cmnvs	lr, #770048	; 0xbc000
 540:	6564756c 	strbvs	r7, [r4, #-1388]!	; 0xfffffa94
 544:	656d0000 	strbvs	r0, [sp, #-0]!
 548:	72757361 	rsbsvc	r7, r5, #-2080374783	; 0x84000001
 54c:	6e656d65 	cdpvs	13, 6, cr6, cr5, cr5, {3}
 550:	61725f74 	cmnvs	r2, r4, ror pc
 554:	6d6f646e 	cfstrdvs	mvd6, [pc, #-440]!	; 3a4 <shift+0x3a4>
 558:	74617a69 	strbtvc	r7, [r1], #-2665	; 0xfffff597
 55c:	2e6e6f69 	cdpcs	15, 6, cr6, cr14, cr9, {3}
 560:	00000063 	andeq	r0, r0, r3, rrx
 564:	64747300 	ldrbtvs	r7, [r4], #-768	; 0xfffffd00
 568:	2e666564 	cdpcs	5, 6, cr6, cr6, cr4, {3}
 56c:	00010068 	andeq	r0, r1, r8, rrx
 570:	70797400 	rsbsvc	r7, r9, r0, lsl #8
 574:	682e7365 	stmdavs	lr!, {r0, r2, r5, r6, r8, r9, ip, sp, lr}
 578:	00000200 	andeq	r0, r0, r0, lsl #4
 57c:	6962696c 	stmdbvs	r2!, {r2, r3, r5, r6, r8, fp, sp, lr}^
 580:	00682e6f 	rsbeq	r2, r8, pc, ror #28
 584:	73000003 	movwvc	r0, #3
 588:	6f696474 	svcvs	0x00696474
 58c:	0300682e 	movweq	r6, #2094	; 0x82e
 590:	79730000 	ldmdbvc	r3!, {}^	; <UNPREDICTABLE>
 594:	72655f73 	rsbvc	r5, r5, #460	; 0x1cc
 598:	73696c72 	cmnvc	r9, #29184	; 0x7200
 59c:	00682e74 	rsbeq	r2, r8, r4, ror lr
 5a0:	74000002 	strvc	r0, [r0], #-2
 5a4:	2e656d69 	cdpcs	13, 6, cr6, cr5, cr9, {3}
 5a8:	00030068 	andeq	r0, r3, r8, rrx
 5ac:	69777400 	ldmdbvs	r7!, {sl, ip, sp, lr}^
 5b0:	65657472 	strbvs	r7, [r5, #-1138]!	; 0xfffffb8e
 5b4:	0000682e 	andeq	r6, r0, lr, lsr #16
 5b8:	656d0000 	strbvs	r0, [sp, #-0]!
 5bc:	72757361 	rsbsvc	r7, r5, #-2080374783	; 0x84000001
 5c0:	6e656d65 	cdpvs	13, 6, cr6, cr5, cr5, {3}
 5c4:	61725f74 	cmnvs	r2, r4, ror pc
 5c8:	6d6f646e 	cfstrdvs	mvd6, [pc, #-440]!	; 418 <shift+0x418>
 5cc:	74617a69 	strbtvc	r7, [r1], #-2665	; 0xfffff597
 5d0:	2e6e6f69 	cdpcs	15, 6, cr6, cr14, cr9, {3}
 5d4:	00000068 	andeq	r0, r0, r8, rrx
 5d8:	05000000 	streq	r0, [r0, #-0]
 5dc:	012d2802 			; <UNDEFINED> instruction: 0x012d2802
 5e0:	010a0300 	mrseq	r0, (UNDEF: 58)
 5e4:	4c846783 	stcmi	7, cr6, [r4], {131}	; 0x83
 5e8:	9f9f4d9f 	svcls	0x009f4d9f
 5ec:	01040200 	mrseq	r0, R12_usr
 5f0:	040200be 	streq	r0, [r2], #-190	; 0xffffff42
 5f4:	f3bb4b01 	vtbl.8	d4, {d11-d14}, d1
 5f8:	0200f36a 	andeq	pc, r0, #-1476395007	; 0xa8000001
 5fc:	9e060104 	adflss	f0, f6, f4
 600:	314b8406 	cmpcc	fp, r6, lsl #8
 604:	08832108 	stmeq	r3, {r3, r8, sp}
 608:	006986ae 	rsbeq	r8, r9, lr, lsr #13
 60c:	06010402 	streq	r0, [r1], -r2, lsl #8
 610:	0402009e 	streq	r0, [r2], #-158	; 0xffffff62
 614:	84068202 	strhi	r8, [r6], #-514	; 0xfffffdfe
 618:	2108314b 	tstcs	r8, fp, asr #2
 61c:	08832108 	stmeq	r3, {r3, r8, sp}
 620:	08ad08ae 	stmiaeq	sp!, {r1, r2, r3, r5, r7, fp}
 624:	f39408ae 	vmlal.u16	q0, d20, d30
 628:	01040200 	mrseq	r0, R12_usr
 62c:	84069e06 	strhi	r9, [r6], #-3590	; 0xfffff1fa
 630:	2108314b 	tstcs	r8, fp, asr #2
 634:	86ae0883 	strthi	r0, [lr], r3, lsl #17
 638:	04020069 	streq	r0, [r2], #-105	; 0xffffff97
 63c:	009e0601 	addseq	r0, lr, r1, lsl #12
 640:	82020402 	andhi	r0, r2, #33554432	; 0x2000000
 644:	03040200 	movweq	r0, #16896	; 0x4200
 648:	4ba00682 	blmi	fe802058 <__bss_end__+0xfe7d70ec>
 64c:	2108bb31 	tstcs	r8, r1, lsr fp
 650:	08832108 	stmeq	r3, {r3, r8, sp}
 654:	08ae08ae 	stmiaeq	lr!, {r1, r2, r3, r5, r7, fp}
 658:	0200f3e8 	andeq	pc, r0, #232, 6	; 0xa0000003
 65c:	9e060104 	adflss	f0, f6, f4
 660:	314b8406 	cmpcc	fp, r6, lsl #8
 664:	08832108 	stmeq	r3, {r3, r8, sp}
 668:	006986ae 	rsbeq	r8, r9, lr, lsr #13
 66c:	06010402 	streq	r0, [r1], -r2, lsl #8
 670:	0402009e 	streq	r0, [r2], #-158	; 0xffffff62
 674:	84068202 	strhi	r8, [r6], #-514	; 0xfffffdfe
 678:	2108314b 	tstcs	r8, fp, asr #2
 67c:	08832108 	stmeq	r3, {r3, r8, sp}
 680:	08ad08ae 	stmiaeq	sp!, {r1, r2, r3, r5, r7, fp}
 684:	d99308ae 	ldmible	r3, {r1, r2, r3, r5, r7, fp}
 688:	69692f84 	stmdbvs	r9!, {r2, r7, r8, r9, sl, fp, sp}^
 68c:	5d085d08 	stcpl	13, cr5, [r8, #-32]	; 0xffffffe0
 690:	0a025d08 	beq	97ab8 <__bss_end__+0x6cb4c>
 694:	ff010100 			; <UNDEFINED> instruction: 0xff010100
 698:	02000002 	andeq	r0, r0, #2
 69c:	00005100 	andeq	r5, r0, r0, lsl #2
 6a0:	fb010200 	blx	40eaa <__bss_end__+0x15f3e>
 6a4:	01000d0e 	tsteq	r0, lr, lsl #26
 6a8:	00010101 	andeq	r0, r1, r1, lsl #2
 6ac:	00010000 	andeq	r0, r1, r0
 6b0:	752f0100 	strvc	r0, [pc, #-256]!	; 5b8 <shift+0x5b8>
 6b4:	692f7273 	stmdbvs	pc!, {r0, r1, r4, r5, r6, r9, ip, sp, lr}	; <UNPREDICTABLE>
 6b8:	756c636e 	strbvc	r6, [ip, #-878]!	; 0xfffffc92
 6bc:	00006564 	andeq	r6, r0, r4, ror #10
 6c0:	6d676573 	cfstr64vs	mvdx6, [r7, #-460]!	; 0xfffffe34
 6c4:	2e746e65 	cdpcs	14, 7, cr6, cr4, cr5, {3}
 6c8:	00000063 	andeq	r0, r0, r3, rrx
 6cc:	74616d00 	strbtvc	r6, [r1], #-3328	; 0xfffff300
 6d0:	00682e68 	rsbeq	r2, r8, r8, ror #28
 6d4:	74000001 	strvc	r0, [r0], #-1
 6d8:	74726977 	ldrbtvc	r6, [r2], #-2423	; 0xfffff689
 6dc:	682e6565 	stmdavs	lr!, {r0, r2, r5, r6, r8, sl, sp, lr}
 6e0:	00000000 	andeq	r0, r0, r0
 6e4:	6d676573 	cfstr64vs	mvdx6, [r7, #-460]!	; 0xfffffe34
 6e8:	2e746e65 	cdpcs	14, 7, cr6, cr4, cr5, {3}
 6ec:	00000068 	andeq	r0, r0, r8, rrx
 6f0:	05000000 	streq	r0, [r0, #-0]
 6f4:	0135c802 	teqeq	r5, r2, lsl #16
 6f8:	01140300 	tsteq	r4, r0, lsl #6
 6fc:	83835a08 	orrhi	r5, r3, #8, 20	; 0x8000
 700:	d8dc7508 	ldmle	ip, {r3, r8, sl, ip, sp, lr}^
 704:	01040200 	mrseq	r0, R12_usr
 708:	02009e06 	andeq	r9, r0, #6, 28	; 0x60
 70c:	00d60204 	sbcseq	r0, r6, r4, lsl #4
 710:	d6040402 	strle	r0, [r4], -r2, lsl #8
 714:	05040200 	streq	r0, [r4, #-512]	; 0xfffffe00
 718:	0402004a 	streq	r0, [r2], #-74	; 0xffffffb6
 71c:	4b062e07 	blmi	18bf40 <__bss_end__+0x160fd4>
 720:	01040200 	mrseq	r0, R12_usr
 724:	0200d606 	andeq	sp, r0, #6291456	; 0x600000
 728:	00d60304 	sbcseq	r0, r6, r4, lsl #6
 72c:	4a040402 	bmi	10173c <__bss_end__+0xd67d0>
 730:	09040200 	stmdbeq	r4, {r9}
 734:	02002d06 	andeq	r2, r0, #384	; 0x180
 738:	03300804 	teqeq	r0, #4, 16	; 0x40000
 73c:	2602820a 	strcs	r8, [r2], -sl, lsl #4
 740:	83838314 	orrhi	r8, r3, #20, 6	; 0x50000000
 744:	04020085 	streq	r0, [r2], #-133	; 0xffffff7b
 748:	00ba0601 	adcseq	r0, sl, r1, lsl #12
 74c:	06040402 	streq	r0, [r4], -r2, lsl #8
 750:	040200bb 	streq	r0, [r2], #-187	; 0xffffff45
 754:	00676504 	rsbeq	r6, r7, r4, lsl #10
 758:	b9030402 	stmdblt	r3, {r1, sl}
 75c:	05040200 	streq	r0, [r4, #-512]	; 0xfffffe00
 760:	2d064a06 	vstrcs	s8, [r6, #-24]	; 0xffffffe8
 764:	08e5084d 	stmiaeq	r5!, {r0, r2, r3, r6, fp}^
 768:	854c85e9 	strbhi	r8, [ip, #-1513]	; 0xfffffa17
 76c:	0021084f 	eoreq	r0, r1, pc, asr #16
 770:	49010402 	stmdbmi	r1, {r1, sl}
 774:	01040200 	mrseq	r0, R12_usr
 778:	02005908 	andeq	r5, r0, #8, 18	; 0x20000
 77c:	1f080104 	svcne	0x00080104
 780:	0402004b 	streq	r0, [r2], #-75	; 0xffffffb5
 784:	00590803 	subseq	r0, r9, r3, lsl #16
 788:	08030402 	stmdaeq	r3, {r1, sl}
 78c:	02004b1f 	andeq	r4, r0, #31744	; 0x7c00
 790:	57080204 	strpl	r0, [r8, -r4, lsl #4]
 794:	04040200 	streq	r0, [r4], #-512	; 0xfffffe00
 798:	02004a06 	andeq	r4, r0, #24576	; 0x6000
 79c:	062e0604 	strteq	r0, [lr], -r4, lsl #12
 7a0:	4b4f4c4f 	blmi	13d38e4 <__bss_end__+0x13a8978>
 7a4:	e508834d 	str	r8, [r8, #-845]	; 0xfffffcb3
 7a8:	04020083 	streq	r0, [r2], #-131	; 0xffffff7d
 7ac:	00820601 	addeq	r0, r2, r1, lsl #12
 7b0:	9e030402 	cdpls	4, 0, cr0, cr3, cr2, {0}
 7b4:	05040200 	streq	r0, [r4, #-512]	; 0xfffffe00
 7b8:	04020082 	streq	r0, [r2], #-130	; 0xffffff7e
 7bc:	02009e07 	andeq	r9, r0, #7, 28	; 0x70
 7c0:	004a0804 	subeq	r0, sl, r4, lsl #16
 7c4:	2e0a0402 	cdpcs	4, 0, cr0, cr10, cr2, {0}
 7c8:	01040200 	mrseq	r0, R12_usr
 7cc:	2e120306 	cdpcs	3, 1, cr0, cr2, cr6, {0}
 7d0:	029e0b03 	addseq	r0, lr, #3072	; 0xc00
 7d4:	8383132a 	orrhi	r1, r3, #-1476395008	; 0xa8000000
 7d8:	02008583 	andeq	r8, r0, #549453824	; 0x20c00000
 7dc:	ba060104 	blt	180bf4 <__bss_end__+0x155c88>
 7e0:	04040200 	streq	r0, [r4], #-512	; 0xfffffe00
 7e4:	0200bb06 	andeq	fp, r0, #6144	; 0x1800
 7e8:	67650404 	strbvs	r0, [r5, -r4, lsl #8]!
 7ec:	03040200 	movweq	r0, #16896	; 0x4200
 7f0:	040200b9 	streq	r0, [r2], #-185	; 0xffffff47
 7f4:	064a0605 	strbeq	r0, [sl], -r5, lsl #12
 7f8:	0083692d 	addeq	r6, r3, sp, lsr #18
 7fc:	9f010402 	svcls	0x00010402
 800:	01040200 	mrseq	r0, R12_usr
 804:	04020049 	streq	r0, [r2], #-73	; 0xffffffb7
 808:	00660603 	rsbeq	r0, r6, r3, lsl #12
 80c:	4a040402 	bmi	10181c <__bss_end__+0xd68b0>
 810:	06040200 	streq	r0, [r4], -r0, lsl #4
 814:	0402002e 	streq	r0, [r2], #-46	; 0xffffffd2
 818:	83680606 	cmnhi	r8, #6291456	; 0x600000
 81c:	00c80367 	sbceq	r0, r8, r7, ror #6
 820:	7fbb0366 	svcvc	0x00bb0366
 824:	08e5082e 	stmiaeq	r5!, {r1, r2, r3, r5, fp}^
 828:	856785e6 	strbhi	r8, [r7, #-1510]!	; 0xfffffa1a
 82c:	04020067 	streq	r0, [r2], #-103	; 0xffffff99
 830:	58080601 	stmdapl	r8, {r0, r9, sl}
 834:	67590806 	ldrbvs	r0, [r9, -r6, lsl #16]
 838:	02008367 	andeq	r8, r0, #-1677721599	; 0x9c000001
 83c:	08060104 	stmdaeq	r6, {r2, r8}
 840:	59080658 	stmdbpl	r8, {r3, r4, r6, r9, sl}
 844:	00836767 	addeq	r6, r3, r7, ror #14
 848:	06010402 	streq	r0, [r1], -r2, lsl #8
 84c:	08065808 	stmdaeq	r6, {r3, fp, ip, lr}
 850:	83676759 	cmnhi	r7, #23330816	; 0x1640000
 854:	03662e03 	cmneq	r6, #3, 28	; 0x30
 858:	03682e56 	cmneq	r8, #1376	; 0x560
 85c:	5d036628 	stcpl	6, cr6, [r3, #-160]	; 0xffffff60
 860:	8368672e 	cmnhi	r8, #12058624	; 0xb80000
 864:	0083e508 	addeq	lr, r3, r8, lsl #10
 868:	06010402 	streq	r0, [r1], -r2, lsl #8
 86c:	04020082 	streq	r0, [r2], #-130	; 0xffffff7e
 870:	02009e03 	andeq	r9, r0, #3, 28	; 0x30
 874:	00820504 	addeq	r0, r2, r4, lsl #10
 878:	9e070402 	cdpls	4, 0, cr0, cr7, cr2, {0}
 87c:	08040200 	stmdaeq	r4, {r9}
 880:	0402004a 	streq	r0, [r2], #-74	; 0xffffffb6
 884:	02002e0a 	andeq	r2, r0, #10, 28	; 0xa0
 888:	67060a04 	strvs	r0, [r6, -r4, lsl #20]
 88c:	0a040200 	beq	101094 <__bss_end__+0xd6128>
 890:	02002108 	andeq	r2, r0, #8, 2
 894:	1b030a04 	blne	c30ac <__bss_end__+0x98140>
 898:	2e062008 	cdpcs	0, 0, cr2, cr6, cr8, {0}
 89c:	ca08a506 	bgt	229cbc <__bss_end__+0x1fed50>
 8a0:	4b132202 	blmi	4c90b0 <__bss_end__+0x49e144>
 8a4:	13340267 	teqne	r4, #1879048198	; 0x70000006
 8a8:	4b132802 	blmi	4ca8b8 <__bss_end__+0x49f94c>
 8ac:	02133402 	andseq	r3, r3, #33554432	; 0x2000000
 8b0:	02001328 	andeq	r1, r0, #40, 6	; 0xa0000000
 8b4:	7a030204 	bvc	c10cc <__bss_end__+0x96160>
 8b8:	0402004a 	streq	r0, [r2], #-74	; 0xffffffb6
 8bc:	06660601 	strbteq	r0, [r6], -r1, lsl #12
 8c0:	040200a6 	streq	r0, [r2], #-166	; 0xffffff5a
 8c4:	02682f01 	rsbeq	r2, r8, #1, 30
 8c8:	4b4b1422 	blmi	12c5958 <__bss_end__+0x129a9ec>
 8cc:	0c03ad08 	stceq	13, cr10, [r3], {8}
 8d0:	3c02f366 	stccc	3, cr15, [r2], {102}	; 0x66
 8d4:	08679f13 	stmdaeq	r7!, {r0, r1, r4, r8, r9, sl, fp, ip, pc}^
 8d8:	08e508e5 	stmiaeq	r5!, {r0, r2, r5, r6, r7, fp}^
 8dc:	08e508e5 	stmiaeq	r5!, {r0, r2, r5, r6, r7, fp}^
 8e0:	0200f327 	andeq	pc, r0, #-1677721600	; 0x9c000000
 8e4:	9e060104 	adflss	f0, f6, f4
 8e8:	02040200 	andeq	r0, r4, #0, 4
 8ec:	00123c02 	andseq	r3, r2, r2, lsl #24
 8f0:	02040402 	andeq	r0, r4, #33554432	; 0x2000000
 8f4:	02001238 	andeq	r1, r0, #56, 4	; 0x80000003
 8f8:	4b060404 	blmi	181910 <__bss_end__+0x1569a4>
 8fc:	01040200 	mrseq	r0, R12_usr
 900:	02009e06 	andeq	r9, r0, #6, 28	; 0x60
 904:	3c020204 	sfmcc	f0, 4, [r2], {4}
 908:	04020012 	streq	r0, [r2], #-18	; 0xffffffee
 90c:	12380204 	eorsne	r0, r8, #4, 4	; 0x40000000
 910:	04040200 	streq	r0, [r4], #-512	; 0xfffffe00
 914:	02004b06 	andeq	r4, r0, #6144	; 0x1800
 918:	00bb0404 	adcseq	r0, fp, r4, lsl #8
 91c:	08040402 	stmdaeq	r4, {r1, sl}
 920:	040200e5 	streq	r0, [r2], #-229	; 0xffffff1b
 924:	00e50804 	rsceq	r0, r5, r4, lsl #16
 928:	08040402 	stmdaeq	r4, {r1, sl}
 92c:	040200e5 	streq	r0, [r2], #-229	; 0xffffff1b
 930:	08e50804 	stmiaeq	r5!, {r2, fp}^
 934:	02750827 	rsbseq	r0, r5, #2555904	; 0x270000
 938:	0200132a 	andeq	r1, r0, #-1476395008	; 0xa8000000
 93c:	9e060104 	adflss	f0, f6, f4
 940:	02040200 	andeq	r0, r4, #0, 4
 944:	02005808 	andeq	r5, r0, #8, 16	; 0x80000
 948:	20080404 	andcs	r0, r8, r4, lsl #8
 94c:	04040200 	streq	r0, [r4], #-512	; 0xfffffe00
 950:	02004c06 	andeq	r4, r0, #1536	; 0x600
 954:	91080404 	tstls	r8, r4, lsl #8
 958:	04040200 	streq	r0, [r4], #-512	; 0xfffffe00
 95c:	02009108 	andeq	r9, r0, #8, 2
 960:	004b0404 	subeq	r0, fp, r4, lsl #8
 964:	08040402 	stmdaeq	r4, {r1, sl}
 968:	9108f53d 	tstls	r8, sp, lsr r5	; <UNPREDICTABLE>
 96c:	9f133c02 	svcls	0x00133c02
 970:	59088367 	stmdbpl	r8, {r0, r1, r2, r5, r6, r8, r9, pc}
 974:	4b4bbcc1 	blmi	12efc80 <__bss_end__+0x12c4d14>
 978:	00bbc0f3 	ldrshteq	ip, [fp], r3
 97c:	06010402 	streq	r0, [r1], -r2, lsl #8
 980:	0402009e 	streq	r0, [r2], #-158	; 0xffffff62
 984:	123c0202 	eorsne	r0, ip, #536870912	; 0x20000000
 988:	04040200 	streq	r0, [r4], #-512	; 0xfffffe00
 98c:	00123802 	andseq	r3, r2, r2, lsl #16
 990:	06040402 	streq	r0, [r4], -r2, lsl #8
 994:	000c022f 	andeq	r0, ip, pc, lsr #4
 998:	00f70101 	rscseq	r0, r7, r1, lsl #2
 99c:	00020000 	andeq	r0, r2, r0
 9a0:	00000085 	andeq	r0, r0, r5, lsl #1
 9a4:	0efb0102 	cdpeq	1, 15, cr0, cr11, cr2, {0}
 9a8:	0101000d 	tsteq	r1, sp
 9ac:	00000101 	andeq	r0, r0, r1, lsl #2
 9b0:	00000100 	andeq	r0, r0, r0, lsl #2
 9b4:	002e2e01 	eoreq	r2, lr, r1, lsl #28
 9b8:	7273752f 	rsbsvc	r7, r3, #197132288	; 0xbc00000
 9bc:	636e692f 	cmnvs	lr, #770048	; 0xbc000
 9c0:	6564756c 	strbvs	r7, [r4, #-1388]!	; 0xfffffa94
 9c4:	69730000 	ldmdbvs	r3!, {}^	; <UNPREDICTABLE>
 9c8:	616c756d 	cmnvs	ip, sp, ror #10
 9cc:	2e726f74 	mrccs	15, 3, r6, cr2, cr4, {3}
 9d0:	00000063 	andeq	r0, r0, r3, rrx
 9d4:	616c7000 	cmnvs	ip, r0
 9d8:	726f6674 	rsbvc	r6, pc, #116, 12	; 0x7400000
 9dc:	79745f6d 	ldmdbvc	r4!, {r0, r2, r3, r5, r6, r8, r9, sl, fp, ip, lr}^
 9e0:	2e736570 	mrccs	5, 3, r6, cr3, cr0, {3}
 9e4:	00010068 	andeq	r0, r1, r8, rrx
 9e8:	69777400 	ldmdbvs	r7!, {sl, ip, sp, lr}^
 9ec:	65657472 	strbvs	r7, [r5, #-1138]!	; 0xfffffb8e
 9f0:	0100682e 	tsteq	r0, lr, lsr #16
 9f4:	69730000 	ldmdbvs	r3!, {}^	; <UNPREDICTABLE>
 9f8:	616c756d 	cmnvs	ip, sp, ror #10
 9fc:	2e726f74 	mrccs	15, 3, r6, cr2, cr4, {3}
 a00:	00000068 	andeq	r0, r0, r8, rrx
 a04:	74616d00 	strbtvc	r6, [r1], #-3328	; 0xfffff300
 a08:	00682e68 	rsbeq	r2, r8, r8, ror #28
 a0c:	6d000002 	stcvs	0, cr0, [r0, #-8]
 a10:	682e7461 	stmdavs	lr!, {r0, r5, r6, sl, ip, sp, lr}
 a14:	00000000 	andeq	r0, r0, r0
 a18:	61726170 	cmnvs	r2, r0, ror r1
 a1c:	7274656d 	rsbsvc	r6, r4, #457179136	; 0x1b400000
 a20:	682e7365 	stmdavs	lr!, {r0, r2, r5, r6, r8, r9, ip, sp, lr}
 a24:	00000000 	andeq	r0, r0, r0
 a28:	02050000 	andeq	r0, r5, #0
 a2c:	00014c88 	andeq	r4, r1, r8, lsl #25
 a30:	9f011703 	svcls	0x00011703
 a34:	0200854e 	andeq	r8, r0, #327155712	; 0x13800000
 a38:	9e060104 	adflss	f0, f6, f4
 a3c:	02040200 	andeq	r0, r4, #0, 4
 a40:	04020082 	streq	r0, [r2], #-130	; 0xffffff7e
 a44:	02002e04 	andeq	r2, r0, #4, 28	; 0x40
 a48:	4b060404 	blmi	181a60 <__bss_end__+0x156af4>
 a4c:	04040200 	streq	r0, [r4], #-512	; 0xfffffe00
 a50:	02002208 	andeq	r2, r0, #8, 4	; 0x80000000
 a54:	34020404 	strcc	r0, [r2], #-1028	; 0xfffffbfc
 a58:	04020013 	streq	r0, [r2], #-19	; 0xffffffed
 a5c:	13340204 	teqne	r4, #4, 4	; 0x40000000
 a60:	04040200 	streq	r0, [r4], #-512	; 0xfffffe00
 a64:	02009208 	andeq	r9, r0, #8, 4	; 0x80000000
 a68:	00d70404 	sbcseq	r0, r7, r4, lsl #8
 a6c:	83040402 	movwhi	r0, #17410	; 0x4402
 a70:	04040200 	streq	r0, [r4], #-512	; 0xfffffe00
 a74:	040200d7 	streq	r0, [r2], #-215	; 0xffffff29
 a78:	0200d704 	andeq	sp, r0, #4, 14	; 0x100000
 a7c:	00830404 	addeq	r0, r3, r4, lsl #8
 a80:	02040402 	andeq	r0, r4, #33554432	; 0x2000000
 a84:	02001322 	andeq	r1, r0, #-2013265920	; 0x88000000
 a88:	24020404 	strcs	r0, [r2], #-1028	; 0xfffffbfc
 a8c:	f2140315 	vcge.s16	d0, d4, d5
 a90:	01002002 	tsteq	r0, r2
 a94:	00004f01 	andeq	r4, r0, r1, lsl #30
 a98:	49000200 	stmdbmi	r0, {r9}
 a9c:	02000000 	andeq	r0, r0, #0
 aa0:	0d0efb01 	vstreq	d15, [lr, #-4]
 aa4:	01010100 	mrseq	r0, (UNDEF: 17)
 aa8:	00000001 	andeq	r0, r0, r1
 aac:	01000001 	tsteq	r0, r1
 ab0:	69777400 	ldmdbvs	r7!, {sl, ip, sp, lr}^
 ab4:	65657472 	strbvs	r7, [r5, #-1138]!	; 0xfffffb8e
 ab8:	0000682e 	andeq	r6, r0, lr, lsr #16
 abc:	61700000 	cmnvs	r0, r0
 ac0:	656d6172 	strbvs	r6, [sp, #-370]!	; 0xfffffe8e
 ac4:	73657274 	cmnvc	r5, #116, 4	; 0x40000007
 ac8:	0000682e 	andeq	r6, r0, lr, lsr #16
 acc:	616d0000 	cmnvs	sp, r0
 ad0:	00682e74 	rsbeq	r2, r8, r4, ror lr
 ad4:	70000000 	andvc	r0, r0, r0
 ad8:	6d617261 	sfmvs	f7, 2, [r1, #-388]!	; 0xfffffe7c
 adc:	65727465 	ldrbvs	r7, [r2, #-1125]!	; 0xfffffb9b
 ae0:	00632e73 	rsbeq	r2, r3, r3, ror lr
 ae4:	00000000 	andeq	r0, r0, r0
 ae8:	00000264 	andeq	r0, r0, r4, ror #4
 aec:	00320002 	eorseq	r0, r2, r2
 af0:	01020000 	mrseq	r0, (UNDEF: 2)
 af4:	000d0efb 	strdeq	r0, [sp], -fp
 af8:	01010101 	tsteq	r1, r1, lsl #2
 afc:	01000000 	mrseq	r0, (UNDEF: 0)
 b00:	00010000 	andeq	r0, r1, r0
 b04:	2e74616d 	rpwcssz	f6, f4, #5.0
 b08:	00000063 	andeq	r0, r0, r3, rrx
 b0c:	69777400 	ldmdbvs	r7!, {sl, ip, sp, lr}^
 b10:	65657472 	strbvs	r7, [r5, #-1138]!	; 0xfffffb8e
 b14:	0000682e 	andeq	r6, r0, lr, lsr #16
 b18:	616d0000 	cmnvs	sp, r0
 b1c:	00682e74 	rsbeq	r2, r8, r4, ror lr
 b20:	00000000 	andeq	r0, r0, r0
 b24:	70020500 	andvc	r0, r2, r0, lsl #10
 b28:	0300014f 	movweq	r0, #335	; 0x14f
 b2c:	67a1012b 	strvs	r0, [r1, fp, lsr #2]!
 b30:	03040200 	movweq	r0, #16896	; 0x4200
 b34:	04020067 	streq	r0, [r2], #-103	; 0xffffff99
 b38:	11300203 	teqne	r0, r3, lsl #4
 b3c:	01040200 	mrseq	r0, R12_usr
 b40:	02006606 	andeq	r6, r0, #6291456	; 0x600000
 b44:	9d060204 	sfmls	f0, 4, [r6, #-16]
 b48:	01040200 	mrseq	r0, R12_usr
 b4c:	a1066606 	tstge	r6, r6, lsl #12
 b50:	0200a088 	andeq	sl, r0, #136	; 0x88
 b54:	ba060104 	blt	180f6c <__bss_end__+0x156000>
 b58:	f5d7bc06 			; <UNDEFINED> instruction: 0xf5d7bc06
 b5c:	00bd502f 	adcseq	r5, sp, pc, lsr #32
 b60:	bb010402 	bllt	41b70 <__bss_end__+0x16c04>
 b64:	01040200 	mrseq	r0, R12_usr
 b68:	4c814c81 	stcmi	12, cr4, [r1], {129}	; 0x81
 b6c:	00674f81 	rsbeq	r4, r7, r1, lsl #31
 b70:	67030402 	strvs	r0, [r3, -r2, lsl #8]
 b74:	03040200 	movweq	r0, #16896	; 0x4200
 b78:	00114402 	andseq	r4, r1, r2, lsl #8
 b7c:	06010402 	streq	r0, [r1], -r2, lsl #8
 b80:	04020066 	streq	r0, [r2], #-102	; 0xffffff9a
 b84:	009d0602 	addseq	r0, sp, r2, lsl #12
 b88:	06010402 	streq	r0, [r1], -r2, lsl #8
 b8c:	369b0666 	ldrcc	r0, [fp], r6, ror #12
 b90:	00bd6c30 	adcseq	r6, sp, r0, lsr ip
 b94:	bb010402 	bllt	41ba4 <__bss_end__+0x16c38>
 b98:	01040200 	mrseq	r0, R12_usr
 b9c:	4c814c81 	stcmi	12, cr4, [r1], {129}	; 0x81
 ba0:	00674f81 	rsbeq	r4, r7, r1, lsl #31
 ba4:	67030402 	strvs	r0, [r3, -r2, lsl #8]
 ba8:	03040200 	movweq	r0, #16896	; 0x4200
 bac:	00114402 	andseq	r4, r1, r2, lsl #8
 bb0:	06010402 	streq	r0, [r1], -r2, lsl #8
 bb4:	04020066 	streq	r0, [r2], #-102	; 0xffffff9a
 bb8:	009d0602 	addseq	r0, sp, r2, lsl #12
 bbc:	06010402 	streq	r0, [r1], -r2, lsl #8
 bc0:	369b0666 	ldrcc	r0, [fp], r6, ror #12
 bc4:	00bd6d30 	adcseq	r6, sp, r0, lsr sp
 bc8:	bb010402 	bllt	41bd8 <__bss_end__+0x16c6c>
 bcc:	01040200 	mrseq	r0, R12_usr
 bd0:	4f814c81 	svcmi	0x00814c81
 bd4:	91086867 	tstls	r8, r7, ror #16
 bd8:	03040200 	movweq	r0, #16896	; 0x4200
 bdc:	04020067 	streq	r0, [r2], #-103	; 0xffffff99
 be0:	115c0203 	cmpne	ip, r3, lsl #4
 be4:	01040200 	mrseq	r0, R12_usr
 be8:	02006606 	andeq	r6, r0, #6291456	; 0x600000
 bec:	9b060204 	blls	181404 <__bss_end__+0x156498>
 bf0:	01040200 	mrseq	r0, R12_usr
 bf4:	02006606 	andeq	r6, r0, #6291456	; 0x600000
 bf8:	9d060204 	sfmls	f0, 4, [r6, #-16]
 bfc:	01040200 	mrseq	r0, R12_usr
 c00:	9b066606 	blls	19a420 <__bss_end__+0x16f4b4>
 c04:	302e0c03 	eorcc	r0, lr, r3, lsl #24
 c08:	0200bd6d 	andeq	fp, r0, #6976	; 0x1b40
 c0c:	00bb0104 	adcseq	r0, fp, r4, lsl #2
 c10:	81010402 	tsthi	r1, r2, lsl #8
 c14:	674f814c 	strbvs	r8, [pc, -ip, asr #2]
 c18:	00910868 	addseq	r0, r1, r8, ror #16
 c1c:	67030402 	strvs	r0, [r3, -r2, lsl #8]
 c20:	03040200 	movweq	r0, #16896	; 0x4200
 c24:	00115c02 	andseq	r5, r1, r2, lsl #24
 c28:	06010402 	streq	r0, [r1], -r2, lsl #8
 c2c:	04020066 	streq	r0, [r2], #-102	; 0xffffff9a
 c30:	009b0602 	addseq	r0, fp, r2, lsl #12
 c34:	06010402 	streq	r0, [r1], -r2, lsl #8
 c38:	04020066 	streq	r0, [r2], #-102	; 0xffffff9a
 c3c:	009d0602 	addseq	r0, sp, r2, lsl #12
 c40:	06010402 	streq	r0, [r1], -r2, lsl #8
 c44:	039b0666 	orrseq	r0, fp, #106954752	; 0x6600000
 c48:	6d2f2e0c 	stcvs	14, cr2, [pc, #-48]!	; c20 <shift+0xc20>
 c4c:	040200bd 	streq	r0, [r2], #-189	; 0xffffff43
 c50:	0200bb01 	andeq	fp, r0, #1024	; 0x400
 c54:	4c810104 	stfmis	f0, [r1], {4}
 c58:	68674f81 	stmdavs	r7!, {r0, r7, r8, r9, sl, fp, lr}^
 c5c:	02009108 	andeq	r9, r0, #8, 2
 c60:	00670304 	rsbeq	r0, r7, r4, lsl #6
 c64:	02030402 	andeq	r0, r3, #33554432	; 0x2000000
 c68:	0200115c 	andeq	r1, r0, #92, 2
 c6c:	66060104 	strvs	r0, [r6], -r4, lsl #2
 c70:	02040200 	andeq	r0, r4, #0, 4
 c74:	02009b06 	andeq	r9, r0, #6144	; 0x1800
 c78:	66060104 	strvs	r0, [r6], -r4, lsl #2
 c7c:	02040200 	andeq	r0, r4, #0, 4
 c80:	02009d06 	andeq	r9, r0, #384	; 0x180
 c84:	66060104 	strvs	r0, [r6], -r4, lsl #2
 c88:	0c039b06 			; <UNDEFINED> instruction: 0x0c039b06
 c8c:	bc6c2f2e 	stcllt	15, cr2, [ip], #-184	; 0xffffff48
 c90:	679f9fd7 			; <UNDEFINED> instruction: 0x679f9fd7
 c94:	9fd7bc6c 	svcls	0x00d7bc6c
 c98:	bc6c679f 	stcllt	7, cr6, [ip], #-636	; 0xfffffd84
 c9c:	68673d08 	stmdavs	r7!, {r3, r8, sl, fp, ip, sp}^
 ca0:	04020067 	streq	r0, [r2], #-103	; 0xffffff99
 ca4:	02006703 	andeq	r6, r0, #786432	; 0xc0000
 ca8:	73080304 	movwvc	r0, #33540	; 0x8304
 cac:	01040200 	mrseq	r0, R12_usr
 cb0:	02006606 	andeq	r6, r0, #6291456	; 0x600000
 cb4:	9d060204 	sfmls	f0, 4, [r6, #-16]
 cb8:	01040200 	mrseq	r0, R12_usr
 cbc:	a2066606 	andge	r6, r6, #6291456	; 0x600000
 cc0:	6c83836d 	stcvs	3, cr8, [r3], {109}	; 0x6d
 cc4:	1403bda0 	strne	fp, [r3], #-3488	; 0xfffff260
 cc8:	2e6f03f2 	mcrcs	3, 3, r0, cr15, cr2, {7}
 ccc:	0867319f 	stmdaeq	r7!, {r0, r1, r2, r3, r4, r7, r8, ip, sp}^
 cd0:	08673192 	stmdaeq	r7!, {r1, r4, r7, r8, ip, sp}^
 cd4:	30ab08ad 	adccc	r0, fp, sp, lsr #17
 cd8:	4e2dab08 	vmulmi.f64	d10, d13, d8
 cdc:	09032f35 	stmdbeq	r3, {r0, r2, r4, r5, r8, r9, sl, fp, sp}
 ce0:	0200a266 	andeq	sl, r0, #1610612742	; 0x60000006
 ce4:	00bb0104 	adcseq	r0, fp, r4, lsl #2
 ce8:	81010402 	tsthi	r1, r2, lsl #8
 cec:	834d814c 	movthi	r8, #53580	; 0xd14c
 cf0:	f2250385 	vcgt.s32	d0, d21, d5
 cf4:	bb2e5e03 	bllt	b98508 <__bss_end__+0xb6d59c>
 cf8:	83686731 	cmnhi	r8, #12845056	; 0xc40000
 cfc:	bc849f9f 	stclt	15, cr9, [r4], {159}	; 0x9f
 d00:	08686731 	stmdaeq	r8!, {r0, r4, r5, r8, r9, sl, sp, lr}^
 d04:	08ad0891 	stmiaeq	sp!, {r0, r4, r7, fp}
 d08:	08ad0891 	stmiaeq	sp!, {r0, r4, r7, fp}
 d0c:	08ad0891 	stmiaeq	sp!, {r0, r4, r7, fp}
 d10:	08ad0891 	stmiaeq	sp!, {r0, r4, r7, fp}
 d14:	3032bc92 	mlascc	r2, r2, ip, fp
 d18:	034a5503 	movteq	r5, #42243	; 0xa503
 d1c:	a0882e2c 	addge	r2, r8, ip, lsr #28
 d20:	01040200 	mrseq	r0, R12_usr
 d24:	bb06ba06 	bllt	1af544 <__bss_end__+0x1845d8>
 d28:	04020067 	streq	r0, [r2], #-103	; 0xffffff99
 d2c:	02006703 	andeq	r6, r0, #786432	; 0xc0000
 d30:	2c020304 	stccs	3, cr0, [r2], {4}
 d34:	04020011 	streq	r0, [r2], #-17	; 0xffffffef
 d38:	00660601 	rsbeq	r0, r6, r1, lsl #12
 d3c:	06020402 	streq	r0, [r2], -r2, lsl #8
 d40:	0402009d 	streq	r0, [r2], #-157	; 0xffffff63
 d44:	06660601 	strbteq	r0, [r6], -r1, lsl #12
 d48:	022f339d 	eoreq	r3, pc, #1946157058	; 0x74000002
 d4c:	01010006 	tsteq	r1, r6
 d50:	00000113 	andeq	r0, r0, r3, lsl r1
 d54:	00e60002 	rsceq	r0, r6, r2
 d58:	01020000 	mrseq	r0, (UNDEF: 2)
 d5c:	000d0efb 	strdeq	r0, [sp], -fp
 d60:	01010101 	tsteq	r1, r1, lsl #2
 d64:	01000000 	mrseq	r0, (UNDEF: 0)
 d68:	2f010000 	svccs	0x00010000
 d6c:	2f727375 	svccs	0x00727375
 d70:	2f62696c 	svccs	0x0062696c
 d74:	2f636367 	svccs	0x00636367
 d78:	2d6d7261 	sfmcs	f7, 2, [sp, #-388]!	; 0xfffffe7c
 d7c:	756e696c 	strbvc	r6, [lr, #-2412]!	; 0xfffff694
 d80:	6e672d78 	mcrvs	13, 3, r2, cr7, cr8, {3}
 d84:	62616575 	rsbvs	r6, r1, #490733568	; 0x1d400000
 d88:	2f666869 	svccs	0x00666869
 d8c:	6e692f36 	mcrvs	15, 3, r2, cr9, cr6, {1}
 d90:	64756c63 	ldrbtvs	r6, [r5], #-3171	; 0xfffff39d
 d94:	752f0065 	strvc	r0, [pc, #-101]!	; d37 <shift+0xd37>
 d98:	692f7273 	stmdbvs	pc!, {r0, r1, r4, r5, r6, r9, ip, sp, lr}	; <UNPREDICTABLE>
 d9c:	756c636e 	strbvc	r6, [ip, #-878]!	; 0xfffffc92
 da0:	612f6564 			; <UNDEFINED> instruction: 0x612f6564
 da4:	6c2d6d72 	stcvs	13, cr6, [sp], #-456	; 0xfffffe38
 da8:	78756e69 	ldmdavc	r5!, {r0, r3, r5, r6, r9, sl, fp, sp, lr}^
 dac:	756e672d 	strbvc	r6, [lr, #-1837]!	; 0xfffff8d3
 db0:	69626165 	stmdbvs	r2!, {r0, r2, r5, r6, r8, sp, lr}^
 db4:	622f6668 	eorvs	r6, pc, #104, 12	; 0x6800000
 db8:	00737469 	rsbseq	r7, r3, r9, ror #8
 dbc:	7273752f 	rsbsvc	r7, r3, #197132288	; 0xbc00000
 dc0:	636e692f 	cmnvs	lr, #770048	; 0xbc000
 dc4:	6564756c 	strbvs	r7, [r4, #-1388]!	; 0xfffffa94
 dc8:	68740000 	ldmdavs	r4!, {}^	; <UNPREDICTABLE>
 dcc:	64616572 	strbtvs	r6, [r1], #-1394	; 0xfffffa8e
 dd0:	676d5f73 			; <UNDEFINED> instruction: 0x676d5f73
 dd4:	00632e72 	rsbeq	r2, r3, r2, ror lr
 dd8:	73000000 	movwvc	r0, #0
 ddc:	65646474 	strbvs	r6, [r4, #-1140]!	; 0xfffffb8c
 de0:	00682e66 	rsbeq	r2, r8, r6, ror #28
 de4:	74000001 	strvc	r0, [r0], #-1
 de8:	73657079 	cmnvc	r5, #121	; 0x79
 dec:	0200682e 	andeq	r6, r0, #3014656	; 0x2e0000
 df0:	69740000 	ldmdbvs	r4!, {}^	; <UNPREDICTABLE>
 df4:	682e656d 	stmdavs	lr!, {r0, r2, r3, r5, r6, r8, sl, sp, lr}
 df8:	00000300 	andeq	r0, r0, r0, lsl #6
 dfc:	72687470 	rsbvc	r7, r8, #112, 8	; 0x70000000
 e00:	74646165 	strbtvc	r6, [r4], #-357	; 0xfffffe9b
 e04:	73657079 	cmnvc	r5, #121	; 0x79
 e08:	0200682e 	andeq	r6, r0, #3014656	; 0x2e0000
 e0c:	696c0000 	stmdbvs	ip!, {}^	; <UNPREDICTABLE>
 e10:	2e6f6962 	vnmulcs.f16	s13, s30, s5	; <UNPREDICTABLE>
 e14:	00030068 	andeq	r0, r3, r8, rrx
 e18:	64747300 	ldrbtvs	r7, [r4], #-768	; 0xfffffd00
 e1c:	682e6f69 	stmdavs	lr!, {r0, r3, r5, r6, r8, r9, sl, fp, sp, lr}
 e20:	00000300 	andeq	r0, r0, r0, lsl #6
 e24:	5f737973 	svcpl	0x00737973
 e28:	6c727265 	lfmvs	f7, 2, [r2], #-404	; 0xfffffe6c
 e2c:	2e747369 	cdpcs	3, 7, cr7, cr4, cr9, {3}
 e30:	00020068 	andeq	r0, r2, r8, rrx
 e34:	74616d00 	strbtvc	r6, [r1], #-3328	; 0xfffff300
 e38:	00682e68 	rsbeq	r2, r8, r8, ror #28
 e3c:	00000003 	andeq	r0, r0, r3
 e40:	58020500 	stmdapl	r2, {r8, sl}
 e44:	03000161 	movweq	r0, #353	; 0x161
 e48:	0084010b 	addeq	r0, r4, fp, lsl #2
 e4c:	4b010402 	blmi	41e5c <__bss_end__+0x16ef0>
 e50:	d7833d08 	strle	r3, [r3, r8, lsl #26]
 e54:	844c4bf3 	strbhi	r4, [ip], #-3059	; 0xfffff40d
 e58:	4c4bbb9f 	mcrrmi	11, 9, fp, fp, cr15
 e5c:	689f8586 	ldmvs	pc, {r1, r2, r7, r8, sl, pc}	; <UNPREDICTABLE>
 e60:	0602314d 	streq	r3, [r2], -sp, asr #2
 e64:	Adresse 0x00000e64 hors intervalle.


Déassemblage de la section .debug_frame :

00000000 <.debug_frame>:
   0:	0000000c 	andeq	r0, r0, ip
   4:	ffffffff 			; <UNDEFINED> instruction: 0xffffffff
   8:	7c020001 	stcvc	0, cr0, [r2], {1}
   c:	000d0c0e 	andeq	r0, sp, lr, lsl #24
  10:	0000001c 	andeq	r0, r0, ip, lsl r0
  14:	00000000 	andeq	r0, r0, r0
  18:	00010890 	muleq	r1, r0, r8
  1c:	0000016c 	andeq	r0, r0, ip, ror #2
  20:	8b080e42 	blhi	203930 <__bss_end__+0x1d89c4>
  24:	42018e02 	andmi	r8, r1, #2, 28
  28:	02040b0c 	andeq	r0, r4, #12, 22	; 0x3000
  2c:	080d0cac 	stmdaeq	sp, {r2, r3, r5, r7, sl, fp}
  30:	0000000c 	andeq	r0, r0, ip
  34:	ffffffff 			; <UNDEFINED> instruction: 0xffffffff
  38:	7c020001 	stcvc	0, cr0, [r2], {1}
  3c:	000d0c0e 	andeq	r0, sp, lr, lsl #24
  40:	0000001c 	andeq	r0, r0, ip, lsl r0
  44:	00000030 	andeq	r0, r0, r0, lsr r0
  48:	000109fc 	strdeq	r0, [r1], -ip
  4c:	00000134 	andeq	r0, r0, r4, lsr r1
  50:	8b080e42 	blhi	203960 <__bss_end__+0x1d89f4>
  54:	42018e02 	andmi	r8, r1, #2, 28
  58:	02040b0c 	andeq	r0, r4, #12, 22	; 0x3000
  5c:	080d0c94 	stmdaeq	sp, {r2, r4, r7, sl, fp}
  60:	0000001c 	andeq	r0, r0, ip, lsl r0
  64:	00000030 	andeq	r0, r0, r0, lsr r0
  68:	00010b30 	andeq	r0, r1, r0, lsr fp
  6c:	000001b8 			; <UNDEFINED> instruction: 0x000001b8
  70:	8b080e42 	blhi	203980 <__bss_end__+0x1d8a14>
  74:	42018e02 	andmi	r8, r1, #2, 28
  78:	02040b0c 	andeq	r0, r4, #12, 22	; 0x3000
  7c:	080d0cd2 	stmdaeq	sp, {r1, r4, r6, r7, sl, fp}
  80:	0000004c 	andeq	r0, r0, ip, asr #32
  84:	00000030 	andeq	r0, r0, r0, lsr r0
  88:	00010ce8 	andeq	r0, r1, r8, ror #25
  8c:	00000100 	andeq	r0, r0, r0, lsl #2
  90:	8b080e42 	blhi	2039a0 <__bss_end__+0x1d8a34>
  94:	42018e02 	andmi	r8, r1, #2, 28
  98:	5005280e 	andpl	r2, r5, lr, lsl #16
  9c:	0951050a 	ldmdbeq	r1, {r1, r3, r8, sl}^
  a0:	05085205 	streq	r5, [r8, #-517]	; 0xfffffdfb
  a4:	54050753 	strpl	r0, [r5], #-1875	; 0xfffff8ad
  a8:	05550506 	ldrbeq	r0, [r5, #-1286]	; 0xfffffafa
  ac:	05045605 	streq	r5, [r4, #-1541]	; 0xfffff9fb
  b0:	0c420357 	mcrreq	3, 5, r0, r2, cr7
  b4:	7202040b 	andvc	r0, r2, #184549376	; 0xb000000
  b8:	42280d0c 	eormi	r0, r8, #12, 26	; 0x300
  bc:	57065606 	strpl	r5, [r6, -r6, lsl #12]
  c0:	55065406 	strpl	r5, [r6, #-1030]	; 0xfffffbfa
  c4:	53065206 	movwpl	r5, #25094	; 0x6206
  c8:	51065006 	tstpl	r6, r6
  cc:	0000080e 	andeq	r0, r0, lr, lsl #16
  d0:	0000001c 	andeq	r0, r0, ip, lsl r0
  d4:	00000030 	andeq	r0, r0, r0, lsr r0
  d8:	00010de8 	andeq	r0, r1, r8, ror #27
  dc:	00000114 	andeq	r0, r0, r4, lsl r1
  e0:	8b040e42 	blhi	1039f0 <__bss_end__+0xd8a84>
  e4:	0b0d4201 	bleq	3508f0 <__bss_end__+0x325984>
  e8:	0d0d8202 	sfmeq	f0, 1, [sp, #-8]
  ec:	000ecb42 	andeq	ip, lr, r2, asr #22
  f0:	0000000c 	andeq	r0, r0, ip
  f4:	ffffffff 			; <UNDEFINED> instruction: 0xffffffff
  f8:	7c020001 	stcvc	0, cr0, [r2], {1}
  fc:	000d0c0e 	andeq	r0, sp, lr, lsl #24
 100:	0000001c 	andeq	r0, r0, ip, lsl r0
 104:	000000f0 	strdeq	r0, [r0], -r0	; <UNPREDICTABLE>
 108:	00010f00 	andeq	r0, r1, r0, lsl #30
 10c:	0000006c 	andeq	r0, r0, ip, rrx
 110:	8b040e42 	blhi	103a20 <__bss_end__+0xd8ab4>
 114:	0b0d4201 	bleq	350920 <__bss_end__+0x3259b4>
 118:	420d0d6e 	andmi	r0, sp, #7040	; 0x1b80
 11c:	00000ecb 	andeq	r0, r0, fp, asr #29
 120:	0000001c 	andeq	r0, r0, ip, lsl r0
 124:	000000f0 	strdeq	r0, [r0], -r0	; <UNPREDICTABLE>
 128:	00010f6c 	andeq	r0, r1, ip, ror #30
 12c:	000001d4 	ldrdeq	r0, [r0], -r4
 130:	8b080e42 	blhi	203a40 <__bss_end__+0x1d8ad4>
 134:	42018e02 	andmi	r8, r1, #2, 28
 138:	02040b0c 	andeq	r0, r4, #12, 22	; 0x3000
 13c:	080d0ce0 	stmdaeq	sp, {r5, r6, r7, sl, fp}
 140:	00000020 	andeq	r0, r0, r0, lsr #32
 144:	000000f0 	strdeq	r0, [r0], -r0	; <UNPREDICTABLE>
 148:	00011140 	andeq	r1, r1, r0, asr #2
 14c:	000002ac 	andeq	r0, r0, ip, lsr #5
 150:	8b080e42 	blhi	203a60 <__bss_end__+0x1d8af4>
 154:	42018e02 	andmi	r8, r1, #2, 28
 158:	03040b0c 	movweq	r0, #19212	; 0x4b0c
 15c:	0d0c014a 	stfeqs	f0, [ip, #-296]	; 0xfffffed8
 160:	00000008 	andeq	r0, r0, r8
 164:	00000030 	andeq	r0, r0, r0, lsr r0
 168:	000000f0 	strdeq	r0, [r0], -r0	; <UNPREDICTABLE>
 16c:	000113ec 	andeq	r1, r1, ip, ror #7
 170:	000003dc 	ldrdeq	r0, [r0], -ip
 174:	8b080e42 	blhi	203a84 <__bss_end__+0x1d8b18>
 178:	42018e02 	andmi	r8, r1, #2, 28
 17c:	5005100e 	andpl	r1, r5, lr
 180:	03510504 	cmpeq	r1, #4, 10	; 0x1000000
 184:	040b0c42 	streq	r0, [fp], #-3138	; 0xfffff3be
 188:	0c01e403 	cfstrseq	mvf14, [r1], {3}
 18c:	0642100d 	strbeq	r1, [r2], -sp
 190:	0e510650 	mrceq	6, 2, r0, cr1, cr0, {2}
 194:	00000008 	andeq	r0, r0, r8
 198:	00000024 	andeq	r0, r0, r4, lsr #32
 19c:	000000f0 	strdeq	r0, [r0], -r0	; <UNPREDICTABLE>
 1a0:	000117c8 	andeq	r1, r1, r8, asr #15
 1a4:	00000050 	andeq	r0, r0, r0, asr r0
 1a8:	42100e42 	andsmi	r0, r0, #1056	; 0x420
 1ac:	058b140e 	streq	r1, [fp, #1038]	; 0x40e
 1b0:	5c0b0d42 	stcpl	13, cr0, [fp], {66}	; 0x42
 1b4:	cb420d0d 	blgt	10835f0 <__bss_end__+0x1058684>
 1b8:	0e42100e 	cdpeq	0, 4, cr1, cr2, cr14, {0}
 1bc:	00000000 	andeq	r0, r0, r0
 1c0:	00000024 	andeq	r0, r0, r4, lsr #32
 1c4:	000000f0 	strdeq	r0, [r0], -r0	; <UNPREDICTABLE>
 1c8:	00011818 	andeq	r1, r1, r8, lsl r8
 1cc:	000000d0 	ldrdeq	r0, [r0], -r0	; <UNPREDICTABLE>
 1d0:	42100e42 	andsmi	r0, r0, #1056	; 0x420
 1d4:	058b140e 	streq	r1, [fp, #1038]	; 0x40e
 1d8:	020b0d42 	andeq	r0, fp, #4224	; 0x1080
 1dc:	420d0d5c 	andmi	r0, sp, #92, 26	; 0x1700
 1e0:	42100ecb 	andsmi	r0, r0, #3248	; 0xcb0
 1e4:	0000000e 	andeq	r0, r0, lr
 1e8:	00000038 	andeq	r0, r0, r8, lsr r0
 1ec:	000000f0 	strdeq	r0, [r0], -r0	; <UNPREDICTABLE>
 1f0:	000118e8 	andeq	r1, r1, r8, ror #17
 1f4:	00000178 	andeq	r0, r0, r8, ror r1
 1f8:	42100e42 	andsmi	r0, r0, #1056	; 0x420
 1fc:	068b180e 	streq	r1, [fp], lr, lsl #16
 200:	0e42058e 	cdpeq	5, 4, cr0, cr2, cr14, {4}
 204:	08500520 	ldmdaeq	r0, {r5, r8, sl}^
 208:	42075105 	andmi	r5, r7, #1073741825	; 0x40000001
 20c:	02140b0c 	andseq	r0, r4, #12, 22	; 0x3000
 210:	200d0cac 	andcs	r0, sp, ip, lsr #25
 214:	06500642 	ldrbeq	r0, [r0], -r2, asr #12
 218:	42180e51 	andsmi	r0, r8, #1296	; 0x510
 21c:	100ecbce 	andne	ip, lr, lr, asr #23
 220:	00000e42 	andeq	r0, r0, r2, asr #28
 224:	0000003c 	andeq	r0, r0, ip, lsr r0
 228:	000000f0 	strdeq	r0, [r0], -r0	; <UNPREDICTABLE>
 22c:	00011a60 	andeq	r1, r1, r0, ror #20
 230:	00000fd8 	ldrdeq	r0, [r0], -r8
 234:	84100e42 	ldrhi	r0, [r0], #-3650	; 0xfffff1be
 238:	8b038504 	blhi	e1650 <__bss_end__+0xb66e4>
 23c:	42018e02 	andmi	r8, r1, #2, 28
 240:	5005200e 	andpl	r2, r5, lr
 244:	07510508 	ldrbeq	r0, [r1, -r8, lsl #10]
 248:	05065205 	streq	r5, [r6, #-517]	; 0xfffffdfb
 24c:	0c420553 	cfstr64eq	mvdx0, [r2], {83}	; 0x53
 250:	e203040b 	and	r0, r3, #184549376	; 0xb000000
 254:	200d0c07 	andcs	r0, sp, r7, lsl #24
 258:	06520642 	ldrbeq	r0, [r2], -r2, asr #12
 25c:	06500653 			; <UNDEFINED> instruction: 0x06500653
 260:	00100e51 	andseq	r0, r0, r1, asr lr
 264:	0000001c 	andeq	r0, r0, ip, lsl r0
 268:	000000f0 	strdeq	r0, [r0], -r0	; <UNPREDICTABLE>
 26c:	00012a38 	andeq	r2, r1, r8, lsr sl
 270:	000000f0 	strdeq	r0, [r0], -r0	; <UNPREDICTABLE>
 274:	8b080e42 	blhi	203b84 <__bss_end__+0x1d8c18>
 278:	42018e02 	andmi	r8, r1, #2, 28
 27c:	02040b0c 	andeq	r0, r4, #12, 22	; 0x3000
 280:	080d0c6e 	stmdaeq	sp, {r1, r2, r3, r5, r6, sl, fp}
 284:	0000001c 	andeq	r0, r0, ip, lsl r0
 288:	000000f0 	strdeq	r0, [r0], -r0	; <UNPREDICTABLE>
 28c:	00012b28 	andeq	r2, r1, r8, lsr #22
 290:	000001a0 	andeq	r0, r0, r0, lsr #3
 294:	8b080e42 	blhi	203ba4 <__bss_end__+0x1d8c38>
 298:	42018e02 	andmi	r8, r1, #2, 28
 29c:	02040b0c 	andeq	r0, r4, #12, 22	; 0x3000
 2a0:	080d0cc2 	stmdaeq	sp, {r1, r6, r7, sl, fp}
 2a4:	0000001c 	andeq	r0, r0, ip, lsl r0
 2a8:	000000f0 	strdeq	r0, [r0], -r0	; <UNPREDICTABLE>
 2ac:	00012cc8 	andeq	r2, r1, r8, asr #25
 2b0:	0000005c 	andeq	r0, r0, ip, asr r0
 2b4:	8b080e42 	blhi	203bc4 <__bss_end__+0x1d8c58>
 2b8:	42018e02 	andmi	r8, r1, #2, 28
 2bc:	68040b0c 	stmdavs	r4, {r2, r3, r8, r9, fp}
 2c0:	00080d0c 	andeq	r0, r8, ip, lsl #26
 2c4:	0000000c 	andeq	r0, r0, ip
 2c8:	ffffffff 			; <UNDEFINED> instruction: 0xffffffff
 2cc:	7c020001 	stcvc	0, cr0, [r2], {1}
 2d0:	000d0c0e 	andeq	r0, sp, lr, lsl #24
 2d4:	0000001c 	andeq	r0, r0, ip, lsl r0
 2d8:	000002c4 	andeq	r0, r0, r4, asr #5
 2dc:	00012d28 	andeq	r2, r1, r8, lsr #26
 2e0:	0000002c 	andeq	r0, r0, ip, lsr #32
 2e4:	8b080e42 	blhi	203bf4 <__bss_end__+0x1d8c88>
 2e8:	42018e02 	andmi	r8, r1, #2, 28
 2ec:	4e040b0c 	vmlami.f64	d0, d4, d12
 2f0:	00080d0c 	andeq	r0, r8, ip, lsl #26
 2f4:	00000018 	andeq	r0, r0, r8, lsl r0
 2f8:	000002c4 	andeq	r0, r0, r4, asr #5
 2fc:	00012d54 	andeq	r2, r1, r4, asr sp
 300:	00000024 	andeq	r0, r0, r4, lsr #32
 304:	8b080e42 	blhi	203c14 <__bss_end__+0x1d8ca8>
 308:	42018e02 	andmi	r8, r1, #2, 28
 30c:	00040b0c 	andeq	r0, r4, ip, lsl #22
 310:	0000001c 	andeq	r0, r0, ip, lsl r0
 314:	000002c4 	andeq	r0, r0, r4, asr #5
 318:	00012d78 	andeq	r2, r1, r8, ror sp
 31c:	0000008c 	andeq	r0, r0, ip, lsl #1
 320:	8b080e42 	blhi	203c30 <__bss_end__+0x1d8cc4>
 324:	42018e02 	andmi	r8, r1, #2, 28
 328:	02040b0c 	andeq	r0, r4, #12, 22	; 0x3000
 32c:	080d0c40 	stmdaeq	sp, {r6, sl, fp}
 330:	00000030 	andeq	r0, r0, r0, lsr r0
 334:	000002c4 	andeq	r0, r0, r4, asr #5
 338:	00012e04 	andeq	r2, r1, r4, lsl #28
 33c:	0000024c 	andeq	r0, r0, ip, asr #4
 340:	8b080e42 	blhi	203c50 <__bss_end__+0x1d8ce4>
 344:	42018e02 	andmi	r8, r1, #2, 28
 348:	5005100e 	andpl	r1, r5, lr
 34c:	03510504 	cmpeq	r1, #4, 10	; 0x1000000
 350:	040b0c42 	streq	r0, [fp], #-3138	; 0xfffff3be
 354:	0c010803 	stceq	8, cr0, [r1], {3}
 358:	0642100d 	strbeq	r1, [r2], -sp
 35c:	0e510650 	mrceq	6, 2, r0, cr1, cr0, {2}
 360:	00000008 	andeq	r0, r0, r8
 364:	00000030 	andeq	r0, r0, r0, lsr r0
 368:	000002c4 	andeq	r0, r0, r4, asr #5
 36c:	00013050 	andeq	r3, r1, r0, asr r0
 370:	0000024c 	andeq	r0, r0, ip, asr #4
 374:	8b080e42 	blhi	203c84 <__bss_end__+0x1d8d18>
 378:	42018e02 	andmi	r8, r1, #2, 28
 37c:	5005100e 	andpl	r1, r5, lr
 380:	03510504 	cmpeq	r1, #4, 10	; 0x1000000
 384:	040b0c42 	streq	r0, [fp], #-3138	; 0xfffff3be
 388:	0c010203 	sfmeq	f0, 4, [r1], {3}
 38c:	0642100d 	strbeq	r1, [r2], -sp
 390:	0e510650 	mrceq	6, 2, r0, cr1, cr0, {2}
 394:	00000008 	andeq	r0, r0, r8
 398:	00000030 	andeq	r0, r0, r0, lsr r0
 39c:	000002c4 	andeq	r0, r0, r4, asr #5
 3a0:	0001329c 	muleq	r1, ip, r2
 3a4:	0000024c 	andeq	r0, r0, ip, asr #4
 3a8:	8b080e42 	blhi	203cb8 <__bss_end__+0x1d8d4c>
 3ac:	42018e02 	andmi	r8, r1, #2, 28
 3b0:	5005100e 	andpl	r1, r5, lr
 3b4:	03510504 	cmpeq	r1, #4, 10	; 0x1000000
 3b8:	040b0c42 	streq	r0, [fp], #-3138	; 0xfffff3be
 3bc:	0c010803 	stceq	8, cr0, [r1], {3}
 3c0:	0642100d 	strbeq	r1, [r2], -sp
 3c4:	0e510650 	mrceq	6, 2, r0, cr1, cr0, {2}
 3c8:	00000008 	andeq	r0, r0, r8
 3cc:	0000001c 	andeq	r0, r0, ip, lsl r0
 3d0:	000002c4 	andeq	r0, r0, r4, asr #5
 3d4:	000134e8 	andeq	r3, r1, r8, ror #9
 3d8:	000000e0 	andeq	r0, r0, r0, ror #1
 3dc:	8b080e42 	blhi	203cec <__bss_end__+0x1d8d80>
 3e0:	42018e02 	andmi	r8, r1, #2, 28
 3e4:	02040b0c 	andeq	r0, r4, #12, 22	; 0x3000
 3e8:	080d0c66 	stmdaeq	sp, {r1, r2, r5, r6, sl, fp}
 3ec:	0000000c 	andeq	r0, r0, ip
 3f0:	ffffffff 			; <UNDEFINED> instruction: 0xffffffff
 3f4:	7c020001 	stcvc	0, cr0, [r2], {1}
 3f8:	000d0c0e 	andeq	r0, sp, lr, lsl #24
 3fc:	0000001c 	andeq	r0, r0, ip, lsl r0
 400:	000003ec 	andeq	r0, r0, ip, ror #7
 404:	000135c8 	andeq	r3, r1, r8, asr #11
 408:	00000098 	muleq	r0, r8, r0
 40c:	8b040e42 	blhi	103d1c <__bss_end__+0xd8db0>
 410:	0b0d4201 	bleq	350c1c <__bss_end__+0x325cb0>
 414:	0d0d4402 	cfstrseq	mvf4, [sp, #-8]
 418:	000ecb42 	andeq	ip, lr, r2, asr #22
 41c:	0000001c 	andeq	r0, r0, ip, lsl r0
 420:	000003ec 	andeq	r0, r0, ip, ror #7
 424:	00013660 	andeq	r3, r1, r0, ror #12
 428:	000000d4 	ldrdeq	r0, [r0], -r4
 42c:	8b040e42 	blhi	103d3c <__bss_end__+0xd8dd0>
 430:	0b0d4201 	bleq	350c3c <__bss_end__+0x325cd0>
 434:	0d0d6202 	sfmeq	f6, 4, [sp, #-8]
 438:	000ecb42 	andeq	ip, lr, r2, asr #22
 43c:	00000020 	andeq	r0, r0, r0, lsr #32
 440:	000003ec 	andeq	r0, r0, ip, ror #7
 444:	00013734 	andeq	r3, r1, r4, lsr r7
 448:	000003b8 			; <UNDEFINED> instruction: 0x000003b8
 44c:	8b080e42 	blhi	203d5c <__bss_end__+0x1d8df0>
 450:	42018e02 	andmi	r8, r1, #2, 28
 454:	03040b0c 	movweq	r0, #19212	; 0x4b0c
 458:	0d0c01d2 	stfeqs	f0, [ip, #-840]	; 0xfffffcb8
 45c:	00000008 	andeq	r0, r0, r8
 460:	00000020 	andeq	r0, r0, r0, lsr #32
 464:	000003ec 	andeq	r0, r0, ip, ror #7
 468:	00013aec 	andeq	r3, r1, ip, ror #21
 46c:	00000524 	andeq	r0, r0, r4, lsr #10
 470:	8b080e42 	blhi	203d80 <__bss_end__+0x1d8e14>
 474:	42018e02 	andmi	r8, r1, #2, 28
 478:	03040b0c 	movweq	r0, #19212	; 0x4b0c
 47c:	0d0c0288 	sfmeq	f0, 4, [ip, #-544]	; 0xfffffde0
 480:	00000008 	andeq	r0, r0, r8
 484:	00000020 	andeq	r0, r0, r0, lsr #32
 488:	000003ec 	andeq	r0, r0, ip, ror #7
 48c:	00014010 	andeq	r4, r1, r0, lsl r0
 490:	00000244 	andeq	r0, r0, r4, asr #4
 494:	8b080e42 	blhi	203da4 <__bss_end__+0x1d8e38>
 498:	42018e02 	andmi	r8, r1, #2, 28
 49c:	03040b0c 	movweq	r0, #19212	; 0x4b0c
 4a0:	0d0c011c 	stfeqs	f0, [ip, #-112]	; 0xffffff90
 4a4:	00000008 	andeq	r0, r0, r8
 4a8:	0000001c 	andeq	r0, r0, ip, lsl r0
 4ac:	000003ec 	andeq	r0, r0, ip, ror #7
 4b0:	00014254 	andeq	r4, r1, r4, asr r2
 4b4:	00000098 	muleq	r0, r8, r0
 4b8:	8b080e42 	blhi	203dc8 <__bss_end__+0x1d8e5c>
 4bc:	42018e02 	andmi	r8, r1, #2, 28
 4c0:	02040b0c 	andeq	r0, r4, #12, 22	; 0x3000
 4c4:	080d0c46 	stmdaeq	sp, {r1, r2, r6, sl, fp}
 4c8:	00000044 	andeq	r0, r0, r4, asr #32
 4cc:	000003ec 	andeq	r0, r0, ip, ror #7
 4d0:	000142ec 	andeq	r4, r1, ip, ror #5
 4d4:	000001dc 	ldrdeq	r0, [r0], -ip
 4d8:	42100e42 	andsmi	r0, r0, #1056	; 0x420
 4dc:	068b180e 	streq	r1, [fp], lr, lsl #16
 4e0:	0e42058e 	cdpeq	5, 4, cr0, cr2, cr14, {4}
 4e4:	0a500528 	beq	140198c <__bss_end__+0x13d6a20>
 4e8:	05095105 	streq	r5, [r9, #-261]	; 0xfffffefb
 4ec:	53050852 	movwpl	r0, #22610	; 0x5852
 4f0:	0b0c4207 	bleq	310d14 <__bss_end__+0x2e5da8>
 4f4:	0cd80214 	lfmeq	f0, 2, [r8], {20}
 4f8:	0642280d 	strbeq	r2, [r2], -sp, lsl #16
 4fc:	06530652 			; <UNDEFINED> instruction: 0x06530652
 500:	0e510650 	mrceq	6, 2, r0, cr1, cr0, {2}
 504:	cbce4218 	blgt	ff390d6c <__bss_end__+0xff365e00>
 508:	0e42100e 	cdpeq	0, 4, cr1, cr2, cr14, {0}
 50c:	00000000 	andeq	r0, r0, r0
 510:	00000044 	andeq	r0, r0, r4, asr #32
 514:	000003ec 	andeq	r0, r0, ip, ror #7
 518:	000144c8 	andeq	r4, r1, r8, asr #9
 51c:	00000364 	andeq	r0, r0, r4, ror #6
 520:	42100e42 	andsmi	r0, r0, #1056	; 0x420
 524:	068b180e 	streq	r1, [fp], lr, lsl #16
 528:	0e42058e 	cdpeq	5, 4, cr0, cr2, cr14, {4}
 52c:	0a500528 	beq	14019d4 <__bss_end__+0x13d6a68>
 530:	05095105 	streq	r5, [r9, #-261]	; 0xfffffefb
 534:	53050852 	movwpl	r0, #22610	; 0x5852
 538:	0b0c4207 	bleq	310d5c <__bss_end__+0x2e5df0>
 53c:	019c0314 	orrseq	r0, ip, r4, lsl r3
 540:	42280d0c 	eormi	r0, r8, #12, 26	; 0x300
 544:	53065206 	movwpl	r5, #25094	; 0x6206
 548:	51065006 	tstpl	r6, r6
 54c:	ce42180e 	cdpgt	8, 4, cr1, cr2, cr14, {0}
 550:	42100ecb 	andsmi	r0, r0, #3248	; 0xcb0
 554:	0000000e 	andeq	r0, r0, lr
 558:	00000044 	andeq	r0, r0, r4, asr #32
 55c:	000003ec 	andeq	r0, r0, ip, ror #7
 560:	0001482c 	andeq	r4, r1, ip, lsr #16
 564:	000001a8 	andeq	r0, r0, r8, lsr #3
 568:	42100e42 	andsmi	r0, r0, #1056	; 0x420
 56c:	068b180e 	streq	r1, [fp], lr, lsl #16
 570:	0e42058e 	cdpeq	5, 4, cr0, cr2, cr14, {4}
 574:	0a500528 	beq	1401a1c <__bss_end__+0x13d6ab0>
 578:	05095105 	streq	r5, [r9, #-261]	; 0xfffffefb
 57c:	53050852 	movwpl	r0, #22610	; 0x5852
 580:	0b0c4207 	bleq	310da4 <__bss_end__+0x2e5e38>
 584:	0cc40214 	sfmeq	f0, 2, [r4], {20}
 588:	0642280d 	strbeq	r2, [r2], -sp, lsl #16
 58c:	06530652 			; <UNDEFINED> instruction: 0x06530652
 590:	0e510650 	mrceq	6, 2, r0, cr1, cr0, {2}
 594:	cbce4218 	blgt	ff390dfc <__bss_end__+0xff365e90>
 598:	0e42100e 	cdpeq	0, 4, cr1, cr2, cr14, {0}
 59c:	00000000 	andeq	r0, r0, r0
 5a0:	00000038 	andeq	r0, r0, r8, lsr r0
 5a4:	000003ec 	andeq	r0, r0, ip, ror #7
 5a8:	000149d4 	ldrdeq	r4, [r1], -r4	; <UNPREDICTABLE>
 5ac:	00000120 	andeq	r0, r0, r0, lsr #2
 5b0:	42100e42 	andsmi	r0, r0, #1056	; 0x420
 5b4:	068b180e 	streq	r1, [fp], lr, lsl #16
 5b8:	0e42058e 	cdpeq	5, 4, cr0, cr2, cr14, {4}
 5bc:	08500520 	ldmdaeq	r0, {r5, r8, sl}^
 5c0:	42075105 	andmi	r5, r7, #1073741825	; 0x40000001
 5c4:	02140b0c 	andseq	r0, r4, #12, 22	; 0x3000
 5c8:	200d0c80 	andcs	r0, sp, r0, lsl #25
 5cc:	06500642 	ldrbeq	r0, [r0], -r2, asr #12
 5d0:	42180e51 	andsmi	r0, r8, #1296	; 0x510
 5d4:	100ecbce 	andne	ip, lr, lr, asr #23
 5d8:	00000e42 	andeq	r0, r0, r2, asr #28
 5dc:	00000024 	andeq	r0, r0, r4, lsr #32
 5e0:	000003ec 	andeq	r0, r0, ip, ror #7
 5e4:	00014af4 	strdeq	r4, [r1], -r4	; <UNPREDICTABLE>
 5e8:	00000060 	andeq	r0, r0, r0, rrx
 5ec:	42100e42 	andsmi	r0, r0, #1056	; 0x420
 5f0:	058b140e 	streq	r1, [fp, #1038]	; 0x40e
 5f4:	640b0d42 	strvs	r0, [fp], #-3394	; 0xfffff2be
 5f8:	cb420d0d 	blgt	1083a34 <__bss_end__+0x1058ac8>
 5fc:	0e42100e 	cdpeq	0, 4, cr1, cr2, cr14, {0}
 600:	00000000 	andeq	r0, r0, r0
 604:	00000038 	andeq	r0, r0, r8, lsr r0
 608:	000003ec 	andeq	r0, r0, ip, ror #7
 60c:	00014b54 	andeq	r4, r1, r4, asr fp
 610:	00000130 	andeq	r0, r0, r0, lsr r1
 614:	42100e42 	andsmi	r0, r0, #1056	; 0x420
 618:	068b180e 	streq	r1, [fp], lr, lsl #16
 61c:	0e42058e 	cdpeq	5, 4, cr0, cr2, cr14, {4}
 620:	08500520 	ldmdaeq	r0, {r5, r8, sl}^
 624:	42075105 	andmi	r5, r7, #1073741825	; 0x40000001
 628:	02140b0c 	andseq	r0, r4, #12, 22	; 0x3000
 62c:	200d0c88 	andcs	r0, sp, r8, lsl #25
 630:	06500642 	ldrbeq	r0, [r0], -r2, asr #12
 634:	42180e51 	andsmi	r0, r8, #1296	; 0x510
 638:	100ecbce 	andne	ip, lr, lr, asr #23
 63c:	00000e42 	andeq	r0, r0, r2, asr #28
 640:	0000000c 	andeq	r0, r0, ip
 644:	ffffffff 			; <UNDEFINED> instruction: 0xffffffff
 648:	7c020001 	stcvc	0, cr0, [r2], {1}
 64c:	000d0c0e 	andeq	r0, sp, lr, lsl #24
 650:	0000003c 	andeq	r0, r0, ip, lsr r0
 654:	00000640 	andeq	r0, r0, r0, asr #12
 658:	00014c88 	andeq	r4, r1, r8, lsl #25
 65c:	000002e4 	andeq	r0, r0, r4, ror #5
 660:	840c0e42 	strhi	r0, [ip], #-3650	; 0xfffff1be
 664:	8e028b03 	vmlahi.f64	d8, d2, d3
 668:	1c0e4201 	sfmne	f4, 4, [lr], {1}
 66c:	05075005 	streq	r5, [r7, #-5]
 670:	52050651 	andpl	r0, r5, #84934656	; 0x5100000
 674:	04530505 	ldrbeq	r0, [r3], #-1285	; 0xfffffafb
 678:	040b0c42 	streq	r0, [fp], #-3138	; 0xfffff3be
 67c:	0c015203 	sfmeq	f5, 4, [r1], {3}
 680:	06421c0d 	strbeq	r1, [r2], -sp, lsl #24
 684:	06530652 			; <UNDEFINED> instruction: 0x06530652
 688:	0e510650 	mrceq	6, 2, r0, cr1, cr0, {2}
 68c:	0000000c 	andeq	r0, r0, ip
 690:	0000000c 	andeq	r0, r0, ip
 694:	ffffffff 			; <UNDEFINED> instruction: 0xffffffff
 698:	7c020001 	stcvc	0, cr0, [r2], {1}
 69c:	000d0c0e 	andeq	r0, sp, lr, lsl #24
 6a0:	0000001c 	andeq	r0, r0, ip, lsl r0
 6a4:	00000690 	muleq	r0, r0, r6
 6a8:	00014f70 	andeq	r4, r1, r0, ror pc
 6ac:	000000dc 	ldrdeq	r0, [r0], -ip
 6b0:	8b040e42 	blhi	103fc0 <__bss_end__+0xd9054>
 6b4:	0b0d4201 	bleq	350ec0 <__bss_end__+0x325f54>
 6b8:	0d0d6602 	stceq	6, cr6, [sp, #-8]
 6bc:	000ecb42 	andeq	ip, lr, r2, asr #22
 6c0:	0000001c 	andeq	r0, r0, ip, lsl r0
 6c4:	00000690 	muleq	r0, r0, r6
 6c8:	0001504c 	andeq	r5, r1, ip, asr #32
 6cc:	0000008c 	andeq	r0, r0, ip, lsl #1
 6d0:	8b080e42 	blhi	203fe0 <__bss_end__+0x1d9074>
 6d4:	42018e02 	andmi	r8, r1, #2, 28
 6d8:	02040b0c 	andeq	r0, r4, #12, 22	; 0x3000
 6dc:	080d0c40 	stmdaeq	sp, {r6, sl, fp}
 6e0:	0000001c 	andeq	r0, r0, ip, lsl r0
 6e4:	00000690 	muleq	r0, r0, r6
 6e8:	000150d8 	ldrdeq	r5, [r1], -r8
 6ec:	0000016c 	andeq	r0, r0, ip, ror #2
 6f0:	8b040e42 	blhi	104000 <__bss_end__+0xd9094>
 6f4:	0b0d4201 	bleq	350f00 <__bss_end__+0x325f94>
 6f8:	0d0dae02 	stceq	14, cr10, [sp, #-8]
 6fc:	000ecb42 	andeq	ip, lr, r2, asr #22
 700:	0000001c 	andeq	r0, r0, ip, lsl r0
 704:	00000690 	muleq	r0, r0, r6
 708:	00015244 	andeq	r5, r1, r4, asr #4
 70c:	0000016c 	andeq	r0, r0, ip, ror #2
 710:	8b040e42 	blhi	104020 <__bss_end__+0xd90b4>
 714:	0b0d4201 	bleq	350f20 <__bss_end__+0x325fb4>
 718:	0d0dae02 	stceq	14, cr10, [sp, #-8]
 71c:	000ecb42 	andeq	ip, lr, r2, asr #22
 720:	0000001c 	andeq	r0, r0, ip, lsl r0
 724:	00000690 	muleq	r0, r0, r6
 728:	000153b0 			; <UNDEFINED> instruction: 0x000153b0
 72c:	000001e4 	andeq	r0, r0, r4, ror #3
 730:	8b040e42 	blhi	104040 <__bss_end__+0xd90d4>
 734:	0b0d4201 	bleq	350f40 <__bss_end__+0x325fd4>
 738:	0d0dea02 	vstreq	s28, [sp, #-8]
 73c:	000ecb42 	andeq	ip, lr, r2, asr #22
 740:	0000001c 	andeq	r0, r0, ip, lsl r0
 744:	00000690 	muleq	r0, r0, r6
 748:	00015594 	muleq	r1, r4, r5
 74c:	000001e4 	andeq	r0, r0, r4, ror #3
 750:	8b040e42 	blhi	104060 <__bss_end__+0xd90f4>
 754:	0b0d4201 	bleq	350f60 <__bss_end__+0x325ff4>
 758:	0d0dea02 	vstreq	s28, [sp, #-8]
 75c:	000ecb42 	andeq	ip, lr, r2, asr #22
 760:	0000001c 	andeq	r0, r0, ip, lsl r0
 764:	00000690 	muleq	r0, r0, r6
 768:	00015778 	andeq	r5, r1, r8, ror r7
 76c:	000001e4 	andeq	r0, r0, r4, ror #3
 770:	8b040e42 	blhi	104080 <__bss_end__+0xd9114>
 774:	0b0d4201 	bleq	350f80 <__bss_end__+0x326014>
 778:	0d0dea02 	vstreq	s28, [sp, #-8]
 77c:	000ecb42 	andeq	ip, lr, r2, asr #22
 780:	0000001c 	andeq	r0, r0, ip, lsl r0
 784:	00000690 	muleq	r0, r0, r6
 788:	0001595c 	andeq	r5, r1, ip, asr r9
 78c:	00000074 	andeq	r0, r0, r4, ror r0
 790:	8b080e42 	blhi	2040a0 <__bss_end__+0x1d9134>
 794:	42018e02 	andmi	r8, r1, #2, 28
 798:	74040b0c 	strvc	r0, [r4], #-2828	; 0xfffff4f4
 79c:	00080d0c 	andeq	r0, r8, ip, lsl #26
 7a0:	0000001c 	andeq	r0, r0, ip, lsl r0
 7a4:	00000690 	muleq	r0, r0, r6
 7a8:	000159d0 	ldrdeq	r5, [r1], -r0
 7ac:	00000074 	andeq	r0, r0, r4, ror r0
 7b0:	8b080e42 	blhi	2040c0 <__bss_end__+0x1d9154>
 7b4:	42018e02 	andmi	r8, r1, #2, 28
 7b8:	74040b0c 	strvc	r0, [r4], #-2828	; 0xfffff4f4
 7bc:	00080d0c 	andeq	r0, r8, ip, lsl #26
 7c0:	0000001c 	andeq	r0, r0, ip, lsl r0
 7c4:	00000690 	muleq	r0, r0, r6
 7c8:	00015a44 	andeq	r5, r1, r4, asr #20
 7cc:	000000ec 	andeq	r0, r0, ip, ror #1
 7d0:	8b080e42 	blhi	2040e0 <__bss_end__+0x1d9174>
 7d4:	42018e02 	andmi	r8, r1, #2, 28
 7d8:	02040b0c 	andeq	r0, r4, #12, 22	; 0x3000
 7dc:	080d0c70 	stmdaeq	sp, {r4, r5, r6, sl, fp}
 7e0:	0000001c 	andeq	r0, r0, ip, lsl r0
 7e4:	00000690 	muleq	r0, r0, r6
 7e8:	00015b30 	andeq	r5, r1, r0, lsr fp
 7ec:	0000002c 	andeq	r0, r0, ip, lsr #32
 7f0:	8b080e42 	blhi	204100 <__bss_end__+0x1d9194>
 7f4:	42018e02 	andmi	r8, r1, #2, 28
 7f8:	50040b0c 	andpl	r0, r4, ip, lsl #22
 7fc:	00080d0c 	andeq	r0, r8, ip, lsl #26
 800:	0000001c 	andeq	r0, r0, ip, lsl r0
 804:	00000690 	muleq	r0, r0, r6
 808:	00015b5c 	andeq	r5, r1, ip, asr fp
 80c:	00000184 	andeq	r0, r0, r4, lsl #3
 810:	8b040e42 	blhi	104120 <__bss_end__+0xd91b4>
 814:	0b0d4201 	bleq	351020 <__bss_end__+0x3260b4>
 818:	0d0dba02 	vstreq	s22, [sp, #-8]
 81c:	000ecb42 	andeq	ip, lr, r2, asr #22
 820:	00000020 	andeq	r0, r0, r0, lsr #32
 824:	00000690 	muleq	r0, r0, r6
 828:	00015ce0 	andeq	r5, r1, r0, ror #25
 82c:	00000370 	andeq	r0, r0, r0, ror r3
 830:	8b080e42 	blhi	204140 <__bss_end__+0x1d91d4>
 834:	42018e02 	andmi	r8, r1, #2, 28
 838:	03040b0c 	movweq	r0, #19212	; 0x4b0c
 83c:	0d0c01ae 	stfeqs	f0, [ip, #-696]	; 0xfffffd48
 840:	00000008 	andeq	r0, r0, r8
 844:	0000001c 	andeq	r0, r0, ip, lsl r0
 848:	00000690 	muleq	r0, r0, r6
 84c:	00016050 	andeq	r6, r1, r0, asr r0
 850:	00000108 	andeq	r0, r0, r8, lsl #2
 854:	8b040e42 	blhi	104164 <__bss_end__+0xd91f8>
 858:	0b0d4201 	bleq	351064 <__bss_end__+0x3260f8>
 85c:	0d0d7c02 	stceq	12, cr7, [sp, #-8]
 860:	000ecb42 	andeq	ip, lr, r2, asr #22
 864:	0000000c 	andeq	r0, r0, ip
 868:	ffffffff 			; <UNDEFINED> instruction: 0xffffffff
 86c:	7c020001 	stcvc	0, cr0, [r2], {1}
 870:	000d0c0e 	andeq	r0, sp, lr, lsl #24
 874:	0000001c 	andeq	r0, r0, ip, lsl r0
 878:	00000864 	andeq	r0, r0, r4, ror #16
 87c:	00016158 	andeq	r6, r1, r8, asr r1
 880:	00000050 	andeq	r0, r0, r0, asr r0
 884:	8b080e42 	blhi	204194 <__bss_end__+0x1d9228>
 888:	42018e02 	andmi	r8, r1, #2, 28
 88c:	60040b0c 	andvs	r0, r4, ip, lsl #22
 890:	00080d0c 	andeq	r0, r8, ip, lsl #26
 894:	0000001c 	andeq	r0, r0, ip, lsl r0
 898:	00000864 	andeq	r0, r0, r4, ror #16
 89c:	000161a8 	andeq	r6, r1, r8, lsr #3
 8a0:	0000005c 	andeq	r0, r0, ip, asr r0
 8a4:	8b080e42 	blhi	2041b4 <__bss_end__+0x1d9248>
 8a8:	42018e02 	andmi	r8, r1, #2, 28
 8ac:	66040b0c 	strvs	r0, [r4], -ip, lsl #22
 8b0:	00080d0c 	andeq	r0, r8, ip, lsl #26
 8b4:	0000001c 	andeq	r0, r0, ip, lsl r0
 8b8:	00000864 	andeq	r0, r0, r4, ror #16
 8bc:	00016204 	andeq	r6, r1, r4, lsl #4
 8c0:	0000004c 	andeq	r0, r0, ip, asr #32
 8c4:	8b080e42 	blhi	2041d4 <__bss_end__+0x1d9268>
 8c8:	42018e02 	andmi	r8, r1, #2, 28
 8cc:	5e040b0c 	vmlapl.f64	d0, d4, d12
 8d0:	00080d0c 	andeq	r0, r8, ip, lsl #26
 8d4:	0000001c 	andeq	r0, r0, ip, lsl r0
 8d8:	00000864 	andeq	r0, r0, r4, ror #16
 8dc:	00016250 	andeq	r6, r1, r0, asr r2
 8e0:	00000048 	andeq	r0, r0, r8, asr #32
 8e4:	8b080e42 	blhi	2041f4 <__bss_end__+0x1d9288>
 8e8:	42018e02 	andmi	r8, r1, #2, 28
 8ec:	5e040b0c 	vmlapl.f64	d0, d4, d12
 8f0:	00080d0c 	andeq	r0, r8, ip, lsl #26

Déassemblage de la section .debug_str :

00000000 <.debug_str>:
   0:	72687470 	rsbvc	r7, r8, #112, 8	; 0x70000000
   4:	5f646165 	svcpl	0x00646165
   8:	735f0074 	cmpvc	pc, #116	; 0x74
   c:	74726f68 	ldrbtvc	r6, [r2], #-3944	; 0xfffff098
  10:	00667562 	rsbeq	r7, r6, r2, ror #10
  14:	6e69616d 	powvsez	f6, f1, #5.0
  18:	5f00632e 	svcpl	0x0000632e
  1c:	6c5f4f49 	mrrcvs	15, 4, r4, pc, cr9	; <UNPREDICTABLE>
  20:	5f6b636f 	svcpl	0x006b636f
  24:	74730074 	ldrbtvc	r0, [r3], #-116	; 0xffffff8c
  28:	72726564 	rsbsvc	r6, r2, #100, 10	; 0x19000000
  2c:	4f495f00 	svcmi	0x00495f00
  30:	6675625f 			; <UNDEFINED> instruction: 0x6675625f
  34:	646e655f 	strbtvs	r6, [lr], #-1375	; 0xfffffaa1
  38:	61757100 	cmnvs	r5, r0, lsl #2
  3c:	65645f64 	strbvs	r5, [r4, #-3940]!	; 0xfffff09c
  40:	5f61746c 	svcpl	0x0061746c
  44:	6e756f63 	cdpvs	15, 7, cr6, cr5, cr3, {3}
  48:	656c5f74 	strbvs	r5, [ip, #-3956]!	; 0xfffff08c
  4c:	5f007466 	svcpl	0x00007466
  50:	49534f50 	ldmdbmi	r3, {r4, r6, r8, r9, sl, fp, lr}^
  54:	73005f58 	movwvc	r5, #3928	; 0xf58
  58:	676e6769 	strbvs	r6, [lr, -r9, ror #14]!
  5c:	5f006d61 	svcpl	0x00006d61
  60:	775f4f49 	ldrbvc	r4, [pc, -r9, asr #30]
  64:	65746972 	ldrbvs	r6, [r4, #-2418]!	; 0xfffff68e
  68:	646e655f 	strbtvs	r6, [lr], #-1375	; 0xfffffaa1
  6c:	494c5f00 	stmdbmi	ip, {r8, r9, sl, fp, ip, lr}^
  70:	45565f42 	ldrbmi	r5, [r6, #-3906]	; 0xfffff0be
  74:	4f495352 	svcmi	0x00495352
  78:	59545f4e 	ldmdbpl	r4, {r1, r2, r3, r6, r8, r9, sl, fp, ip, lr}^
  7c:	5f004550 	svcpl	0x00004550
  80:	67616c66 	strbvs	r6, [r1, -r6, ror #24]!
  84:	6d5f0073 	ldclvs	0, cr0, [pc, #-460]	; fffffec0 <__bss_end__+0xfffd4f54>
  88:	656b7261 	strbvs	r7, [fp, #-609]!	; 0xfffffd9f
  8c:	42007372 	andmi	r7, r0, #-939524095	; 0xc8000001
  90:	386c6f6f 	stmdacc	ip!, {r0, r1, r2, r3, r5, r6, r8, r9, sl, fp, sp, lr}^
  94:	646e6500 	strbtvs	r6, [lr], #-1280	; 0xfffffb00
  98:	7165725f 	cmnvc	r5, pc, asr r2
  9c:	74736575 	ldrbtvc	r6, [r3], #-1397	; 0xfffffa8b
  a0:	745f5f00 	ldrbvc	r5, [pc], #-3840	; a8 <shift+0xa8>
  a4:	7a656d69 	bvc	195b650 <__bss_end__+0x19306e4>
  a8:	00656e6f 	rsbeq	r6, r5, pc, ror #28
  ac:	646f5f54 	strbtvs	r5, [pc], #-3924	; b4 <shift+0xb4>
  b0:	535f006f 	cmppl	pc, #111	; 0x6f
  b4:	5f444956 	svcpl	0x00444956
  b8:	6d5f5400 	cfldrdvs	mvd5, [pc, #-0]	; c0 <shift+0xc0>
  bc:	73007461 	movwvc	r7, #1121	; 0x461
  c0:	756f6474 	strbvc	r6, [pc, #-1140]!	; fffffc54 <__bss_end__+0xfffd4ce8>
  c4:	495f0074 	ldmdbmi	pc, {r2, r4, r5, r6}^	; <UNPREDICTABLE>
  c8:	61735f4f 	cmnvs	r3, pc, asr #30
  cc:	655f6576 	ldrbvs	r6, [pc, #-1398]	; fffffb5e <__bss_end__+0xfffd4bf2>
  d0:	6600646e 	strvs	r6, [r0], -lr, ror #8
  d4:	74616f6c 	strbtvc	r6, [r1], #-3948	; 0xfffff094
  d8:	61757100 	cmnvs	r5, r0, lsl #2
  dc:	65645f64 	strbvs	r5, [r4, #-3940]!	; 0xfffff09c
  e0:	5f61746c 	svcpl	0x0061746c
  e4:	656d6974 	strbvs	r6, [sp, #-2420]!	; 0xfffff68c
  e8:	6769725f 			; <UNDEFINED> instruction: 0x6769725f
  ec:	6c007468 	cfstrsvs	mvf7, [r0], {104}	; 0x68
  f0:	20676e6f 	rsbcs	r6, r7, pc, ror #28
  f4:	676e6f6c 	strbvs	r6, [lr, -ip, ror #30]!
  f8:	736e7520 	cmnvc	lr, #32, 10	; 0x8000000
  fc:	656e6769 	strbvs	r6, [lr, #-1897]!	; 0xfffff897
 100:	6e692064 	cdpvs	0, 6, cr2, cr9, cr4, {3}
 104:	495f0074 	ldmdbmi	pc, {r2, r4, r5, r6}^	; <UNPREDICTABLE>
 108:	5f434f53 	svcpl	0x00434f53
 10c:	73797300 	cmnvc	r9, #0, 6
 110:	7272655f 	rsbsvc	r6, r2, #398458880	; 0x17c00000
 114:	7473696c 	ldrbtvc	r6, [r3], #-2412	; 0xfffff694
 118:	4f495f00 	svcmi	0x00495f00
 11c:	6361625f 	cmnvs	r1, #-268435451	; 0xf0000005
 120:	5f70756b 	svcpl	0x0070756b
 124:	65736162 	ldrbvs	r6, [r3, #-354]!	; 0xfffffe9e
 128:	73797300 	cmnvc	r9, #0, 6
 12c:	72656e5f 	rsbvc	r6, r5, #1520	; 0x5f0
 130:	665f0072 			; <UNDEFINED> instruction: 0x665f0072
 134:	6e656c69 	cdpvs	12, 6, cr6, cr5, cr9, {3}
 138:	6f70006f 	svcvs	0x0070006f
 13c:	70735f73 	rsbsvc	r5, r3, r3, ror pc
 140:	7a697300 	bvc	1a5cd48 <__bss_end__+0x1a31ddc>
 144:	00745f65 	rsbseq	r5, r4, r5, ror #30
 148:	5f4f495f 	svcpl	0x004f495f
 14c:	64616572 	strbtvs	r6, [r1], #-1394	; 0xfffffa8e
 150:	7361625f 	cmnvc	r1, #-268435451	; 0xf0000005
 154:	495f0065 	ldmdbmi	pc, {r0, r2, r5, r6}^	; <UNPREDICTABLE>
 158:	5f454545 	svcpl	0x00454545
 15c:	64747300 	ldrbtvs	r7, [r4], #-768	; 0xfffffd00
 160:	5f006e69 	svcpl	0x00006e69
 164:	7478656e 	ldrbtvc	r6, [r8], #-1390	; 0xfffffa92
 168:	554e4700 	strbpl	r4, [lr, #-1792]	; 0xfffff900
 16c:	31314320 	teqcc	r1, r0, lsr #6
 170:	332e3620 			; <UNDEFINED> instruction: 0x332e3620
 174:	3220302e 	eorcc	r3, r0, #46	; 0x2e
 178:	30373130 	eorscc	r3, r7, r0, lsr r1
 17c:	20363135 	eorscs	r3, r6, r5, lsr r1
 180:	72616d2d 	rsbvc	r6, r1, #2880	; 0xb40
 184:	613d6863 	teqvs	sp, r3, ror #16
 188:	36766d72 			; <UNDEFINED> instruction: 0x36766d72
 18c:	666d2d20 	strbtvs	r2, [sp], -r0, lsr #26
 190:	74616f6c 	strbtvc	r6, [r1], #-3948	; 0xfffff094
 194:	6962612d 	stmdbvs	r2!, {r0, r2, r3, r5, r8, sp, lr}^
 198:	7261683d 	rsbvc	r6, r1, #3997696	; 0x3d0000
 19c:	6d2d2064 	stcvs	0, cr2, [sp, #-400]!	; 0xfffffe70
 1a0:	3d757066 	ldclcc	0, cr7, [r5, #-408]!	; 0xfffffe68
 1a4:	20706676 	rsbscs	r6, r0, r6, ror r6
 1a8:	6c746d2d 	ldclvs	13, cr6, [r4], #-180	; 0xffffff4c
 1ac:	69642d73 	stmdbvs	r4!, {r0, r1, r4, r5, r6, r8, sl, fp, sp}^
 1b0:	63656c61 	cmnvs	r5, #24832	; 0x6100
 1b4:	6e673d74 	mcrvs	13, 3, r3, cr7, cr4, {3}
 1b8:	672d2075 			; <UNDEFINED> instruction: 0x672d2075
 1bc:	746e4900 	strbtvc	r4, [lr], #-2304	; 0xfffff700
 1c0:	73003233 	movwvc	r3, #563	; 0x233
 1c4:	33746e69 	cmncc	r4, #1680	; 0x690
 1c8:	6f500032 	svcvs	0x00500032
 1cc:	69746973 	ldmdbvs	r4!, {r0, r1, r4, r5, r6, r8, fp, sp, lr}^
 1d0:	5f006e6f 	svcpl	0x00006e6f
 1d4:	65646f6d 	strbvs	r6, [r4, #-3949]!	; 0xfffff093
 1d8:	645f5f00 	ldrbvs	r5, [pc], #-3840	; 1e0 <shift+0x1e0>
 1dc:	696c7961 	stmdbvs	ip!, {r0, r5, r6, r8, fp, ip, sp, lr}^
 1e0:	00746867 	rsbseq	r6, r4, r7, ror #16
 1e4:	5f4f495f 	svcpl	0x004f495f
 1e8:	6b72616d 	blvs	1c987a4 <__bss_end__+0x1c6d838>
 1ec:	53007265 	movwpl	r7, #613	; 0x265
 1f0:	64656570 	strbtvs	r6, [r5], #-1392	; 0xfffffa90
 1f4:	4f495f00 	svcmi	0x00495f00
 1f8:	6165725f 	cmnvs	r5, pc, asr r2
 1fc:	74705f64 	ldrbtvc	r5, [r0], #-3940	; 0xfffff09c
 200:	4c5f0072 	mrrcmi	0, 7, r0, pc, cr2	; <UNPREDICTABLE>
 204:	565f4249 	ldrbpl	r4, [pc], -r9, asr #4
 208:	49535245 	ldmdbmi	r3, {r0, r2, r6, r9, ip, lr}^
 20c:	66004e4f 	strvs	r4, [r0], -pc, asr #28
 210:	74616f6c 	strbtvc	r6, [r1], #-3948	; 0xfffff094
 214:	6c003233 	sfmvs	f3, 4, [r0], {51}	; 0x33
 218:	6570735f 	ldrbvs	r7, [r0, #-863]!	; 0xfffffca1
 21c:	5f006465 	svcpl	0x00006465
 220:	775f4f49 	ldrbvc	r4, [pc, -r9, asr #30]
 224:	65746972 	ldrbvs	r6, [r4, #-2418]!	; 0xfffff68e
 228:	7361625f 	cmnvc	r1, #-268435451	; 0xf0000005
 22c:	495f0065 	ldmdbmi	pc, {r0, r2, r5, r6}^	; <UNPREDICTABLE>
 230:	5f325f4f 	svcpl	0x00325f4f
 234:	74735f31 	ldrbtvc	r5, [r3], #-3889	; 0xfffff0cf
 238:	5f6e6964 	svcpl	0x006e6964
 23c:	6e6f6c00 	cdpvs	12, 6, cr6, cr15, cr0, {0}
 240:	6f6c2067 	svcvs	0x006c2067
 244:	6920676e 	stmdbvs	r0!, {r1, r2, r3, r5, r6, r8, r9, sl, sp, lr}
 248:	5f00746e 	svcpl	0x0000746e
 24c:	325f4f49 	subscc	r4, pc, #292	; 0x124
 250:	735f315f 	cmpvc	pc, #-1073741801	; 0xc0000017
 254:	756f6474 	strbvc	r6, [pc, #-1140]!	; fffffde8 <__bss_end__+0xfffd4e7c>
 258:	5f005f74 	svcpl	0x00005f74
 25c:	735f4f49 	cmpvc	pc, #292	; 0x124
 260:	5f657661 	svcpl	0x00657661
 264:	65736162 	ldrbvs	r6, [r3, #-354]!	; 0xfffffe9e
 268:	725f7300 	subsvc	r7, pc, #0, 6
 26c:	71006365 	tstvc	r0, r5, ror #6
 270:	5f646175 	svcpl	0x00646175
 274:	746c6564 	strbtvc	r6, [ip], #-1380	; 0xfffffa9c
 278:	6f635f61 	svcvs	0x00635f61
 27c:	5f746e75 	svcpl	0x00746e75
 280:	68676972 	stmdavs	r7!, {r1, r4, r5, r6, r8, fp, sp, lr}^
 284:	5f5f0074 	svcpl	0x005f0074
 288:	64617571 	strbtvs	r7, [r1], #-1393	; 0xfffffa8f
 28c:	6b00745f 	blvs	1d410 <__FRAME_END__+0x6a64>
 290:	5f6d6c61 	svcpl	0x006d6c61
 294:	00736572 	rsbseq	r6, r3, r2, ror r5
 298:	61705f5f 	cmnvs	r0, pc, asr pc
 29c:	5f003164 	svcpl	0x00003164
 2a0:	6461705f 	strbtvs	r7, [r1], #-95	; 0xffffffa1
 2a4:	5f5f0032 	svcpl	0x005f0032
 2a8:	33646170 	cmncc	r4, #112, 2
 2ac:	705f5f00 	subsvc	r5, pc, r0, lsl #30
 2b0:	00346461 	eorseq	r6, r4, r1, ror #8
 2b4:	61705f5f 	cmnvs	r0, pc, asr pc
 2b8:	5f003564 	svcpl	0x00003564
 2bc:	62617476 	rsbvs	r7, r1, #1979711488	; 0x76000000
 2c0:	6f5f656c 	svcvs	0x005f656c
 2c4:	65736666 	ldrbvs	r6, [r3, #-1638]!	; 0xfffff99a
 2c8:	6c460074 	mcrrvs	0, 7, r0, r6, cr4
 2cc:	3374616f 	cmncc	r4, #-1073741797	; 0xc000001b
 2d0:	69730032 	ldmdbvs	r3!, {r1, r4, r5}^
 2d4:	705f756d 	subsvc	r7, pc, sp, ror #10
 2d8:	6d617261 	sfmvs	f7, 2, [r1, #-388]!	; 0xfffffe7c
 2dc:	615f7300 	cmpvs	pc, r0, lsl #6
 2e0:	73007072 	movwvc	r7, #114	; 0x72
 2e4:	38746e69 	ldmdacc	r4!, {r0, r3, r5, r6, r9, sl, fp, sp, lr}^
 2e8:	6f6c6600 	svcvs	0x006c6600
 2ec:	34367461 	ldrtcc	r7, [r6], #-1121	; 0xfffffb9f
 2f0:	735f7300 	cmpvc	pc, #0, 6
 2f4:	74656661 	strbtvc	r6, [r5], #-1633	; 0xfffff99f
 2f8:	495f0079 	ldmdbmi	pc, {r0, r3, r4, r5, r6}^	; <UNPREDICTABLE>
 2fc:	65725f4f 	ldrbvs	r5, [r2, #-3919]!	; 0xfffff0b1
 300:	655f6461 	ldrbvs	r6, [pc, #-1121]	; fffffea7 <__bss_end__+0xfffd4f3b>
 304:	7300646e 	movwvc	r6, #1134	; 0x46e
 308:	74726f68 	ldrbtvc	r6, [r2], #-3944	; 0xfffff098
 30c:	746e6920 	strbtvc	r6, [lr], #-2336	; 0xfffff6e0
 310:	61757100 	cmnvs	r5, r0, lsl #2
 314:	65645f64 	strbvs	r5, [r4, #-3940]!	; 0xfffff09c
 318:	5f61746c 	svcpl	0x0061746c
 31c:	656d6974 	strbvs	r6, [sp, #-2420]!	; 0xfffff68c
 320:	66656c5f 			; <UNDEFINED> instruction: 0x66656c5f
 324:	5f540074 	svcpl	0x00540074
 328:	00636f6c 	rsbeq	r6, r3, ip, ror #30
 32c:	6d6f682f 	stclvs	8, cr6, [pc, #-188]!	; 278 <shift+0x278>
 330:	69702f65 	ldmdbvs	r0!, {r0, r2, r5, r6, r8, r9, sl, fp, sp}^
 334:	636f442f 	cmnvs	pc, #788529152	; 0x2f000000
 338:	6e656d75 	mcrvs	13, 3, r6, cr5, cr5, {3}
 33c:	672f7374 			; <UNDEFINED> instruction: 0x672f7374
 340:	652f7469 	strvs	r7, [pc, #-1129]!	; fffffedf <__bss_end__+0xfffd4f73>
 344:	6562656d 	strbvs	r6, [r2, #-1389]!	; 0xfffffa93
 348:	64656464 	strbtvs	r6, [r5], #-1124	; 0xfffffb9c
 34c:	72697754 	rsbvc	r7, r9, #84, 14	; 0x1500000
 350:	2f656574 	svccs	0x00656574
 354:	646e6162 	strbtvs	r6, [lr], #-354	; 0xfffffe9e
 358:	7473614d 	ldrbtvc	r6, [r3], #-333	; 0xfffffeb3
 35c:	692f7265 	stmdbvs	pc!, {r0, r2, r5, r6, r9, ip, sp, lr}	; <UNPREDICTABLE>
 360:	756c636e 	strbvc	r6, [ip, #-878]!	; 0xfffffc92
 364:	732f6564 			; <UNDEFINED> instruction: 0x732f6564
 368:	6c756d69 	ldclvs	13, cr6, [r5], #-420	; 0xfffffe5c
 36c:	726f7461 	rsbvc	r7, pc, #1627389952	; 0x61000000
 370:	756f4400 	strbvc	r4, [pc, #-1024]!	; ffffff78 <__bss_end__+0xfffd500c>
 374:	36656c62 	strbtcc	r6, [r5], -r2, ror #24
 378:	70730034 	rsbsvc	r0, r3, r4, lsr r0
 37c:	5f646565 	svcpl	0x00646565
 380:	00697567 	rsbeq	r7, r9, r7, ror #10
 384:	5f4f495f 	svcpl	0x004f495f
 388:	454c4946 	strbmi	r4, [ip, #-2374]	; 0xfffff6ba
 38c:	756c705f 	strbvc	r7, [ip, #-95]!	; 0xffffffa1
 390:	6c5f0073 	mrrcvs	0, 7, r0, pc, cr3	; <UNPREDICTABLE>
 394:	006b636f 	rsbeq	r6, fp, pc, ror #6
 398:	657a6973 	ldrbvs	r6, [sl, #-2419]!	; 0xfffff68d
 39c:	65707974 	ldrbvs	r7, [r0, #-2420]!	; 0xfffff68c
 3a0:	6c6f5f00 	stclvs	15, cr5, [pc], #-0	; 3a8 <shift+0x3a8>
 3a4:	666f5f64 	strbtvs	r5, [pc], -r4, ror #30
 3a8:	74657366 	strbtvc	r7, [r5], #-870	; 0xfffffc9a
 3ac:	4f495f00 	svcmi	0x00495f00
 3b0:	4c49465f 	mcrrmi	6, 5, r4, r9, cr15
 3b4:	5f540045 	svcpl	0x00540045
 3b8:	64616568 	strbtvs	r6, [r1], #-1384	; 0xfffffa98
 3bc:	736e7500 	cmnvc	lr, #0, 10
 3c0:	656e6769 	strbvs	r6, [lr, #-1897]!	; 0xfffff897
 3c4:	68632064 	stmdavs	r3!, {r2, r5, r6, sp}^
 3c8:	5f007261 	svcpl	0x00007261
 3cc:	6e7a745f 	mrcvs	4, 3, r7, cr10, cr15, {2}
 3d0:	00656d61 	rsbeq	r6, r5, r1, ror #26
 3d4:	7562735f 	strbvc	r7, [r2, #-863]!	; 0xfffffca1
 3d8:	495f0066 	ldmdbmi	pc, {r1, r2, r5, r6}^	; <UNPREDICTABLE>
 3dc:	72775f4f 	rsbsvc	r5, r7, #316	; 0x13c
 3e0:	5f657469 	svcpl	0x00657469
 3e4:	00727470 	rsbseq	r7, r2, r0, ror r4
 3e8:	70735f72 	rsbsvc	r5, r3, r2, ror pc
 3ec:	00646565 	rsbeq	r6, r4, r5, ror #10
 3f0:	666f5f5f 	uqsaxvs	r5, pc, pc	; <UNPREDICTABLE>
 3f4:	00745f66 	rsbseq	r5, r4, r6, ror #30
 3f8:	69735f74 	ldmdbvs	r3!, {r2, r4, r5, r6, r8, r9, sl, fp, ip, lr}^
 3fc:	7300756d 	movwvc	r7, #1389	; 0x56d
 400:	74726f68 	ldrbtvc	r6, [r2], #-3944	; 0xfffff098
 404:	736e7520 	cmnvc	lr, #32, 10	; 0x8000000
 408:	656e6769 	strbvs	r6, [lr, #-1897]!	; 0xfffff897
 40c:	6e692064 	cdpvs	0, 6, cr2, cr9, cr4, {3}
 410:	616d0074 	smcvs	53252	; 0xd004
 414:	64006e69 	strvs	r6, [r0], #-3689	; 0xfffff197
 418:	6c62756f 	cfstr64vs	mvdx7, [r2], #-444	; 0xfffffe44
 41c:	635f0065 	cmpvs	pc, #101	; 0x65
 420:	6e696168 	powvsez	f6, f1, #0.0
 424:	6c665f00 	stclvs	15, cr5, [r6], #-0
 428:	32736761 	rsbscc	r6, r3, #25427968	; 0x1840000
 42c:	75635f00 	strbvc	r5, [r3, #-3840]!	; 0xfffff100
 430:	6f635f72 	svcvs	0x00635f72
 434:	6e6d756c 	cdpvs	5, 6, cr7, cr13, cr12, {3}
 438:	4f585f00 	svcmi	0x00585f00
 43c:	5f4e4550 	svcpl	0x004e4550
 440:	4f495f00 	svcmi	0x00495f00
 444:	315f325f 	cmpcc	pc, pc, asr r2	; <UNPREDICTABLE>
 448:	6474735f 	ldrbtvs	r7, [r4], #-863	; 0xfffffca1
 44c:	5f727265 	svcpl	0x00727265
 450:	6f5f5f00 	svcvs	0x005f5f00
 454:	34366666 	ldrtcc	r6, [r6], #-1638	; 0xfffff99a
 458:	5f00745f 	svcpl	0x0000745f
 45c:	73756e75 	cmnvc	r5, #1872	; 0x750
 460:	00326465 	eorseq	r6, r2, r5, ror #8
 464:	5f4f495f 	svcpl	0x004f495f
 468:	5f667562 	svcpl	0x00667562
 46c:	65736162 	ldrbvs	r6, [r3, #-354]!	; 0xfffffe9e
 470:	6e616b00 	vmulvs.f64	d22, d1, d0
 474:	6d617961 			; <UNDEFINED> instruction: 0x6d617961
 478:	00632e61 	rsbeq	r2, r3, r1, ror #28
 47c:	6f727265 	svcvs	0x00727265
 480:	4b005772 	blmi	16250 <safe_alloc>
 484:	54454854 	strbpl	r4, [r5], #-2132	; 0xfffff7ac
 488:	70730041 	rsbsvc	r0, r3, r1, asr #32
 48c:	5f646565 	svcpl	0x00646565
 490:	70730052 	rsbsvc	r0, r3, r2, asr r0
 494:	5f646565 	svcpl	0x00646565
 498:	616b0057 	qdsubvs	r0, r7, fp
 49c:	6179616e 	cmnvs	r9, lr, ror #2
 4a0:	6700616d 	strvs	r6, [r0, -sp, ror #2]
 4a4:	725f7465 	subsvc	r7, pc, #1694498816	; 0x65000000
 4a8:	735f6665 	cmpvc	pc, #105906176	; 0x6500000
 4ac:	64656570 	strbtvs	r6, [r5], #-1392	; 0xfffffa90
 4b0:	756f7600 	strbvc	r7, [pc, #-1536]!	; fffffeb8 <__bss_end__+0xfffd4f4c>
 4b4:	72700074 	rsbsvc	r0, r0, #116	; 0x74
 4b8:	735f7665 	cmpvc	pc, #105906176	; 0x6500000
 4bc:	6f707465 	svcvs	0x00707465
 4c0:	00746e69 	rsbseq	r6, r4, r9, ror #28
 4c4:	6e616863 	cdpvs	8, 6, cr6, cr1, cr3, {3}
 4c8:	635f6567 	cmpvs	pc, #432013312	; 0x19c00000
 4cc:	64726f6f 	ldrbtvs	r6, [r2], #-3951	; 0xfffff091
 4d0:	74616e69 	strbtvc	r6, [r1], #-3689	; 0xfffff197
 4d4:	79735f65 	ldmdbvc	r3!, {r0, r2, r5, r6, r8, r9, sl, fp, ip, lr}^
 4d8:	6d657473 	cfstrdvs	mvd7, [r5, #-460]!	; 0xfffffe34
 4dc:	72726500 	rsbsvc	r6, r2, #0, 10
 4e0:	6700726f 	strvs	r7, [r0, -pc, ror #4]
 4e4:	655f7465 	ldrbvs	r7, [pc, #-1125]	; 87 <shift+0x87>
 4e8:	726f7272 	rsbvc	r7, pc, #536870919	; 0x20000007
 4ec:	6365765f 	cmnvs	r5, #99614720	; 0x5f00000
 4f0:	00726f74 	rsbseq	r6, r2, r4, ror pc
 4f4:	7274616d 	rsbsvc	r6, r4, #1073741851	; 0x4000001b
 4f8:	70007869 	andvc	r7, r0, r9, ror #16
 4fc:	5f687461 	svcpl	0x00687461
 500:	6f630072 	svcvs	0x00630072
 504:	65675f6d 	strbvs	r5, [r7, #-3949]!	; 0xfffff093
 508:	6172656e 	cmnvs	r2, lr, ror #10
 50c:	6e6f6974 			; <UNDEFINED> instruction: 0x6e6f6974
 510:	46454400 	strbmi	r4, [r5], -r0, lsl #8
 514:	544c5541 	strbpl	r5, [ip], #-1345	; 0xfffffabf
 518:	74615000 	strbtvc	r5, [r1], #-0
 51c:	6f500068 	svcvs	0x00500068
 520:	00746e69 	rsbseq	r6, r4, r9, ror #28
 524:	5f746567 	svcpl	0x00746567
 528:	65736f70 	ldrbvs	r6, [r3, #-3952]!	; 0xfffff090
 52c:	5f74615f 	svcpl	0x0074615f
 530:	7473616c 	ldrbtvc	r6, [r3], #-364	; 0xfffffe94
 534:	646f6e5f 	strbtvs	r6, [pc], #-3679	; 53c <shift+0x53c>
 538:	69640065 	stmdbvs	r4!, {r0, r2, r5, r6}^
 53c:	795f6666 	ldmdbvc	pc, {r1, r2, r5, r6, r9, sl, sp, lr}^	; <UNPREDICTABLE>
 540:	616c6300 	cmnvs	ip, r0, lsl #6
 544:	765f706d 	ldrbvc	r7, [pc], -sp, rrx
 548:	5f6f745f 	svcpl	0x006f745f
 54c:	53007073 	movwpl	r7, #115	; 0x73
 550:	656d6765 	strbvs	r6, [sp, #-1893]!	; 0xfffff89b
 554:	465f746e 	ldrbmi	r7, [pc], -lr, ror #8
 558:	7367616c 	cmnvc	r7, #108, 2
 55c:	6e5f6600 	cdpvs	6, 5, cr6, cr15, cr0, {0}
 560:	006c6c75 	rsbeq	r6, ip, r5, ror ip
 564:	746e4955 	strbtvc	r4, [lr], #-2389	; 0xfffff6ab
 568:	6e003631 	mcrvs	6, 0, r3, cr0, cr1, {1}
 56c:	00615f62 	rsbeq	r5, r1, r2, ror #30
 570:	65646f4e 	strbvs	r6, [r4, #-3918]!	; 0xfffff0b2
 574:	735f7200 	cmpvc	pc, #0, 4
 578:	00656469 	rsbeq	r6, r5, r9, ror #8
 57c:	70755f73 	rsbsvc	r5, r5, r3, ror pc
 580:	65727000 	ldrbvs	r7, [r2, #-0]!
 584:	6f705f76 	svcvs	0x00705f76
 588:	6c660073 	stclvs	0, cr0, [r6], #-460	; 0xfffffe34
 58c:	725f6761 	subsvc	r6, pc, #25427968	; 0x1840000
 590:	65676e61 	strbvs	r6, [r7, #-3681]!	; 0xfffff19f
 594:	63726100 	cmnvs	r2, #0, 2
 598:	65640073 	strbvs	r0, [r4, #-115]!	; 0xffffff8d
 59c:	616d5f66 	cmnvs	sp, r6, ror #30
 5a0:	70735f78 	rsbsvc	r5, r3, r8, ror pc
 5a4:	00646565 	rsbeq	r6, r4, r5, ror #10
 5a8:	4f545541 	svcmi	0x00545541
 5ac:	73706500 	cmnvc	r0, #0, 10
 5b0:	6e6f6c69 	cdpvs	12, 6, cr6, cr15, cr9, {3}
 5b4:	6e696d00 	cdpvs	13, 6, cr6, cr9, cr0, {0}
 5b8:	696d0058 	stmdbvs	sp!, {r3, r4, r6}^
 5bc:	6c00596e 			; <UNDEFINED> instruction: 0x6c00596e
 5c0:	6469735f 	strbtvs	r7, [r9], #-863	; 0xfffffca1
 5c4:	6f630065 	svcvs	0x00630065
 5c8:	72745f6d 	rsbsvc	r5, r4, #436	; 0x1b4
 5cc:	696b6361 	stmdbvs	fp!, {r0, r5, r6, r8, r9, sp, lr}^
 5d0:	7500676e 	strvc	r6, [r0, #-1902]	; 0xfffff892
 5d4:	31746e69 	cmncc	r4, r9, ror #28
 5d8:	74730036 	ldrbtvc	r0, [r3], #-54	; 0xffffffca
 5dc:	73757461 	cmnvc	r5, #1627389952	; 0x61000000
 5e0:	66656400 	strbtvs	r6, [r5], -r0, lsl #8
 5e4:	78616d5f 	stmdavc	r1!, {r0, r1, r2, r3, r4, r6, r8, sl, fp, sp, lr}^
 5e8:	6570735f 	ldrbvs	r7, [r0, #-863]!	; 0xfffffca1
 5ec:	755f6465 	ldrbvc	r6, [pc, #-1125]	; 18f <shift+0x18f>
 5f0:	5f660070 	svcpl	0x00660070
 5f4:	61726170 	cmnvs	r2, r0, ror r1
 5f8:	6c656c6c 	stclvs	12, cr6, [r5], #-432	; 0xfffffe50
 5fc:	6d756300 	ldclvs	3, cr6, [r5, #-0]
 600:	7369645f 	cmnvc	r9, #1593835520	; 0x5f000000
 604:	72700074 	rsbsvc	r0, r0, #116	; 0x74
 608:	63656a6f 	cmnvs	r5, #454656	; 0x6f000
 60c:	6e6f6974 			; <UNDEFINED> instruction: 0x6e6f6974
 610:	736f7000 	cmnvc	pc, #0
 614:	6e69665f 	mcrvs	6, 3, r6, cr9, cr15, {2}
 618:	735f7364 	cmpvc	pc, #100, 6	; 0x90000001
 61c:	00656469 	rsbeq	r6, r5, r9, ror #8
 620:	69735f69 	ldmdbvs	r3!, {r0, r3, r5, r6, r8, r9, sl, fp, ip, lr}^
 624:	73006564 	movwvc	r6, #1380	; 0x564
 628:	64656570 	strbtvs	r6, [r5], #-1392	; 0xfffffa90
 62c:	0070735f 	rsbseq	r7, r0, pc, asr r3
 630:	66666964 	strbtvs	r6, [r6], -r4, ror #18
 634:	6600785f 			; <UNDEFINED> instruction: 0x6600785f
 638:	5f67616c 	svcpl	0x0067616c
 63c:	6c6c6f63 	stclvs	15, cr6, [ip], #-396	; 0xfffffe74
 640:	6f697369 	svcvs	0x00697369
 644:	5f70006e 	svcpl	0x0070006e
 648:	00646e69 	rsbeq	r6, r4, r9, ror #28
 64c:	54415453 	strbpl	r5, [r1], #-1107	; 0xfffffbad
 650:	004e4f49 	subeq	r4, lr, r9, asr #30
 654:	74736964 	ldrbtvc	r6, [r3], #-2404	; 0xfffff69c
 658:	65636e61 	strbvs	r6, [r3, #-3681]!	; 0xfffff19f
 65c:	635f6600 	cmpvs	pc, #0, 12
 660:	636e696f 	cmnvs	lr, #1818624	; 0x1bc000
 664:	6e656469 	cdpvs	4, 6, cr6, cr5, cr9, {3}
 668:	73690074 	cmnvc	r9, #116	; 0x74
 66c:	696e695f 	stmdbvs	lr!, {r0, r1, r2, r3, r4, r6, r8, fp, sp, lr}^
 670:	69730074 	ldmdbvs	r3!, {r2, r4, r5, r6}^
 674:	735f6564 	cmpvc	pc, #100, 10	; 0x19000000
 678:	74726174 	ldrbtvc	r6, [r2], #-372	; 0xfffffe8c
 67c:	74656700 	strbtvc	r6, [r5], #-1792	; 0xfffff900
 680:	78616d5f 	stmdavc	r1!, {r0, r1, r2, r3, r4, r6, r8, sl, fp, sp, lr}^
 684:	6e61725f 	mcrvs	2, 3, r7, cr1, cr15, {2}
 688:	55006567 	strpl	r6, [r0, #-1383]	; 0xfffffa99
 68c:	38746e49 	ldmdacc	r4!, {r0, r3, r6, r9, sl, fp, sp, lr}^
 690:	65727000 	ldrbvs	r7, [r2, #-0]!
 694:	6e695f76 	mcrvs	15, 3, r5, cr9, cr6, {3}
 698:	00786564 	rsbseq	r6, r8, r4, ror #10
 69c:	61705f69 	cmnvs	r0, r9, ror #30
 6a0:	73006874 	movwvc	r6, #2164	; 0x874
 6a4:	65636375 	strbvs	r6, [r3, #-885]!	; 0xfffffc8b
 6a8:	69007373 	stmdbvs	r0, {r0, r1, r4, r5, r6, r8, r9, ip, sp, lr}
 6ac:	616d5f73 	smcvs	54771	; 0xd5f3
 6b0:	7461646e 	strbtvc	r6, [r1], #-1134	; 0xfffffb92
 6b4:	0079726f 	rsbseq	r7, r9, pc, ror #4
 6b8:	69645f55 	stmdbvs	r4!, {r0, r2, r4, r6, r8, r9, sl, fp, ip, lr}^
 6bc:	41540076 	cmpmi	r4, r6, ror r0
 6c0:	54454752 	strbpl	r4, [r5], #-1874	; 0xfffff8ae
 6c4:	646f6e00 	strbtvs	r6, [pc], #-3584	; 6cc <shift+0x6cc>
 6c8:	71655f65 	cmnvc	r5, r5, ror #30
 6cc:	646f4e00 	strbtvs	r4, [pc], #-3584	; 6d4 <shift+0x6d4>
 6d0:	79745f65 	ldmdbvc	r4!, {r0, r2, r5, r6, r8, r9, sl, fp, ip, lr}^
 6d4:	6e006570 	cfrshl64vs	mvdx0, mvdx0, r6
 6d8:	00736f70 	rsbseq	r6, r3, r0, ror pc
 6dc:	705f7165 	subsvc	r7, pc, r5, ror #2
 6e0:	6700736f 	strvs	r7, [r0, -pc, ror #6]
 6e4:	735f7465 	cmpvc	pc, #1694498816	; 0x65000000
 6e8:	6f707465 	svcvs	0x00707465
 6ec:	00746e69 	rsbseq	r6, r4, r9, ror #28
 6f0:	5f746567 	svcpl	0x00746567
 6f4:	65657073 	strbvs	r7, [r5, #-115]!	; 0xffffff8d
 6f8:	6f635f64 	svcvs	0x00635f64
 6fc:	7274736e 	rsbsvc	r7, r4, #-1207959551	; 0xb8000001
 700:	746e6961 	strbtvc	r6, [lr], #-2401	; 0xfffff69f
 704:	616d0073 	smcvs	53251	; 0xd003
 708:	6d005878 	stcvs	8, cr5, [r0, #-480]	; 0xfffffe20
 70c:	00597861 	subseq	r7, r9, r1, ror #16
 710:	5f736f70 	svcpl	0x00736f70
 714:	75670072 	strbvc	r0, [r7, #-114]!	; 0xffffff8e
 718:	6e616469 	cdpvs	4, 6, cr6, cr1, cr9, {3}
 71c:	6d5f6563 	cfldr64vs	mvdx6, [pc, #-396]	; 598 <shift+0x598>
 720:	632e7267 			; <UNDEFINED> instruction: 0x632e7267
 724:	6e697500 	cdpvs	5, 6, cr7, cr9, cr0, {0}
 728:	64003874 	strvs	r3, [r0], #-2164	; 0xfffff78c
 72c:	00747365 	rsbseq	r7, r4, r5, ror #6
 730:	73696f6e 	cmnvc	r9, #440	; 0x1b8
 734:	6d615f65 	stclvs	15, cr5, [r1, #-404]!	; 0xfffffe6c
 738:	74696c70 	strbtvc	r6, [r9], #-3184	; 0xfffff390
 73c:	5f656475 	svcpl	0x00656475
 740:	00676564 	rsbeq	r6, r7, r4, ror #10
 744:	71657266 	cmnvc	r5, r6, ror #4
 748:	756f625f 	strbvc	r6, [pc, #-607]!	; 4f1 <shift+0x4f1>
 74c:	7200646e 	andvc	r6, r0, #1845493760	; 0x6e000000
 750:	6f646e61 	svcvs	0x00646e61
 754:	70675f6d 	rsbvc	r5, r7, sp, ror #30
 758:	6f630073 	svcvs	0x00630073
 75c:	7361706d 	cmnvc	r1, #109	; 0x6d
 760:	6f6e5f73 	svcvs	0x006e5f73
 764:	5f657369 	svcpl	0x00657369
 768:	6c706d61 	ldclvs	13, cr6, [r0], #-388	; 0xfffffe7c
 76c:	64757469 	ldrbtvs	r7, [r5], #-1129	; 0xfffffb97
 770:	61720065 	cmnvs	r2, r5, rrx
 774:	6d6f646e 	cfstrdvs	mvd6, [pc, #-440]!	; 5c4 <shift+0x5c4>
 778:	746e695f 	strbtvc	r6, [lr], #-2399	; 0xfffff6a1
 77c:	706d6100 	rsbvc	r6, sp, r0, lsl #2
 780:	7574696c 	ldrbvc	r6, [r4, #-2412]!	; 0xfffff694
 784:	625f6564 	subsvs	r6, pc, #100, 10	; 0x19000000
 788:	646e756f 	strbtvs	r7, [lr], #-1391	; 0xfffffa91
 78c:	6d657200 	sfmvs	f7, 2, [r5, #-0]
 790:	646e6961 	strbtvs	r6, [lr], #-2401	; 0xfffff69f
 794:	72007265 	andvc	r7, r0, #1342177286	; 0x50000006
 798:	6f646e61 	svcvs	0x00646e61
 79c:	61765f6d 	cmnvs	r6, sp, ror #30
 7a0:	0065756c 	rsbeq	r7, r5, ip, ror #10
 7a4:	5f737067 	svcpl	0x00737067
 7a8:	73696f6e 	cmnvc	r9, #440	; 0x1b8
 7ac:	6d615f65 	stclvs	15, cr5, [r1, #-404]!	; 0xfffffe6c
 7b0:	74696c70 	strbtvc	r6, [r9], #-3184	; 0xfffff390
 7b4:	00656475 	rsbeq	r6, r5, r5, ror r4
 7b8:	61766e69 	cmnvs	r6, r9, ror #28
 7bc:	5f64696c 	svcpl	0x0064696c
 7c0:	5f737067 	svcpl	0x00737067
 7c4:	61746164 	cmnvs	r4, r4, ror #2
 7c8:	65726600 	ldrbvs	r6, [r2, #-1536]!	; 0xfffffa00
 7cc:	6f6e5f71 	svcvs	0x006e5f71
 7d0:	00657369 	rsbeq	r7, r5, r9, ror #6
 7d4:	646e6573 	strbtvs	r6, [lr], #-1395	; 0xfffffa8d
 7d8:	5f67734d 	svcpl	0x0067734d
 7dc:	32555043 	subscc	r5, r5, #67	; 0x43
 7e0:	6e657300 	cdpvs	3, 6, cr7, cr5, cr0, {0}
 7e4:	5f726f73 	svcpl	0x00726f73
 7e8:	61746164 	cmnvs	r4, r4, ror #2
 7ec:	6e61725f 	mcrvs	2, 3, r7, cr1, cr15, {2}
 7f0:	696d6f64 	stmdbvs	sp!, {r2, r5, r6, r8, r9, sl, fp, sp, lr}^
 7f4:	6e00657a 	cfrshl64vs	mvdx0, mvdx10, r6
 7f8:	6573696f 	ldrbvs	r6, [r3, #-2415]!	; 0xfffff691
 7fc:	70675f64 	rsbvc	r5, r7, r4, ror #30
 800:	61645f73 	smcvs	17907	; 0x45f3
 804:	6f006174 	svcvs	0x00006174
 808:	656d6f64 	strbvs	r6, [sp, #-3940]!	; 0xfffff09c
 80c:	5f797274 	svcpl	0x00797274
 810:	73696f6e 	cmnvc	r9, #440	; 0x1b8
 814:	6d615f65 	stclvs	15, cr5, [r1, #-404]!	; 0xfffffe6c
 818:	74696c70 	strbtvc	r6, [r9], #-3184	; 0xfffff390
 81c:	00656475 	rsbeq	r6, r5, r5, ror r4
 820:	61766e69 	cmnvs	r6, r9, ror #28
 824:	5f64696c 	svcpl	0x0064696c
 828:	6d6f646f 	cfstrdvs	mvd6, [pc, #-444]!	; 674 <shift+0x674>
 82c:	79727465 	ldmdbvc	r2!, {r0, r2, r5, r6, sl, ip, sp, lr}^
 830:	7461645f 	strbtvc	r6, [r1], #-1119	; 0xfffffba1
 834:	72660061 	rsbvc	r0, r6, #97	; 0x61
 838:	625f7165 	subsvs	r7, pc, #1073741849	; 0x40000019
 83c:	646e756f 	strbtvs	r7, [lr], #-1391	; 0xfffffa91
 840:	656d0032 	strbvs	r0, [sp, #-50]!	; 0xffffffce
 844:	72757361 	rsbsvc	r7, r5, #-2080374783	; 0x84000001
 848:	6e656d65 	cdpvs	13, 6, cr6, cr5, cr5, {3}
 84c:	61725f74 	cmnvs	r2, r4, ror pc
 850:	6d6f646e 	cfstrdvs	mvd6, [pc, #-440]!	; 6a0 <shift+0x6a0>
 854:	74617a69 	strbtvc	r7, [r1], #-2665	; 0xfffff597
 858:	2e6e6f69 	cdpcs	15, 6, cr6, cr14, cr9, {3}
 85c:	6e690063 	cdpvs	0, 6, cr0, cr9, cr3, {3}
 860:	696c6176 	stmdbvs	ip!, {r1, r2, r4, r5, r6, r8, sp, lr}^
 864:	6f635f64 	svcvs	0x00635f64
 868:	7361706d 	cmnvc	r1, #109	; 0x6d
 86c:	61645f73 	smcvs	17907	; 0x45f3
 870:	52006174 	andpl	r6, r0, #116, 2
 874:	6f646e61 	svcvs	0x00646e61
 878:	617a696d 	cmnvs	sl, sp, ror #18
 87c:	6e6f6974 			; <UNDEFINED> instruction: 0x6e6f6974
 880:	7261505f 	rsbvc	r5, r1, #95	; 0x5f
 884:	74656d61 	strbtvc	r6, [r5], #-3425	; 0xfffff29f
 888:	00737265 	rsbseq	r7, r3, r5, ror #4
 88c:	74696e69 	strbtvc	r6, [r9], #-3689	; 0xfffff197
 890:	6e61725f 	mcrvs	2, 3, r7, cr1, cr15, {2}
 894:	006d6f64 	rsbeq	r6, sp, r4, ror #30
 898:	75706e69 	ldrbvc	r6, [r0, #-3689]!	; 0xfffff197
 89c:	61725f74 	cmnvs	r2, r4, ror pc
 8a0:	6d6f646e 	cfstrdvs	mvd6, [pc, #-440]!	; 6f0 <shift+0x6f0>
 8a4:	7261705f 	rsbvc	r7, r1, #95	; 0x5f
 8a8:	6e006d61 	cdpvs	13, 0, cr6, cr0, cr1, {3}
 8ac:	6573696f 	ldrbvs	r6, [r3, #-2415]!	; 0xfffff691
 8b0:	6f635f64 	svcvs	0x00635f64
 8b4:	7361706d 	cmnvc	r1, #109	; 0x6d
 8b8:	61645f73 	smcvs	17907	; 0x45f3
 8bc:	72006174 	andvc	r6, r0, #116, 2
 8c0:	6f646e61 	svcvs	0x00646e61
 8c4:	6f635f6d 	svcvs	0x00635f6d
 8c8:	7361706d 	cmnvc	r1, #109	; 0x6d
 8cc:	72660073 	rsbvc	r0, r6, #115	; 0x73
 8d0:	765f7165 	ldrbvc	r7, [pc], -r5, ror #2
 8d4:	6e006c61 	cdpvs	12, 0, cr6, cr0, cr1, {3}
 8d8:	6573696f 	ldrbvs	r6, [r3, #-2415]!	; 0xfffff691
 8dc:	646f5f64 	strbtvs	r5, [pc], #-3940	; 8e4 <shift+0x8e4>
 8e0:	74656d6f 	strbtvc	r6, [r5], #-3439	; 0xfffff291
 8e4:	645f7972 	ldrbvs	r7, [pc], #-2418	; 8ec <shift+0x8ec>
 8e8:	00617461 	rsbeq	r7, r1, r1, ror #8
 8ec:	646e6172 	strbtvs	r6, [lr], #-370	; 0xfffffe8e
 8f0:	6f5f6d6f 	svcvs	0x005f6d6f
 8f4:	656d6f64 	strbvs	r6, [sp, #-3940]!	; 0xfffff09c
 8f8:	00797274 	rsbseq	r7, r9, r4, ror r2
 8fc:	5f666572 	svcpl	0x00666572
 900:	705f6f74 	subsvc	r6, pc, r4, ror pc	; <UNPREDICTABLE>
 904:	65687400 	strbvs	r7, [r8, #-1024]!	; 0xfffffc00
 908:	315f6174 	cmpcc	pc, r4, ror r1	; <UNPREDICTABLE>
 90c:	65687400 	strbvs	r7, [r8, #-1024]!	; 0xfffffc00
 910:	325f6174 	subscc	r6, pc, #116, 2
 914:	6d6f6300 	stclvs	3, cr6, [pc, #-0]	; 91c <shift+0x91c>
 918:	65747570 	ldrbvs	r7, [r4, #-1392]!	; 0xfffffa90
 91c:	6568745f 	strbvs	r7, [r8, #-1119]!	; 0xfffffba1
 920:	74006174 	strvc	r6, [r0], #-372	; 0xfffffe8c
 924:	00747365 	rsbseq	r7, r4, r5, ror #6
 928:	65646973 	strbvs	r6, [r4, #-2419]!	; 0xfffff68d
 92c:	5f726c5f 	svcpl	0x00726c5f
 930:	6e696f70 	mcrvs	15, 3, r6, cr9, cr0, {3}
 934:	6d007374 	stcvs	3, cr7, [r0, #-464]	; 0xfffffe30
 938:	695f6e69 	ldmdbvs	pc, {r0, r3, r5, r6, r9, sl, fp, sp, lr}^	; <UNPREDICTABLE>
 93c:	67655300 	strbvs	r5, [r5, -r0, lsl #6]!
 940:	746e656d 	strbtvc	r6, [lr], #-1389	; 0xfffffa93
 944:	746e6900 	strbtvc	r6, [lr], #-2304	; 0xfffff700
 948:	65737265 	ldrbvs	r7, [r3, #-613]!	; 0xfffffd9b
 94c:	00737463 	rsbseq	r7, r3, r3, ror #8
 950:	74656874 	strbtvc	r6, [r5], #-2164	; 0xfffff78c
 954:	42415f61 	submi	r5, r1, #388	; 0x184
 958:	67657300 	strbvs	r7, [r5, -r0, lsl #6]!
 95c:	746e656d 	strbtvc	r6, [lr], #-1389	; 0xfffffa93
 960:	78616d00 	stmdavc	r1!, {r8, sl, fp, sp, lr}^
 964:	7400695f 	strvc	r6, [r0], #-2399	; 0xfffff6a1
 968:	5f747365 	svcpl	0x00747365
 96c:	65746e69 	ldrbvs	r6, [r4, #-3689]!	; 0xfffff197
 970:	63657372 	cmnvs	r5, #-939524095	; 0xc8000001
 974:	6e6f6974 			; <UNDEFINED> instruction: 0x6e6f6974
 978:	736f705f 	cmnvc	pc, #95	; 0x5f
 97c:	73657400 	cmnvc	r5, #0, 8
 980:	6e695f74 	mcrvs	15, 3, r5, cr9, cr4, {3}
 984:	73726574 	cmnvc	r2, #116, 10	; 0x1d000000
 988:	69746365 	ldmdbvs	r4!, {r0, r2, r5, r6, r8, r9, sp, lr}^
 98c:	705f6e6f 	subsvc	r6, pc, pc, ror #28
 990:	746e696f 	strbtvc	r6, [lr], #-2415	; 0xfffff691
 994:	72617400 	rsbvc	r7, r1, #0, 8
 998:	00746567 	rsbseq	r6, r4, r7, ror #10
 99c:	65646f6e 	strbvs	r6, [r4, #-3950]!	; 0xfffff092
 9a0:	5f6f745f 	svcpl	0x006f745f
 9a4:	6e696f70 	mcrvs	15, 3, r6, cr9, cr0, {3}
 9a8:	65730074 	ldrbvs	r0, [r3, #-116]!	; 0xffffff8c
 9ac:	6e656d67 	cdpvs	13, 6, cr6, cr5, cr7, {3}
 9b0:	00632e74 	rsbeq	r2, r3, r4, ror lr
 9b4:	6e496e69 	cdpvs	14, 4, cr6, cr9, cr9, {3}
 9b8:	76726574 			; <UNDEFINED> instruction: 0x76726574
 9bc:	6c006c61 	stcvs	12, cr6, [r0], {97}	; 0x61
 9c0:	74696d69 	strbtvc	r6, [r9], #-3433	; 0xfffff297
 9c4:	65670032 	strbvs	r0, [r7, #-50]!	; 0xffffffce
 9c8:	6e695f74 	mcrvs	15, 3, r5, cr9, cr4, {3}
 9cc:	73726574 	cmnvc	r2, #116, 10	; 0x1d000000
 9d0:	69746365 	ldmdbvs	r4!, {r0, r2, r5, r6, r8, r9, sp, lr}^
 9d4:	73006e6f 	movwvc	r6, #3695	; 0xe6f
 9d8:	6f506765 	svcvs	0x00506765
 9dc:	5f746e69 	svcpl	0x00746e69
 9e0:	6e696f70 	mcrvs	15, 3, r6, cr9, cr0, {3}
 9e4:	6f6e5f74 	svcvs	0x006e5f74
 9e8:	69006564 	stmdbvs	r0, {r2, r5, r6, r8, sl, sp, lr}
 9ec:	7265746e 	rsbvc	r7, r5, #1845493760	; 0x6e000000
 9f0:	5f736900 	svcpl	0x00736900
 9f4:	6c6c6f63 	stclvs	15, cr6, [ip], #-396	; 0xfffffe74
 9f8:	6f697369 	svcvs	0x00697369
 9fc:	69725f6e 	ldmdbvs	r2!, {r1, r2, r3, r5, r6, r8, r9, sl, fp, ip, lr}^
 a00:	00746867 	rsbseq	r6, r4, r7, ror #16
 a04:	756e6564 	strbvc	r6, [lr, #-1380]!	; 0xfffffa9c
 a08:	696c006d 	stmdbvs	ip!, {r0, r2, r3, r5, r6}^
 a0c:	3174696d 	cmncc	r4, sp, ror #18
 a10:	6d5f5400 	cfldrdvs	mvd5, [pc, #-0]	; a18 <shift+0xa18>
 a14:	75736165 	ldrbvc	r6, [r3, #-357]!	; 0xfffffe9b
 a18:	6e5f6572 	mrcvs	5, 2, r6, cr15, cr2, {3}
 a1c:	6573696f 	ldrbvs	r6, [r3, #-2415]!	; 0xfffff691
 a20:	67697300 	strbvs	r7, [r9, -r0, lsl #6]!
 a24:	725f616d 	subsvc	r6, pc, #1073741851	; 0x4000001b
 a28:	6f6e5f77 	svcvs	0x006e5f77
 a2c:	00657369 	rsbeq	r7, r5, r9, ror #6
 a30:	53504752 	cmppl	r0, #21495808	; 0x1480000
 a34:	504d4f43 	subpl	r4, sp, r3, asr #30
 a38:	4f435200 	svcmi	0x00435200
 a3c:	0064504d 	rsbeq	r5, r4, sp, asr #32
 a40:	6d676973 			; <UNDEFINED> instruction: 0x6d676973
 a44:	5f785f61 	svcpl	0x00785f61
 a48:	73696f6e 	cmnvc	r9, #440	; 0x1b8
 a4c:	70750065 	rsbsvc	r0, r5, r5, rrx
 a50:	65746164 	ldrbvs	r6, [r4, #-356]!	; 0xfffffe9c
 a54:	6d69735f 	stclvs	3, cr7, [r9, #-380]!	; 0xfffffe84
 a58:	74616c75 	strbtvc	r6, [r1], #-3189	; 0xfffff38b
 a5c:	006e6f69 	rsbeq	r6, lr, r9, ror #30
 a60:	53504752 	cmppl	r0, #21495808	; 0x1480000
 a64:	504d4f43 	subpl	r4, sp, r3, asr #30
 a68:	5f4b0064 	svcpl	0x004b0064
 a6c:	52007072 	andpl	r7, r0, #114	; 0x72
 a70:	00535047 	subseq	r5, r3, r7, asr #32
 a74:	59455f4b 	stmdbpl	r5, {r0, r1, r3, r6, r8, r9, sl, fp, ip, lr}^
 a78:	5f335f45 	svcpl	0x00335f45
 a7c:	69770033 	ldmdbvs	r7!, {r0, r1, r4, r5}^
 a80:	00687464 	rsbeq	r7, r8, r4, ror #8
 a84:	69735f5f 	ldmdbvs	r3!, {r0, r1, r2, r3, r4, r6, r8, r9, sl, fp, ip, lr}^
 a88:	7300756d 	movwvc	r7, #1389	; 0x56d
 a8c:	6c756d69 	ldclvs	13, cr6, [r5], #-420	; 0xfffffe5c
 a90:	726f7461 	rsbvc	r7, pc, #1627389952	; 0x61000000
 a94:	7300632e 	movwvc	r6, #814	; 0x32e
 a98:	616d6769 	cmnvs	sp, r9, ror #14
 a9c:	6568745f 	strbvs	r7, [r8, #-1119]!	; 0xfffffba1
 aa0:	5f6c6174 	svcpl	0x006c6174
 aa4:	73696f6e 	cmnvc	r9, #440	; 0x1b8
 aa8:	5f4b0065 	svcpl	0x004b0065
 aac:	52006e6d 	andpl	r6, r0, #1744	; 0x6d0
 ab0:	504d4f43 	subpl	r4, sp, r3, asr #30
 ab4:	67697300 	strbvs	r7, [r9, -r0, lsl #6]!
 ab8:	745f616d 	ldrbvc	r6, [pc], #-365	; ac0 <shift+0xac0>
 abc:	61746568 	cmnvs	r4, r8, ror #10
 ac0:	6f6e5f72 	svcvs	0x006e5f72
 ac4:	00657369 	rsbeq	r7, r5, r9, ror #6
 ac8:	6d676973 			; <UNDEFINED> instruction: 0x6d676973
 acc:	5f795f61 	svcpl	0x00795f61
 ad0:	73696f6e 	cmnvc	r9, #440	; 0x1b8
 ad4:	5f540065 	svcpl	0x00540065
 ad8:	6f626f72 	svcvs	0x00626f72
 adc:	61705f74 	cmnvs	r0, r4, ror pc
 ae0:	656d6172 	strbvs	r6, [sp, #-370]!	; 0xfffffe8e
 ae4:	73726574 	cmnvc	r2, #116, 10	; 0x1d000000
 ae8:	50475200 	subpl	r5, r7, r0, lsl #4
 aec:	73006453 	movwvc	r6, #1107	; 0x453
 af0:	616d6769 	cmnvs	sp, r9, ror #14
 af4:	5f776c5f 	svcpl	0x00776c5f
 af8:	73696f6e 	cmnvc	r9, #440	; 0x1b8
 afc:	69730065 	ldmdbvs	r3!, {r0, r2, r5, r6}^
 b00:	5f616d67 	svcpl	0x00616d67
 b04:	74656874 	strbtvc	r6, [r5], #-2164	; 0xfffff78c
 b08:	6f6e5f61 	svcvs	0x006e5f61
 b0c:	00657369 	rsbeq	r7, r5, r9, ror #6
 b10:	61726170 	cmnvs	r2, r0, ror r1
 b14:	7274656d 	rsbsvc	r6, r4, #457179136	; 0x1b400000
 b18:	632e7365 			; <UNDEFINED> instruction: 0x632e7365
 b1c:	74616d00 	strbtvc	r6, [r1], #-3328	; 0xfffff300
 b20:	6c756d5f 	ldclvs	13, cr6, [r5], #-380	; 0xfffffe84
 b24:	6163735f 	cmnvs	r3, pc, asr r3
 b28:	616d006c 	cmnvs	sp, ip, rrx
 b2c:	64615f74 	strbtvs	r5, [r1], #-3956	; 0xfffff08c
 b30:	616d0064 	cmnvs	sp, r4, rrx
 b34:	72745f74 	rsbsvc	r5, r4, #116, 30	; 0x1d0
 b38:	70736e61 	rsbsvc	r6, r3, r1, ror #28
 b3c:	4f4e6b00 	svcmi	0x004e6b00
 b40:	51535f4e 	cmppl	r3, lr, asr #30
 b44:	45524155 	ldrbmi	r4, [r2, #-341]	; 0xfffffeab
 b48:	4f4e6b00 	svcmi	0x004e6b00
 b4c:	4d495f54 	stclmi	15, cr5, [r9, #-336]	; 0xfffffeb0
 b50:	4d454c50 	stclmi	12, cr4, [r5, #-320]	; 0xfffffec0
 b54:	45544e45 	ldrbmi	r4, [r4, #-3653]	; 0xfffff1bb
 b58:	5f4b0044 	svcpl	0x004b0044
 b5c:	5f455945 	svcpl	0x00455945
 b60:	64335f33 	ldrtvs	r5, [r3], #-3891	; 0xfffff0cd
 b64:	74616d00 	strbtvc	r6, [r1], #-3328	; 0xfffff300
 b68:	6c65645f 	cfstrdvs	mvd6, [r5], #-380	; 0xfffffe84
 b6c:	74616d00 	strbtvc	r6, [r1], #-3328	; 0xfffff300
 b70:	6275735f 	rsbsvs	r7, r5, #2080374785	; 0x7c000001
 b74:	74616d00 	strbtvc	r6, [r1], #-3328	; 0xfffff300
 b78:	6c756d5f 	ldclvs	13, cr6, [r5], #-380	; 0xfffffe84
 b7c:	6d00315f 	stfvss	f3, [r0, #-380]	; 0xfffffe84
 b80:	6d5f7461 	cfldrdvs	mvd7, [pc, #-388]	; a04 <shift+0xa04>
 b84:	325f6c75 	subscc	r6, pc, #29952	; 0x7500
 b88:	74616d00 	strbtvc	r6, [r1], #-3328	; 0xfffff300
 b8c:	766e695f 			; <UNDEFINED> instruction: 0x766e695f
 b90:	74616d00 	strbtvc	r6, [r1], #-3328	; 0xfffff300
 b94:	6b00632e 	blvs	19854 <__FRAME_END__+0x2ea8>
 b98:	4f434e49 	svcmi	0x00434e49
 b9c:	535f534e 	cmppl	pc, #939524097	; 0x38000001
 ba0:	53455a49 	movtpl	r5, #23113	; 0x5a49
 ba4:	74616d00 	strbtvc	r6, [r1], #-3328	; 0xfffff300
 ba8:	6c756d5f 	ldclvs	13, cr6, [r5], #-380	; 0xfffffe84
 bac:	0062325f 	rsbeq	r3, r2, pc, asr r2
 bb0:	4e49536b 	cdpmi	3, 4, cr5, cr9, cr11, {3}
 bb4:	414c5547 	cmpmi	ip, r7, asr #10
 bb8:	616d0052 	qdsubvs	r0, r2, sp
 bbc:	72635f74 	rsbvc	r5, r3, #116, 30	; 0x1d0
 bc0:	65746165 	ldrbvs	r6, [r4, #-357]!	; 0xfffffe9b
 bc4:	74616d00 	strbtvc	r6, [r1], #-3328	; 0xfffff300
 bc8:	7465645f 	strbtvc	r6, [r5], #-1119	; 0xfffffba1
 bcc:	74616d00 	strbtvc	r6, [r1], #-3328	; 0xfffff300
 bd0:	6c756d5f 	ldclvs	13, cr6, [r5], #-380	; 0xfffffe84
 bd4:	74616d00 	strbtvc	r6, [r1], #-3328	; 0xfffff300
 bd8:	6c756d5f 	ldclvs	13, cr6, [r5], #-380	; 0xfffffe84
 bdc:	0062315f 	rsbeq	r3, r2, pc, asr r1
 be0:	5f74616d 	svcpl	0x0074616d
 be4:	79706f63 	ldmdbvc	r0!, {r0, r1, r5, r6, r8, r9, sl, fp, sp, lr}^
 be8:	49456b00 	stmdbmi	r5, {r8, r9, fp, sp, lr}^
 bec:	52455f47 	subpl	r5, r5, #284	; 0x11c
 bf0:	00524f52 	subseq	r4, r2, r2, asr pc
 bf4:	65726874 	ldrbvs	r6, [r2, #-2164]!	; 0xfffff78c
 bf8:	725f6461 	subsvc	r6, pc, #1627389952	; 0x61000000
 bfc:	72757465 	rsbsvc	r7, r5, #1694498816	; 0x65000000
 c00:	5f5f006e 	svcpl	0x005f006e
 c04:	636f6c63 	cmnvs	pc, #25344	; 0x6300
 c08:	00745f6b 	rsbseq	r5, r4, fp, ror #30
 c0c:	65726874 	ldrbvs	r6, [r2, #-2164]!	; 0xfffff78c
 c10:	5f736461 	svcpl	0x00736461
 c14:	2e72676d 	cdpcs	7, 7, cr6, cr2, cr13, {3}
 c18:	796d0063 	stmdbvc	sp!, {r0, r1, r5, r6}^
 c1c:	6c65645f 	cfstrdvs	mvd6, [r5], #-380	; 0xfffffe84
 c20:	73007961 	movwvc	r7, #2401	; 0x961
 c24:	74726174 	ldrbtvc	r6, [r2], #-372	; 0xfffffe8c
 c28:	7268745f 	rsbvc	r7, r8, #1593835520	; 0x5f000000
 c2c:	00646165 	rsbeq	r6, r4, r5, ror #2
 c30:	72617473 	rsbvc	r7, r1, #1929379840	; 0x73000000
 c34:	6f725f74 	svcvs	0x00725f74
 c38:	6e697475 	mcrvs	4, 3, r7, cr9, cr5, {3}
 c3c:	6e650065 	cdpvs	0, 6, cr0, cr5, cr5, {3}
 c40:	68745f64 	ldmdavs	r4!, {r2, r5, r6, r8, r9, sl, fp, ip, lr}^
 c44:	64616572 	strbtvs	r6, [r1], #-1394	; 0xfffffa8e
 c48:	735f5f00 	cmpvc	pc, #0, 30
 c4c:	00657a69 	rsbeq	r7, r5, r9, ror #20
 c50:	626d656d 	rsbvs	r6, sp, #457179136	; 0x1b400000
 c54:	6b636f6c 	blvs	18dca0c <__bss_end__+0x18b1aa0>
 c58:	66617300 	strbtvs	r7, [r1], -r0, lsl #6
 c5c:	6c615f65 	stclvs	15, cr5, [r1], #-404	; 0xfffffe6c
 c60:	00636f6c 	rsbeq	r6, r3, ip, ror #30
 c64:	6c615f5f 	stclvs	15, cr5, [r1], #-380	; 0xfffffe84
 c68:	006e6769 	rsbeq	r6, lr, r9, ror #14
 c6c:	72747461 	rsbsvc	r7, r4, #1627389952	; 0x61000000
 c70:	68747000 	ldmdavs	r4!, {ip, sp, lr}^
 c74:	64616572 	strbtvs	r6, [r1], #-1394	; 0xfffffa8e
 c78:	7474615f 	ldrbtvc	r6, [r4], #-351	; 0xfffffea1
 c7c:	00745f72 	rsbseq	r5, r4, r2, ror pc
