
mysimu:     format de fichier elf32-littlearm


Déassemblage de la section .interp :

00010154 <.interp>:
   10154:	62696c2f 	rsbvs	r6, r9, #12032	; 0x2f00
   10158:	2d646c2f 	stclcs	12, cr6, [r4, #-188]!	; 0xffffff44
   1015c:	756e696c 	strbvc	r6, [lr, #-2412]!	; 0xfffff694
   10160:	72612d78 	rsbvc	r2, r1, #120, 26	; 0x1e00
   10164:	2e66686d 	cdpcs	8, 6, cr6, cr6, cr13, {3}
   10168:	332e6f73 			; <UNDEFINED> instruction: 0x332e6f73
	...

Déassemblage de la section .note.ABI-tag :

00010170 <.note.ABI-tag>:
   10170:	00000004 	andeq	r0, r0, r4
   10174:	00000010 	andeq	r0, r0, r0, lsl r0
   10178:	00000001 	andeq	r0, r0, r1
   1017c:	00554e47 	subseq	r4, r5, r7, asr #28
   10180:	00000000 	andeq	r0, r0, r0
   10184:	00000003 	andeq	r0, r0, r3
   10188:	00000002 	andeq	r0, r0, r2
   1018c:	00000000 	andeq	r0, r0, r0

Déassemblage de la section .note.gnu.build-id :

00010190 <.note.gnu.build-id>:
   10190:	00000004 	andeq	r0, r0, r4
   10194:	00000014 	andeq	r0, r0, r4, lsl r0
   10198:	00000003 	andeq	r0, r0, r3
   1019c:	00554e47 	subseq	r4, r5, r7, asr #28
   101a0:	5ce6e9fe 			; <UNDEFINED> instruction: 0x5ce6e9fe
   101a4:	697b9c62 	ldmdbvs	fp!, {r1, r5, r6, sl, fp, ip, pc}^
   101a8:	c791c81a 			; <UNDEFINED> instruction: 0xc791c81a
   101ac:	0bba0fff 	bleq	fee941b0 <__bss_end__+0xfee69244>
   101b0:	4771aaac 	ldrbmi	sl, [r1, -ip, lsr #21]!

Déassemblage de la section .gnu.hash :

000101b4 <.gnu.hash>:
   101b4:	00000011 	andeq	r0, r0, r1, lsl r0
   101b8:	00000005 	andeq	r0, r0, r5
   101bc:	00000004 	andeq	r0, r0, r4
   101c0:	00000007 	andeq	r0, r0, r7
   101c4:	02138882 	andseq	r8, r3, #8519680	; 0x820000
   101c8:	37814900 	strcc	r4, [r1, r0, lsl #18]
   101cc:	00032400 	andeq	r2, r3, r0, lsl #8
   101d0:	ae088401 	cdpge	4, 0, cr8, cr8, cr1, {0}
   101d4:	00000000 	andeq	r0, r0, r0
   101d8:	00000005 	andeq	r0, r0, r5
   101dc:	00000000 	andeq	r0, r0, r0
   101e0:	00000007 	andeq	r0, r0, r7
   101e4:	00000009 	andeq	r0, r0, r9
   101e8:	00000000 	andeq	r0, r0, r0
   101ec:	0000000a 	andeq	r0, r0, sl
   101f0:	00000000 	andeq	r0, r0, r0
   101f4:	0000000c 	andeq	r0, r0, ip
   101f8:	0000000e 	andeq	r0, r0, lr
	...
   10204:	00000010 	andeq	r0, r0, r0, lsl r0
   10208:	00000011 	andeq	r0, r0, r1, lsl r0
   1020c:	00000013 	andeq	r0, r0, r3, lsl r0
   10210:	00000015 	andeq	r0, r0, r5, lsl r0
   10214:	00000018 	andeq	r0, r0, r8, lsl r0
   10218:	0f3b9850 	svceq	0x003b9850
   1021c:	0d82b831 	stceq	8, cr11, [r2, #196]	; 0xc4
   10220:	7c96f086 	ldcvc	0, cr15, [r6], {134}	; 0x86
   10224:	0f11ed7d 	svceq	0x0011ed7d
   10228:	7c96dc8b 	ldcvc	12, cr13, [r6], {139}	; 0x8b
   1022c:	7c9e7894 	ldcvc	8, cr7, [lr], {148}	; 0x94
   10230:	f63d4e2f 			; <UNDEFINED> instruction: 0xf63d4e2f
   10234:	bad299e0 	blt	ff4b69bc <__bss_end__+0xff48ba50>
   10238:	7c9e0eef 	ldcvc	14, cr0, [lr], {239}	; 0xef
   1023c:	0b88aa0e 	bleq	fe23aa7c <__bss_end__+0xfe20fb10>
   10240:	0b8866cb 	bleq	fe229d74 <__bss_end__+0xfe1fee08>
   10244:	05d4073d 	ldrbeq	r0, [r4, #1853]	; 0x73d
   10248:	0d827590 	cfstr32eq	mvfx7, [r2, #576]	; 0x240
   1024c:	1060307d 	rsbne	r3, r0, sp, ror r0
   10250:	1484ecfe 	strne	lr, [r4], #3326	; 0xcfe
   10254:	7c93f42b 	cfldrsvc	mvf15, [r3], {43}	; 0x2b
   10258:	156b2bb8 	strbne	r2, [fp, #-3000]!	; 0xfffff448
   1025c:	0d39ad3c 	ldceq	13, cr10, [r9, #-240]!	; 0xffffff10
   10260:	7c9d3deb 	ldcvc	13, cr3, [sp], {235}	; 0xeb
   10264:	1044e839 	subne	lr, r4, r9, lsr r8

Déassemblage de la section .dynsym :

00010268 <.dynsym>:
	...
   10278:	0000000b 	andeq	r0, r0, fp
	...
   10284:	00000020 	andeq	r0, r0, r0, lsr #32
   10288:	00000027 	andeq	r0, r0, r7, lsr #32
	...
   10294:	00000020 	andeq	r0, r0, r0, lsr #32
   10298:	00000036 	andeq	r0, r0, r6, lsr r0
	...
   102a4:	00000020 	andeq	r0, r0, r0, lsr #32
   102a8:	0000004a 	andeq	r0, r0, sl, asr #32
	...
   102b4:	00000020 	andeq	r0, r0, r0, lsr #32
   102b8:	000000c5 	andeq	r0, r0, r5, asr #1
	...
   102c4:	00000012 	andeq	r0, r0, r2, lsl r0
   102c8:	000000d8 	ldrdeq	r0, [r0], -r8
	...
   102d4:	00000012 	andeq	r0, r0, r2, lsl r0
   102d8:	000000ff 	strdeq	r0, [r0], -pc	; <UNPREDICTABLE>
	...
   102e4:	00000012 	andeq	r0, r0, r2, lsl r0
   102e8:	000000cb 	andeq	r0, r0, fp, asr #1
	...
   102f4:	00000012 	andeq	r0, r0, r2, lsl r0
   102f8:	00000072 	andeq	r0, r0, r2, ror r0
	...
   10304:	00000012 	andeq	r0, r0, r2, lsl r0
   10308:	000000c0 	andeq	r0, r0, r0, asr #1
	...
   10314:	00000012 	andeq	r0, r0, r2, lsl r0
   10318:	000000ed 	andeq	r0, r0, sp, ror #1
	...
   10324:	00000012 	andeq	r0, r0, r2, lsl r0
   10328:	00000094 	muleq	r0, r4, r0
	...
   10334:	00000012 	andeq	r0, r0, r2, lsl r0
   10338:	00000069 	andeq	r0, r0, r9, rrx
	...
   10344:	00000012 	andeq	r0, r0, r2, lsl r0
   10348:	0000006e 	andeq	r0, r0, lr, rrx
	...
   10354:	00000012 	andeq	r0, r0, r2, lsl r0
   10358:	00000065 	andeq	r0, r0, r5, rrx
	...
   10364:	00000012 	andeq	r0, r0, r2, lsl r0
   10368:	00000087 	andeq	r0, r0, r7, lsl #1
	...
   10374:	00000012 	andeq	r0, r0, r2, lsl r0
   10378:	000000df 	ldrdeq	r0, [r0], -pc	; <UNPREDICTABLE>
	...
   10384:	00000012 	andeq	r0, r0, r2, lsl r0
   10388:	000000b3 	strheq	r0, [r0], -r3
	...
   10394:	00000012 	andeq	r0, r0, r2, lsl r0
   10398:	000000b9 	strheq	r0, [r0], -r9
	...
   103a4:	00000012 	andeq	r0, r0, r2, lsl r0
   103a8:	00000064 	andeq	r0, r0, r4, rrx
	...
   103b4:	00000012 	andeq	r0, r0, r2, lsl r0
   103b8:	000000d1 	ldrdeq	r0, [r0], -r1
	...
   103c4:	00000012 	andeq	r0, r0, r2, lsl r0
   103c8:	000000e6 	andeq	r0, r0, r6, ror #1
	...
   103d4:	00000012 	andeq	r0, r0, r2, lsl r0
   103d8:	000000b4 	strheq	r0, [r0], -r4
	...
   103e4:	00000012 	andeq	r0, r0, r2, lsl r0
   103e8:	000000a3 	andeq	r0, r0, r3, lsr #1
	...
   103f4:	00000012 	andeq	r0, r0, r2, lsl r0

Déassemblage de la section .dynstr :

000103f8 <.dynstr>:
   103f8:	62696c00 	rsbvs	r6, r9, #0, 24
   103fc:	6f732e6d 	svcvs	0x00732e6d
   10400:	5f00362e 	svcpl	0x0000362e
   10404:	5f4d5449 	svcpl	0x004d5449
   10408:	65726564 	ldrbvs	r6, [r2, #-1380]!	; 0xfffffa9c
   1040c:	74736967 	ldrbtvc	r6, [r3], #-2407	; 0xfffff699
   10410:	4d547265 	lfmmi	f7, 2, [r4, #-404]	; 0xfffffe6c
   10414:	6e6f6c43 	cdpvs	12, 6, cr6, cr15, cr3, {2}
   10418:	62615465 	rsbvs	r5, r1, #1694498816	; 0x65000000
   1041c:	5f00656c 	svcpl	0x0000656c
   10420:	6f6d675f 	svcvs	0x006d675f
   10424:	74735f6e 	ldrbtvc	r5, [r3], #-3950	; 0xfffff092
   10428:	5f747261 	svcpl	0x00747261
   1042c:	4a5f005f 	bmi	17d05b0 <__bss_end__+0x17a5644>
   10430:	65525f76 	ldrbvs	r5, [r2, #-3958]	; 0xfffff08a
   10434:	74736967 	ldrbtvc	r6, [r3], #-2407	; 0xfffff699
   10438:	6c437265 	sfmvs	f7, 2, [r3], {101}	; 0x65
   1043c:	65737361 	ldrbvs	r7, [r3, #-865]!	; 0xfffffc9f
   10440:	495f0073 	ldmdbmi	pc, {r0, r1, r4, r5, r6}^	; <UNPREDICTABLE>
   10444:	725f4d54 	subsvc	r4, pc, #84, 26	; 0x1500
   10448:	73696765 	cmnvc	r9, #26476544	; 0x1940000
   1044c:	54726574 	ldrbtpl	r6, [r2], #-1396	; 0xfffffa8c
   10450:	6f6c434d 	svcvs	0x006c434d
   10454:	6154656e 	cmpvs	r4, lr, ror #10
   10458:	00656c62 	rsbeq	r6, r5, r2, ror #24
   1045c:	736f6361 	cmnvc	pc, #-2080374783	; 0x84000001
   10460:	72717300 	rsbsvc	r7, r1, #0, 6
   10464:	69730074 	ldmdbvs	r3!, {r2, r4, r5, r6}^
   10468:	6d66006e 	stclvs	0, cr0, [r6, #-440]!	; 0xfffffe48
   1046c:	6c00646f 	cfstrsvs	mvf6, [r0], {111}	; 0x6f
   10470:	74706269 	ldrbtvc	r6, [r0], #-617	; 0xfffffd97
   10474:	61657268 	cmnvs	r5, r8, ror #4
   10478:	6f732e64 	svcvs	0x00732e64
   1047c:	7000302e 	andvc	r3, r0, lr, lsr #32
   10480:	65726874 	ldrbvs	r6, [r2, #-2164]!	; 0xfffff78c
   10484:	6a5f6461 	bvs	17e9610 <__bss_end__+0x17be6a4>
   10488:	006e696f 	rsbeq	r6, lr, pc, ror #18
   1048c:	72687470 	rsbvc	r7, r8, #112, 8	; 0x70000000
   10490:	5f646165 	svcpl	0x00646165
   10494:	61657263 	cmnvs	r5, r3, ror #4
   10498:	72006574 	andvc	r6, r0, #116, 10	; 0x1d000000
   1049c:	65736961 	ldrbvs	r6, [r3, #-2401]!	; 0xfffff69f
   104a0:	62696c00 	rsbvs	r6, r9, #0, 24
   104a4:	6f732e63 	svcvs	0x00732e63
   104a8:	7300362e 	movwvc	r3, #1582	; 0x62e
   104ac:	646e6172 	strbtvs	r6, [lr], #-370	; 0xfffffe8e
   104b0:	72657000 	rsbvc	r7, r5, #0
   104b4:	00726f72 	rsbseq	r6, r2, r2, ror pc
   104b8:	656d6974 	strbvs	r6, [sp, #-2420]!	; 0xfffff68c
   104bc:	6f6c6300 	svcvs	0x006c6300
   104c0:	61006b63 	tstvs	r0, r3, ror #22
   104c4:	74726f62 	ldrbtvc	r6, [r2], #-3938	; 0xfffff09e
   104c8:	69727000 	ldmdbvs	r2!, {ip, sp, lr}^
   104cc:	0066746e 	rsbeq	r7, r6, lr, ror #8
   104d0:	736d656d 	cmnvc	sp, #457179136	; 0x1b400000
   104d4:	6d007465 	cfstrsvs	mvf7, [r0, #-404]	; 0xfffffe6c
   104d8:	70636d65 	rsbvc	r6, r3, r5, ror #26
   104dc:	616d0079 	smcvs	53257	; 0xd009
   104e0:	636f6c6c 	cmnvs	pc, #108, 24	; 0x6c00
   104e4:	6c5f5f00 	mrrcvs	15, 0, r5, pc, cr0	; <UNPREDICTABLE>
   104e8:	5f636269 	svcpl	0x00636269
   104ec:	72617473 	rsbvc	r7, r1, #1929379840	; 0x73000000
   104f0:	616d5f74 	smcvs	54772	; 0xd5f4
   104f4:	66006e69 	strvs	r6, [r0], -r9, ror #28
   104f8:	00656572 	rsbeq	r6, r5, r2, ror r5
   104fc:	42494c47 	submi	r4, r9, #18176	; 0x4700
   10500:	2e325f43 	cdpcs	15, 3, cr5, cr2, cr3, {2}
   10504:	Adresse 0x00010504 hors intervalle.


Déassemblage de la section .gnu.version :

00010506 <.gnu.version>:
	...
   1050e:	00030000 	andeq	r0, r3, r0
   10512:	00030003 	andeq	r0, r3, r3
   10516:	00040003 	andeq	r0, r4, r3
   1051a:	00030003 	andeq	r0, r3, r3
   1051e:	00040002 	andeq	r0, r4, r2
   10522:	00040004 	andeq	r0, r4, r4
   10526:	00030002 	andeq	r0, r3, r2
   1052a:	00030003 	andeq	r0, r3, r3
   1052e:	00030004 	andeq	r0, r3, r4
   10532:	00030003 	andeq	r0, r3, r3
   10536:	Adresse 0x00010536 hors intervalle.


Déassemblage de la section .gnu.version_r :

00010538 <.gnu.version_r>:
   10538:	00010001 	andeq	r0, r1, r1
   1053c:	00000001 	andeq	r0, r0, r1
   10540:	00000010 	andeq	r0, r0, r0, lsl r0
   10544:	00000020 	andeq	r0, r0, r0, lsr #32
   10548:	0d696914 			; <UNDEFINED> instruction: 0x0d696914
   1054c:	00040000 	andeq	r0, r4, r0
   10550:	00000104 	andeq	r0, r0, r4, lsl #2
   10554:	00000000 	andeq	r0, r0, r0
   10558:	00010001 	andeq	r0, r1, r1
   1055c:	000000a9 	andeq	r0, r0, r9, lsr #1
   10560:	00000010 	andeq	r0, r0, r0, lsl r0
   10564:	00000020 	andeq	r0, r0, r0, lsr #32
   10568:	0d696914 			; <UNDEFINED> instruction: 0x0d696914
   1056c:	00030000 	andeq	r0, r3, r0
   10570:	00000104 	andeq	r0, r0, r4, lsl #2
   10574:	00000000 	andeq	r0, r0, r0
   10578:	00010001 	andeq	r0, r1, r1
   1057c:	00000077 	andeq	r0, r0, r7, ror r0
   10580:	00000010 	andeq	r0, r0, r0, lsl r0
   10584:	00000000 	andeq	r0, r0, r0
   10588:	0d696914 			; <UNDEFINED> instruction: 0x0d696914
   1058c:	00020000 	andeq	r0, r2, r0
   10590:	00000104 	andeq	r0, r0, r4, lsl #2
   10594:	00000000 	andeq	r0, r0, r0

Déassemblage de la section .rel.dyn :

00010598 <.rel.dyn>:
   10598:	00027060 	andeq	r7, r2, r0, rrx
   1059c:	00000215 	andeq	r0, r0, r5, lsl r2

Déassemblage de la section .rel.plt :

000105a0 <.rel.plt>:
   105a0:	0002700c 	andeq	r7, r2, ip
   105a4:	00001816 	andeq	r1, r0, r6, lsl r8
   105a8:	00027010 	andeq	r7, r2, r0, lsl r0
   105ac:	00001516 	andeq	r1, r0, r6, lsl r5
   105b0:	00027014 	andeq	r7, r2, r4, lsl r0
   105b4:	00000716 	andeq	r0, r0, r6, lsl r7
   105b8:	00027018 	andeq	r7, r2, r8, lsl r0
   105bc:	00001116 	andeq	r1, r0, r6, lsl r1
   105c0:	0002701c 	andeq	r7, r2, ip, lsl r0
   105c4:	00000a16 	andeq	r0, r0, r6, lsl sl
   105c8:	00027020 	andeq	r7, r2, r0, lsr #32
   105cc:	00001316 	andeq	r1, r0, r6, lsl r3
   105d0:	00027024 	andeq	r7, r2, r4, lsr #32
   105d4:	00000c16 	andeq	r0, r0, r6, lsl ip
   105d8:	00027028 	andeq	r7, r2, r8, lsr #32
   105dc:	00001416 	andeq	r1, r0, r6, lsl r4
   105e0:	0002702c 	andeq	r7, r2, ip, lsr #32
   105e4:	00001616 	andeq	r1, r0, r6, lsl r6
   105e8:	00027030 	andeq	r7, r2, r0, lsr r0
   105ec:	00000b16 	andeq	r0, r0, r6, lsl fp
   105f0:	00027034 	andeq	r7, r2, r4, lsr r0
   105f4:	00000216 	andeq	r0, r0, r6, lsl r2
   105f8:	00027038 	andeq	r7, r2, r8, lsr r0
   105fc:	00000516 	andeq	r0, r0, r6, lsl r5
   10600:	0002703c 	andeq	r7, r2, ip, lsr r0
   10604:	00000e16 	andeq	r0, r0, r6, lsl lr
   10608:	00027040 	andeq	r7, r2, r0, asr #32
   1060c:	00001216 	andeq	r1, r0, r6, lsl r2
   10610:	00027044 	andeq	r7, r2, r4, asr #32
   10614:	00000d16 	andeq	r0, r0, r6, lsl sp
   10618:	00027048 	andeq	r7, r2, r8, asr #32
   1061c:	00000616 	andeq	r0, r0, r6, lsl r6
   10620:	0002704c 	andeq	r7, r2, ip, asr #32
   10624:	00001716 	andeq	r1, r0, r6, lsl r7
   10628:	00027050 	andeq	r7, r2, r0, asr r0
   1062c:	00001016 	andeq	r1, r0, r6, lsl r0
   10630:	00027054 	andeq	r7, r2, r4, asr r0
   10634:	00000916 	andeq	r0, r0, r6, lsl r9
   10638:	00027058 	andeq	r7, r2, r8, asr r0
   1063c:	00000816 	andeq	r0, r0, r6, lsl r8
   10640:	0002705c 	andeq	r7, r2, ip, asr r0
   10644:	00000f16 	andeq	r0, r0, r6, lsl pc

Déassemblage de la section .init :

00010648 <_init>:
   10648:	e92d4008 	push	{r3, lr}
   1064c:	eb000054 	bl	107a4 <call_weak_fn>
   10650:	e8bd8008 	pop	{r3, pc}

Déassemblage de la section .plt :

00010654 <.plt>:
   10654:	e52de004 	push	{lr}		; (str lr, [sp, #-4]!)
   10658:	e59fe004 	ldr	lr, [pc, #4]	; 10664 <.plt+0x10>
   1065c:	e08fe00e 	add	lr, pc, lr
   10660:	e5bef008 	ldr	pc, [lr, #8]!
   10664:	0001699c 	muleq	r1, ip, r9

00010668 <raise@plt>:
   10668:	e28fc600 	add	ip, pc, #0, 12
   1066c:	e28cca16 	add	ip, ip, #90112	; 0x16000
   10670:	e5bcf99c 	ldr	pc, [ip, #2460]!	; 0x99c

00010674 <printf@plt>:
   10674:	e28fc600 	add	ip, pc, #0, 12
   10678:	e28cca16 	add	ip, ip, #90112	; 0x16000
   1067c:	e5bcf994 	ldr	pc, [ip, #2452]!	; 0x994

00010680 <free@plt>:
   10680:	e28fc600 	add	ip, pc, #0, 12
   10684:	e28cca16 	add	ip, ip, #90112	; 0x16000
   10688:	e5bcf98c 	ldr	pc, [ip, #2444]!	; 0x98c

0001068c <memcpy@plt>:
   1068c:	e28fc600 	add	ip, pc, #0, 12
   10690:	e28cca16 	add	ip, ip, #90112	; 0x16000
   10694:	e5bcf984 	ldr	pc, [ip, #2436]!	; 0x984

00010698 <time@plt>:
   10698:	e28fc600 	add	ip, pc, #0, 12
   1069c:	e28cca16 	add	ip, ip, #90112	; 0x16000
   106a0:	e5bcf97c 	ldr	pc, [ip, #2428]!	; 0x97c

000106a4 <perror@plt>:
   106a4:	e28fc600 	add	ip, pc, #0, 12
   106a8:	e28cca16 	add	ip, ip, #90112	; 0x16000
   106ac:	e5bcf974 	ldr	pc, [ip, #2420]!	; 0x974

000106b0 <pthread_create@plt>:
   106b0:	e28fc600 	add	ip, pc, #0, 12
   106b4:	e28cca16 	add	ip, ip, #90112	; 0x16000
   106b8:	e5bcf96c 	ldr	pc, [ip, #2412]!	; 0x96c

000106bc <acos@plt>:
   106bc:	e28fc600 	add	ip, pc, #0, 12
   106c0:	e28cca16 	add	ip, ip, #90112	; 0x16000
   106c4:	e5bcf964 	ldr	pc, [ip, #2404]!	; 0x964

000106c8 <malloc@plt>:
   106c8:	e28fc600 	add	ip, pc, #0, 12
   106cc:	e28cca16 	add	ip, ip, #90112	; 0x16000
   106d0:	e5bcf95c 	ldr	pc, [ip, #2396]!	; 0x95c

000106d4 <__libc_start_main@plt>:
   106d4:	e28fc600 	add	ip, pc, #0, 12
   106d8:	e28cca16 	add	ip, ip, #90112	; 0x16000
   106dc:	e5bcf954 	ldr	pc, [ip, #2388]!	; 0x954

000106e0 <__gmon_start__@plt>:
   106e0:	e28fc600 	add	ip, pc, #0, 12
   106e4:	e28cca16 	add	ip, ip, #90112	; 0x16000
   106e8:	e5bcf94c 	ldr	pc, [ip, #2380]!	; 0x94c

000106ec <clock@plt>:
   106ec:	e28fc600 	add	ip, pc, #0, 12
   106f0:	e28cca16 	add	ip, ip, #90112	; 0x16000
   106f4:	e5bcf944 	ldr	pc, [ip, #2372]!	; 0x944

000106f8 <sin@plt>:
   106f8:	e28fc600 	add	ip, pc, #0, 12
   106fc:	e28cca16 	add	ip, ip, #90112	; 0x16000
   10700:	e5bcf93c 	ldr	pc, [ip, #2364]!	; 0x93c

00010704 <srand@plt>:
   10704:	e28fc600 	add	ip, pc, #0, 12
   10708:	e28cca16 	add	ip, ip, #90112	; 0x16000
   1070c:	e5bcf934 	ldr	pc, [ip, #2356]!	; 0x934

00010710 <sqrt@plt>:
   10710:	e28fc600 	add	ip, pc, #0, 12
   10714:	e28cca16 	add	ip, ip, #90112	; 0x16000
   10718:	e5bcf92c 	ldr	pc, [ip, #2348]!	; 0x92c

0001071c <memset@plt>:
   1071c:	e28fc600 	add	ip, pc, #0, 12
   10720:	e28cca16 	add	ip, ip, #90112	; 0x16000
   10724:	e5bcf924 	ldr	pc, [ip, #2340]!	; 0x924

00010728 <rand@plt>:
   10728:	e28fc600 	add	ip, pc, #0, 12
   1072c:	e28cca16 	add	ip, ip, #90112	; 0x16000
   10730:	e5bcf91c 	ldr	pc, [ip, #2332]!	; 0x91c

00010734 <pthread_join@plt>:
   10734:	e28fc600 	add	ip, pc, #0, 12
   10738:	e28cca16 	add	ip, ip, #90112	; 0x16000
   1073c:	e5bcf914 	ldr	pc, [ip, #2324]!	; 0x914

00010740 <fmod@plt>:
   10740:	e28fc600 	add	ip, pc, #0, 12
   10744:	e28cca16 	add	ip, ip, #90112	; 0x16000
   10748:	e5bcf90c 	ldr	pc, [ip, #2316]!	; 0x90c

0001074c <abort@plt>:
   1074c:	e28fc600 	add	ip, pc, #0, 12
   10750:	e28cca16 	add	ip, ip, #90112	; 0x16000
   10754:	e5bcf904 	ldr	pc, [ip, #2308]!	; 0x904

00010758 <cos@plt>:
   10758:	e28fc600 	add	ip, pc, #0, 12
   1075c:	e28cca16 	add	ip, ip, #90112	; 0x16000
   10760:	e5bcf8fc 	ldr	pc, [ip, #2300]!	; 0x8fc

Déassemblage de la section .text :

00010768 <_start>:
   10768:	e3a0b000 	mov	fp, #0
   1076c:	e3a0e000 	mov	lr, #0
   10770:	e49d1004 	pop	{r1}		; (ldr r1, [sp], #4)
   10774:	e1a0200d 	mov	r2, sp
   10778:	e52d2004 	push	{r2}		; (str r2, [sp, #-4]!)
   1077c:	e52d0004 	push	{r0}		; (str r0, [sp, #-4]!)
   10780:	e59fc010 	ldr	ip, [pc, #16]	; 10798 <_start+0x30>
   10784:	e52dc004 	push	{ip}		; (str ip, [sp, #-4]!)
   10788:	e59f000c 	ldr	r0, [pc, #12]	; 1079c <_start+0x34>
   1078c:	e59f300c 	ldr	r3, [pc, #12]	; 107a0 <_start+0x38>
   10790:	ebffffcf 	bl	106d4 <__libc_start_main@plt>
   10794:	ebffffec 	bl	1074c <abort@plt>
   10798:	00016548 	andeq	r6, r1, r8, asr #10
   1079c:	00010890 	muleq	r1, r0, r8
   107a0:	000164e8 	andeq	r6, r1, r8, ror #9

000107a4 <call_weak_fn>:
   107a4:	e59f3014 	ldr	r3, [pc, #20]	; 107c0 <call_weak_fn+0x1c>
   107a8:	e59f2014 	ldr	r2, [pc, #20]	; 107c4 <call_weak_fn+0x20>
   107ac:	e08f3003 	add	r3, pc, r3
   107b0:	e7932002 	ldr	r2, [r3, r2]
   107b4:	e3520000 	cmp	r2, #0
   107b8:	012fff1e 	bxeq	lr
   107bc:	eaffffc7 	b	106e0 <__gmon_start__@plt>
   107c0:	0001684c 	andeq	r6, r1, ip, asr #16
   107c4:	00000060 	andeq	r0, r0, r0, rrx

000107c8 <deregister_tm_clones>:
   107c8:	e59f301c 	ldr	r3, [pc, #28]	; 107ec <deregister_tm_clones+0x24>
   107cc:	e59f001c 	ldr	r0, [pc, #28]	; 107f0 <deregister_tm_clones+0x28>
   107d0:	e0433000 	sub	r3, r3, r0
   107d4:	e3530006 	cmp	r3, #6
   107d8:	912fff1e 	bxls	lr
   107dc:	e59f3010 	ldr	r3, [pc, #16]	; 107f4 <deregister_tm_clones+0x2c>
   107e0:	e3530000 	cmp	r3, #0
   107e4:	012fff1e 	bxeq	lr
   107e8:	e12fff13 	bx	r3
   107ec:	00027087 	andeq	r7, r2, r7, lsl #1
   107f0:	00027084 	andeq	r7, r2, r4, lsl #1
   107f4:	00000000 	andeq	r0, r0, r0

000107f8 <register_tm_clones>:
   107f8:	e59f1024 	ldr	r1, [pc, #36]	; 10824 <register_tm_clones+0x2c>
   107fc:	e59f0024 	ldr	r0, [pc, #36]	; 10828 <register_tm_clones+0x30>
   10800:	e0411000 	sub	r1, r1, r0
   10804:	e1a01141 	asr	r1, r1, #2
   10808:	e0811fa1 	add	r1, r1, r1, lsr #31
   1080c:	e1b010c1 	asrs	r1, r1, #1
   10810:	012fff1e 	bxeq	lr
   10814:	e59f3010 	ldr	r3, [pc, #16]	; 1082c <register_tm_clones+0x34>
   10818:	e3530000 	cmp	r3, #0
   1081c:	012fff1e 	bxeq	lr
   10820:	e12fff13 	bx	r3
   10824:	00027084 	andeq	r7, r2, r4, lsl #1
   10828:	00027084 	andeq	r7, r2, r4, lsl #1
   1082c:	00000000 	andeq	r0, r0, r0

00010830 <__do_global_dtors_aux>:
   10830:	e92d4010 	push	{r4, lr}
   10834:	e59f4018 	ldr	r4, [pc, #24]	; 10854 <__do_global_dtors_aux+0x24>
   10838:	e5d43000 	ldrb	r3, [r4]
   1083c:	e3530000 	cmp	r3, #0
   10840:	18bd8010 	popne	{r4, pc}
   10844:	ebffffdf 	bl	107c8 <deregister_tm_clones>
   10848:	e3a03001 	mov	r3, #1
   1084c:	e5c43000 	strb	r3, [r4]
   10850:	e8bd8010 	pop	{r4, pc}
   10854:	00027088 	andeq	r7, r2, r8, lsl #1

00010858 <frame_dummy>:
   10858:	e59f0028 	ldr	r0, [pc, #40]	; 10888 <frame_dummy+0x30>
   1085c:	e5903000 	ldr	r3, [r0]
   10860:	e3530000 	cmp	r3, #0
   10864:	1a000000 	bne	1086c <frame_dummy+0x14>
   10868:	eaffffe2 	b	107f8 <register_tm_clones>
   1086c:	e59f3018 	ldr	r3, [pc, #24]	; 1088c <frame_dummy+0x34>
   10870:	e3530000 	cmp	r3, #0
   10874:	0afffffb 	beq	10868 <frame_dummy+0x10>
   10878:	e92d4010 	push	{r4, lr}
   1087c:	e12fff33 	blx	r3
   10880:	e8bd4010 	pop	{r4, lr}
   10884:	eaffffdb 	b	107f8 <register_tm_clones>
   10888:	00026f04 	andeq	r6, r2, r4, lsl #30
   1088c:	00000000 	andeq	r0, r0, r0

00010890 <main>:
   10890:	e92d4800 	push	{fp, lr}
   10894:	e28db004 	add	fp, sp, #4
   10898:	e24dd0e0 	sub	sp, sp, #224	; 0xe0
   1089c:	e3a03000 	mov	r3, #0
   108a0:	e54b3044 	strb	r3, [fp, #-68]	; 0xffffffbc
   108a4:	e59f2148 	ldr	r2, [pc, #328]	; 109f4 <main+0x164>
   108a8:	e24b308c 	sub	r3, fp, #140	; 0x8c
   108ac:	e1a01002 	mov	r1, r2
   108b0:	e3a02048 	mov	r2, #72	; 0x48
   108b4:	e1a00003 	mov	r0, r3
   108b8:	ebffff73 	bl	1068c <memcpy@plt>
   108bc:	e3a03003 	mov	r3, #3
   108c0:	e50b3098 	str	r3, [fp, #-152]	; 0xffffff68
   108c4:	e3a03003 	mov	r3, #3
   108c8:	e50b3094 	str	r3, [fp, #-148]	; 0xffffff6c
   108cc:	e24b308c 	sub	r3, fp, #140	; 0x8c
   108d0:	e50b3090 	str	r3, [fp, #-144]	; 0xffffff70
   108d4:	e3a03000 	mov	r3, #0
   108d8:	e50b30a4 	str	r3, [fp, #-164]	; 0xffffff5c
   108dc:	e3a03000 	mov	r3, #0
   108e0:	e50b30a0 	str	r3, [fp, #-160]	; 0xffffff60
   108e4:	e3a03000 	mov	r3, #0
   108e8:	e54b309c 	strb	r3, [fp, #-156]	; 0xffffff64
   108ec:	e3a03000 	mov	r3, #0
   108f0:	e50b30b0 	str	r3, [fp, #-176]	; 0xffffff50
   108f4:	e3a03000 	mov	r3, #0
   108f8:	e50b30ac 	str	r3, [fp, #-172]	; 0xffffff54
   108fc:	e3a03000 	mov	r3, #0
   10900:	e54b30a8 	strb	r3, [fp, #-168]	; 0xffffff58
   10904:	e3a03000 	mov	r3, #0
   10908:	e50b30bc 	str	r3, [fp, #-188]	; 0xffffff44
   1090c:	e3a03000 	mov	r3, #0
   10910:	e50b30b8 	str	r3, [fp, #-184]	; 0xffffff48
   10914:	e3a03000 	mov	r3, #0
   10918:	e54b30b4 	strb	r3, [fp, #-180]	; 0xffffff4c
   1091c:	e3a03000 	mov	r3, #0
   10920:	e50b3040 	str	r3, [fp, #-64]	; 0xffffffc0
   10924:	e3a03000 	mov	r3, #0
   10928:	e50b303c 	str	r3, [fp, #-60]	; 0xffffffc4
   1092c:	e3a03001 	mov	r3, #1
   10930:	e54b3038 	strb	r3, [fp, #-56]	; 0xffffffc8
   10934:	e3a03000 	mov	r3, #0
   10938:	e50b3034 	str	r3, [fp, #-52]	; 0xffffffcc
   1093c:	e3a03000 	mov	r3, #0
   10940:	e50b3030 	str	r3, [fp, #-48]	; 0xffffffd0
   10944:	e3a03000 	mov	r3, #0
   10948:	e50b3028 	str	r3, [fp, #-40]	; 0xffffffd8
   1094c:	e3a03000 	mov	r3, #0
   10950:	e50b3024 	str	r3, [fp, #-36]	; 0xffffffdc
   10954:	e3a02000 	mov	r2, #0
   10958:	e3a03000 	mov	r3, #0
   1095c:	e14b2ef4 	strd	r2, [fp, #-228]	; 0xffffff1c
   10960:	e3a02000 	mov	r2, #0
   10964:	e3a03000 	mov	r3, #0
   10968:	e14b2dfc 	strd	r2, [fp, #-220]	; 0xffffff24
   1096c:	e3a03000 	mov	r3, #0
   10970:	e50b30d4 	str	r3, [fp, #-212]	; 0xffffff2c
   10974:	e3a03000 	mov	r3, #0
   10978:	e50b30d0 	str	r3, [fp, #-208]	; 0xffffff30
   1097c:	e3a03000 	mov	r3, #0
   10980:	e50b30cc 	str	r3, [fp, #-204]	; 0xffffff34
   10984:	e3a03000 	mov	r3, #0
   10988:	e50b30c8 	str	r3, [fp, #-200]	; 0xffffff38
   1098c:	e3a03001 	mov	r3, #1
   10990:	e54b30c4 	strb	r3, [fp, #-196]	; 0xffffff3c
   10994:	e24b30e4 	sub	r3, fp, #228	; 0xe4
   10998:	e50b3010 	str	r3, [fp, #-16]
   1099c:	e3a03000 	mov	r3, #0
   109a0:	e50b3008 	str	r3, [fp, #-8]
   109a4:	ea00000b 	b	109d8 <main+0x148>
   109a8:	e24b3044 	sub	r3, fp, #68	; 0x44
   109ac:	e24b000c 	sub	r0, fp, #12
   109b0:	e59f2040 	ldr	r2, [pc, #64]	; 109f8 <main+0x168>
   109b4:	e3a01000 	mov	r1, #0
   109b8:	eb0015fa 	bl	161a8 <start_thread>
   109bc:	e51b300c 	ldr	r3, [fp, #-12]
   109c0:	e3a01000 	mov	r1, #0
   109c4:	e1a00003 	mov	r0, r3
   109c8:	eb00160d 	bl	16204 <end_thread>
   109cc:	e51b3008 	ldr	r3, [fp, #-8]
   109d0:	e2833001 	add	r3, r3, #1
   109d4:	e50b3008 	str	r3, [fp, #-8]
   109d8:	e51b3008 	ldr	r3, [fp, #-8]
   109dc:	e3530013 	cmp	r3, #19
   109e0:	dafffff0 	ble	109a8 <main+0x118>
   109e4:	e3a03000 	mov	r3, #0
   109e8:	e1a00003 	mov	r0, r3
   109ec:	e24bd004 	sub	sp, fp, #4
   109f0:	e8bd8800 	pop	{fp, pc}
   109f4:	00016560 	andeq	r6, r1, r0, ror #10
   109f8:	00014c88 	andeq	r4, r1, r8, lsl #25

000109fc <get_error_vector>:
   109fc:	e92d4800 	push	{fp, lr}
   10a00:	e28db004 	add	fp, sp, #4
   10a04:	e24dd050 	sub	sp, sp, #80	; 0x50
   10a08:	eeb05a40 	vmov.f32	s10, s0
   10a0c:	eef05a60 	vmov.f32	s11, s1
   10a10:	eeb06a41 	vmov.f32	s12, s2
   10a14:	eef06a61 	vmov.f32	s13, s3
   10a18:	eeb07a42 	vmov.f32	s14, s4
   10a1c:	eef07a62 	vmov.f32	s15, s5
   10a20:	e50b0050 	str	r0, [fp, #-80]	; 0xffffffb0
   10a24:	ed0b5a10 	vstr	s10, [fp, #-64]	; 0xffffffc0
   10a28:	ed4b5a0f 	vstr	s11, [fp, #-60]	; 0xffffffc4
   10a2c:	ed0b6a0e 	vstr	s12, [fp, #-56]	; 0xffffffc8
   10a30:	ed4b6a13 	vstr	s13, [fp, #-76]	; 0xffffffb4
   10a34:	ed0b7a12 	vstr	s14, [fp, #-72]	; 0xffffffb8
   10a38:	ed4b7a11 	vstr	s15, [fp, #-68]	; 0xffffffbc
   10a3c:	e24b3034 	sub	r3, fp, #52	; 0x34
   10a40:	e3a02024 	mov	r2, #36	; 0x24
   10a44:	e3a01000 	mov	r1, #0
   10a48:	e1a00003 	mov	r0, r3
   10a4c:	ebffff32 	bl	1071c <memset@plt>
   10a50:	ed5b7a0e 	vldr	s15, [fp, #-56]	; 0xffffffc8
   10a54:	eeb77ae7 	vcvt.f64.f32	d7, s15
   10a58:	eeb00b47 	vmov.f64	d0, d7
   10a5c:	ebffff3d 	bl	10758 <cos@plt>
   10a60:	eeb07b40 	vmov.f64	d7, d0
   10a64:	eef77bc7 	vcvt.f32.f64	s15, d7
   10a68:	ed4b7a0d 	vstr	s15, [fp, #-52]	; 0xffffffcc
   10a6c:	ed5b7a0e 	vldr	s15, [fp, #-56]	; 0xffffffc8
   10a70:	eeb77ae7 	vcvt.f64.f32	d7, s15
   10a74:	eeb00b47 	vmov.f64	d0, d7
   10a78:	ebffff1e 	bl	106f8 <sin@plt>
   10a7c:	eeb07b40 	vmov.f64	d7, d0
   10a80:	eef77bc7 	vcvt.f32.f64	s15, d7
   10a84:	ed4b7a0c 	vstr	s15, [fp, #-48]	; 0xffffffd0
   10a88:	ed5b7a0e 	vldr	s15, [fp, #-56]	; 0xffffffc8
   10a8c:	eeb77ae7 	vcvt.f64.f32	d7, s15
   10a90:	eeb00b47 	vmov.f64	d0, d7
   10a94:	ebffff17 	bl	106f8 <sin@plt>
   10a98:	eeb07b40 	vmov.f64	d7, d0
   10a9c:	eef77bc7 	vcvt.f32.f64	s15, d7
   10aa0:	eef17a67 	vneg.f32	s15, s15
   10aa4:	ed4b7a0a 	vstr	s15, [fp, #-40]	; 0xffffffd8
   10aa8:	ed5b7a0e 	vldr	s15, [fp, #-56]	; 0xffffffc8
   10aac:	eeb77ae7 	vcvt.f64.f32	d7, s15
   10ab0:	eeb00b47 	vmov.f64	d0, d7
   10ab4:	ebffff27 	bl	10758 <cos@plt>
   10ab8:	eeb07b40 	vmov.f64	d7, d0
   10abc:	eef77bc7 	vcvt.f32.f64	s15, d7
   10ac0:	ed4b7a09 	vstr	s15, [fp, #-36]	; 0xffffffdc
   10ac4:	e3a035fe 	mov	r3, #1065353216	; 0x3f800000
   10ac8:	e50b3014 	str	r3, [fp, #-20]	; 0xffffffec
   10acc:	ed1b7a13 	vldr	s14, [fp, #-76]	; 0xffffffb4
   10ad0:	ed5b7a10 	vldr	s15, [fp, #-64]	; 0xffffffc0
   10ad4:	ee777a67 	vsub.f32	s15, s14, s15
   10ad8:	ed4b7a04 	vstr	s15, [fp, #-16]
   10adc:	ed1b7a12 	vldr	s14, [fp, #-72]	; 0xffffffb8
   10ae0:	ed5b7a0f 	vldr	s15, [fp, #-60]	; 0xffffffc4
   10ae4:	ee777a67 	vsub.f32	s15, s14, s15
   10ae8:	ed4b7a03 	vstr	s15, [fp, #-12]
   10aec:	ed1b7a11 	vldr	s14, [fp, #-68]	; 0xffffffbc
   10af0:	ed5b7a0e 	vldr	s15, [fp, #-56]	; 0xffffffc8
   10af4:	ee777a67 	vsub.f32	s15, s14, s15
   10af8:	ed4b7a02 	vstr	s15, [fp, #-8]
   10afc:	e24b3034 	sub	r3, fp, #52	; 0x34
   10b00:	ed5b6a04 	vldr	s13, [fp, #-16]
   10b04:	ed1b7a03 	vldr	s14, [fp, #-12]
   10b08:	ed5b7a02 	vldr	s15, [fp, #-8]
   10b0c:	e1a01003 	mov	r1, r3
   10b10:	eeb00a66 	vmov.f32	s0, s13
   10b14:	eef00a47 	vmov.f32	s1, s14
   10b18:	eeb01a67 	vmov.f32	s2, s15
   10b1c:	e51b0050 	ldr	r0, [fp, #-80]	; 0xffffffb0
   10b20:	eb0000b0 	bl	10de8 <change_coordinate_system>
   10b24:	e1a00000 	nop			; (mov r0, r0)
   10b28:	e24bd004 	sub	sp, fp, #4
   10b2c:	e8bd8800 	pop	{fp, pc}

00010b30 <get_ref_speed>:
   10b30:	e92d4800 	push	{fp, lr}
   10b34:	e28db004 	add	fp, sp, #4
   10b38:	e24dd060 	sub	sp, sp, #96	; 0x60
   10b3c:	eeb05a40 	vmov.f32	s10, s0
   10b40:	eef05a60 	vmov.f32	s11, s1
   10b44:	eeb06a41 	vmov.f32	s12, s2
   10b48:	eef06a61 	vmov.f32	s13, s3
   10b4c:	eeb07a42 	vmov.f32	s14, s4
   10b50:	eef07a62 	vmov.f32	s15, s5
   10b54:	e50b0060 	str	r0, [fp, #-96]	; 0xffffffa0
   10b58:	e50b1064 	str	r1, [fp, #-100]	; 0xffffff9c
   10b5c:	ed0b5a14 	vstr	s10, [fp, #-80]	; 0xffffffb0
   10b60:	ed4b5a13 	vstr	s11, [fp, #-76]	; 0xffffffb4
   10b64:	ed0b6a12 	vstr	s12, [fp, #-72]	; 0xffffffb8
   10b68:	ed4b6a17 	vstr	s13, [fp, #-92]	; 0xffffffa4
   10b6c:	ed0b7a16 	vstr	s14, [fp, #-88]	; 0xffffffa8
   10b70:	ed4b7a15 	vstr	s15, [fp, #-84]	; 0xffffffac
   10b74:	e24b3040 	sub	r3, fp, #64	; 0x40
   10b78:	e3a02024 	mov	r2, #36	; 0x24
   10b7c:	e3a01000 	mov	r1, #0
   10b80:	e1a00003 	mov	r0, r3
   10b84:	ebfffee4 	bl	1071c <memset@plt>
   10b88:	ed5b7a15 	vldr	s15, [fp, #-84]	; 0xffffffac
   10b8c:	eeb77ae7 	vcvt.f64.f32	d7, s15
   10b90:	eeb00b47 	vmov.f64	d0, d7
   10b94:	ebfffeef 	bl	10758 <cos@plt>
   10b98:	eeb07b40 	vmov.f64	d7, d0
   10b9c:	eef77bc7 	vcvt.f32.f64	s15, d7
   10ba0:	ed4b7a10 	vstr	s15, [fp, #-64]	; 0xffffffc0
   10ba4:	ed5b7a15 	vldr	s15, [fp, #-84]	; 0xffffffac
   10ba8:	eeb77ae7 	vcvt.f64.f32	d7, s15
   10bac:	eeb00b47 	vmov.f64	d0, d7
   10bb0:	ebfffed0 	bl	106f8 <sin@plt>
   10bb4:	eeb07b40 	vmov.f64	d7, d0
   10bb8:	eef77bc7 	vcvt.f32.f64	s15, d7
   10bbc:	ed4b7a0f 	vstr	s15, [fp, #-60]	; 0xffffffc4
   10bc0:	ed5b7a15 	vldr	s15, [fp, #-84]	; 0xffffffac
   10bc4:	eeb77ae7 	vcvt.f64.f32	d7, s15
   10bc8:	eeb00b47 	vmov.f64	d0, d7
   10bcc:	ebfffec9 	bl	106f8 <sin@plt>
   10bd0:	eeb07b40 	vmov.f64	d7, d0
   10bd4:	eef77bc7 	vcvt.f32.f64	s15, d7
   10bd8:	eef17a67 	vneg.f32	s15, s15
   10bdc:	ed4b7a0d 	vstr	s15, [fp, #-52]	; 0xffffffcc
   10be0:	ed5b7a15 	vldr	s15, [fp, #-84]	; 0xffffffac
   10be4:	eeb77ae7 	vcvt.f64.f32	d7, s15
   10be8:	eeb00b47 	vmov.f64	d0, d7
   10bec:	ebfffed9 	bl	10758 <cos@plt>
   10bf0:	eeb07b40 	vmov.f64	d7, d0
   10bf4:	eef77bc7 	vcvt.f32.f64	s15, d7
   10bf8:	ed4b7a0c 	vstr	s15, [fp, #-48]	; 0xffffffd0
   10bfc:	e3a035fe 	mov	r3, #1065353216	; 0x3f800000
   10c00:	e50b3020 	str	r3, [fp, #-32]	; 0xffffffe0
   10c04:	ed1b7a14 	vldr	s14, [fp, #-80]	; 0xffffffb0
   10c08:	ed5b7a17 	vldr	s15, [fp, #-92]	; 0xffffffa4
   10c0c:	ee777a67 	vsub.f32	s15, s14, s15
   10c10:	ed9f7a32 	vldr	s14, [pc, #200]	; 10ce0 <get_ref_speed+0x1b0>
   10c14:	ee277a87 	vmul.f32	s14, s15, s14
   10c18:	eddf6a31 	vldr	s13, [pc, #196]	; 10ce4 <get_ref_speed+0x1b4>
   10c1c:	eec77a26 	vdiv.f32	s15, s14, s13
   10c20:	ed4b7a07 	vstr	s15, [fp, #-28]	; 0xffffffe4
   10c24:	ed1b7a13 	vldr	s14, [fp, #-76]	; 0xffffffb4
   10c28:	ed5b7a16 	vldr	s15, [fp, #-88]	; 0xffffffa8
   10c2c:	ee777a67 	vsub.f32	s15, s14, s15
   10c30:	ed9f7a2a 	vldr	s14, [pc, #168]	; 10ce0 <get_ref_speed+0x1b0>
   10c34:	ee277a87 	vmul.f32	s14, s15, s14
   10c38:	eddf6a29 	vldr	s13, [pc, #164]	; 10ce4 <get_ref_speed+0x1b4>
   10c3c:	eec77a26 	vdiv.f32	s15, s14, s13
   10c40:	ed4b7a06 	vstr	s15, [fp, #-24]	; 0xffffffe8
   10c44:	ed1b7a12 	vldr	s14, [fp, #-72]	; 0xffffffb8
   10c48:	ed5b7a15 	vldr	s15, [fp, #-84]	; 0xffffffac
   10c4c:	ee777a67 	vsub.f32	s15, s14, s15
   10c50:	ed9f7a22 	vldr	s14, [pc, #136]	; 10ce0 <get_ref_speed+0x1b0>
   10c54:	ee277a87 	vmul.f32	s14, s15, s14
   10c58:	eddf6a21 	vldr	s13, [pc, #132]	; 10ce4 <get_ref_speed+0x1b4>
   10c5c:	eec77a26 	vdiv.f32	s15, s14, s13
   10c60:	ed4b7a05 	vstr	s15, [fp, #-20]	; 0xffffffec
   10c64:	e24b2040 	sub	r2, fp, #64	; 0x40
   10c68:	ed5b6a07 	vldr	s13, [fp, #-28]	; 0xffffffe4
   10c6c:	ed1b7a06 	vldr	s14, [fp, #-24]	; 0xffffffe8
   10c70:	ed5b7a05 	vldr	s15, [fp, #-20]	; 0xffffffec
   10c74:	e24b3010 	sub	r3, fp, #16
   10c78:	e1a01002 	mov	r1, r2
   10c7c:	eeb00a66 	vmov.f32	s0, s13
   10c80:	eef00a47 	vmov.f32	s1, s14
   10c84:	eeb01a67 	vmov.f32	s2, s15
   10c88:	e1a00003 	mov	r0, r3
   10c8c:	eb000055 	bl	10de8 <change_coordinate_system>
   10c90:	ed1b7a04 	vldr	s14, [fp, #-16]
   10c94:	ed5b7a04 	vldr	s15, [fp, #-16]
   10c98:	ee277a27 	vmul.f32	s14, s14, s15
   10c9c:	ed5b6a03 	vldr	s13, [fp, #-12]
   10ca0:	ed5b7a03 	vldr	s15, [fp, #-12]
   10ca4:	ee667aa7 	vmul.f32	s15, s13, s15
   10ca8:	ee777a27 	vadd.f32	s15, s14, s15
   10cac:	eeb77ae7 	vcvt.f64.f32	d7, s15
   10cb0:	eeb00b47 	vmov.f64	d0, d7
   10cb4:	ebfffe95 	bl	10710 <sqrt@plt>
   10cb8:	eeb07b40 	vmov.f64	d7, d0
   10cbc:	eef77bc7 	vcvt.f32.f64	s15, d7
   10cc0:	e51b3060 	ldr	r3, [fp, #-96]	; 0xffffffa0
   10cc4:	edc37a00 	vstr	s15, [r3]
   10cc8:	e51b2014 	ldr	r2, [fp, #-20]	; 0xffffffec
   10ccc:	e51b3064 	ldr	r3, [fp, #-100]	; 0xffffff9c
   10cd0:	e5832000 	str	r2, [r3]
   10cd4:	e1a00000 	nop			; (mov r0, r0)
   10cd8:	e24bd004 	sub	sp, fp, #4
   10cdc:	e8bd8800 	pop	{fp, pc}
   10ce0:	447a0000 	ldrbtmi	r0, [sl], #-0
   10ce4:	42c80000 	sbcmi	r0, r8, #0

00010ce8 <kanayama>:
   10ce8:	e92d4800 	push	{fp, lr}
   10cec:	ed2d8b08 	vpush	{d8-d11}
   10cf0:	e28db024 	add	fp, sp, #36	; 0x24
   10cf4:	e24dd030 	sub	sp, sp, #48	; 0x30
   10cf8:	ed0b0a0e 	vstr	s0, [fp, #-56]	; 0xffffffc8
   10cfc:	ed4b0a0f 	vstr	s1, [fp, #-60]	; 0xffffffc4
   10d00:	eef06a41 	vmov.f32	s13, s2
   10d04:	eeb07a61 	vmov.f32	s14, s3
   10d08:	eef07a42 	vmov.f32	s15, s4
   10d0c:	e50b004c 	str	r0, [fp, #-76]	; 0xffffffb4
   10d10:	e50b1050 	str	r1, [fp, #-80]	; 0xffffffb0
   10d14:	ed4b6a12 	vstr	s13, [fp, #-72]	; 0xffffffb8
   10d18:	ed0b7a11 	vstr	s14, [fp, #-68]	; 0xffffffbc
   10d1c:	ed4b7a10 	vstr	s15, [fp, #-64]	; 0xffffffc0
   10d20:	e3a035fe 	mov	r3, #1065353216	; 0x3f800000
   10d24:	e50b3028 	str	r3, [fp, #-40]	; 0xffffffd8
   10d28:	e59f30b0 	ldr	r3, [pc, #176]	; 10de0 <kanayama+0xf8>
   10d2c:	e50b302c 	str	r3, [fp, #-44]	; 0xffffffd4
   10d30:	e59f30ac 	ldr	r3, [pc, #172]	; 10de4 <kanayama+0xfc>
   10d34:	e50b3030 	str	r3, [fp, #-48]	; 0xffffffd0
   10d38:	ed5b7a0e 	vldr	s15, [fp, #-56]	; 0xffffffc8
   10d3c:	eeb78ae7 	vcvt.f64.f32	d8, s15
   10d40:	ed5b7a10 	vldr	s15, [fp, #-64]	; 0xffffffc0
   10d44:	eeb77ae7 	vcvt.f64.f32	d7, s15
   10d48:	eeb00b47 	vmov.f64	d0, d7
   10d4c:	ebfffe81 	bl	10758 <cos@plt>
   10d50:	eeb07b40 	vmov.f64	d7, d0
   10d54:	ee286b07 	vmul.f64	d6, d8, d7
   10d58:	ed1b7a12 	vldr	s14, [fp, #-72]	; 0xffffffb8
   10d5c:	ed5b7a0a 	vldr	s15, [fp, #-40]	; 0xffffffd8
   10d60:	ee677a27 	vmul.f32	s15, s14, s15
   10d64:	eeb77ae7 	vcvt.f64.f32	d7, s15
   10d68:	ee367b07 	vadd.f64	d7, d6, d7
   10d6c:	eef77bc7 	vcvt.f32.f64	s15, d7
   10d70:	e51b304c 	ldr	r3, [fp, #-76]	; 0xffffffb4
   10d74:	edc37a00 	vstr	s15, [r3]
   10d78:	ed5b7a0f 	vldr	s15, [fp, #-60]	; 0xffffffc4
   10d7c:	eeb78ae7 	vcvt.f64.f32	d8, s15
   10d80:	ed5b7a0e 	vldr	s15, [fp, #-56]	; 0xffffffc8
   10d84:	eeb79ae7 	vcvt.f64.f32	d9, s15
   10d88:	ed1b7a11 	vldr	s14, [fp, #-68]	; 0xffffffbc
   10d8c:	ed5b7a0b 	vldr	s15, [fp, #-44]	; 0xffffffd4
   10d90:	ee677a27 	vmul.f32	s15, s14, s15
   10d94:	eeb7aae7 	vcvt.f64.f32	d10, s15
   10d98:	ed5b7a0c 	vldr	s15, [fp, #-48]	; 0xffffffd0
   10d9c:	eeb7bae7 	vcvt.f64.f32	d11, s15
   10da0:	ed5b7a10 	vldr	s15, [fp, #-64]	; 0xffffffc0
   10da4:	eeb77ae7 	vcvt.f64.f32	d7, s15
   10da8:	eeb00b47 	vmov.f64	d0, d7
   10dac:	ebfffe51 	bl	106f8 <sin@plt>
   10db0:	eeb07b40 	vmov.f64	d7, d0
   10db4:	ee2b7b07 	vmul.f64	d7, d11, d7
   10db8:	ee3a7b07 	vadd.f64	d7, d10, d7
   10dbc:	ee297b07 	vmul.f64	d7, d9, d7
   10dc0:	ee387b07 	vadd.f64	d7, d8, d7
   10dc4:	eef77bc7 	vcvt.f32.f64	s15, d7
   10dc8:	e51b3050 	ldr	r3, [fp, #-80]	; 0xffffffb0
   10dcc:	edc37a00 	vstr	s15, [r3]
   10dd0:	e1a00000 	nop			; (mov r0, r0)
   10dd4:	e24bd024 	sub	sp, fp, #36	; 0x24
   10dd8:	ecbd8b08 	vpop	{d8-d11}
   10ddc:	e8bd8800 	pop	{fp, pc}
   10de0:	3ecccccd 	cdpcc	12, 12, cr12, cr12, cr13, {6}
   10de4:	3d99999a 	vldrcc.16	s18, [r9, #308]	; 0x134	; <UNPREDICTABLE>

00010de8 <change_coordinate_system>:
   10de8:	e52db004 	push	{fp}		; (str fp, [sp, #-4]!)
   10dec:	e28db000 	add	fp, sp, #0
   10df0:	e24dd01c 	sub	sp, sp, #28
   10df4:	e50b0008 	str	r0, [fp, #-8]
   10df8:	eef06a40 	vmov.f32	s13, s0
   10dfc:	eeb07a60 	vmov.f32	s14, s1
   10e00:	eef07a41 	vmov.f32	s15, s2
   10e04:	e50b1018 	str	r1, [fp, #-24]	; 0xffffffe8
   10e08:	ed4b6a05 	vstr	s13, [fp, #-20]	; 0xffffffec
   10e0c:	ed0b7a04 	vstr	s14, [fp, #-16]
   10e10:	ed4b7a03 	vstr	s15, [fp, #-12]
   10e14:	e51b3018 	ldr	r3, [fp, #-24]	; 0xffffffe8
   10e18:	ed937a00 	vldr	s14, [r3]
   10e1c:	ed5b7a05 	vldr	s15, [fp, #-20]	; 0xffffffec
   10e20:	ee277a27 	vmul.f32	s14, s14, s15
   10e24:	e51b3018 	ldr	r3, [fp, #-24]	; 0xffffffe8
   10e28:	edd36a01 	vldr	s13, [r3, #4]
   10e2c:	ed5b7a04 	vldr	s15, [fp, #-16]
   10e30:	ee667aa7 	vmul.f32	s15, s13, s15
   10e34:	ee377a27 	vadd.f32	s14, s14, s15
   10e38:	e51b3018 	ldr	r3, [fp, #-24]	; 0xffffffe8
   10e3c:	edd36a02 	vldr	s13, [r3, #8]
   10e40:	ed5b7a03 	vldr	s15, [fp, #-12]
   10e44:	ee667aa7 	vmul.f32	s15, s13, s15
   10e48:	ee777a27 	vadd.f32	s15, s14, s15
   10e4c:	e51b3008 	ldr	r3, [fp, #-8]
   10e50:	edc37a00 	vstr	s15, [r3]
   10e54:	e51b3018 	ldr	r3, [fp, #-24]	; 0xffffffe8
   10e58:	e283300c 	add	r3, r3, #12
   10e5c:	ed937a00 	vldr	s14, [r3]
   10e60:	ed5b7a05 	vldr	s15, [fp, #-20]	; 0xffffffec
   10e64:	ee277a27 	vmul.f32	s14, s14, s15
   10e68:	e51b3018 	ldr	r3, [fp, #-24]	; 0xffffffe8
   10e6c:	e283300c 	add	r3, r3, #12
   10e70:	edd36a01 	vldr	s13, [r3, #4]
   10e74:	ed5b7a04 	vldr	s15, [fp, #-16]
   10e78:	ee667aa7 	vmul.f32	s15, s13, s15
   10e7c:	ee377a27 	vadd.f32	s14, s14, s15
   10e80:	e51b3018 	ldr	r3, [fp, #-24]	; 0xffffffe8
   10e84:	e283300c 	add	r3, r3, #12
   10e88:	edd36a02 	vldr	s13, [r3, #8]
   10e8c:	ed5b7a03 	vldr	s15, [fp, #-12]
   10e90:	ee667aa7 	vmul.f32	s15, s13, s15
   10e94:	ee777a27 	vadd.f32	s15, s14, s15
   10e98:	e51b3008 	ldr	r3, [fp, #-8]
   10e9c:	edc37a01 	vstr	s15, [r3, #4]
   10ea0:	e51b3018 	ldr	r3, [fp, #-24]	; 0xffffffe8
   10ea4:	e2833018 	add	r3, r3, #24
   10ea8:	ed937a00 	vldr	s14, [r3]
   10eac:	ed5b7a05 	vldr	s15, [fp, #-20]	; 0xffffffec
   10eb0:	ee277a27 	vmul.f32	s14, s14, s15
   10eb4:	e51b3018 	ldr	r3, [fp, #-24]	; 0xffffffe8
   10eb8:	e2833018 	add	r3, r3, #24
   10ebc:	edd36a01 	vldr	s13, [r3, #4]
   10ec0:	ed5b7a04 	vldr	s15, [fp, #-16]
   10ec4:	ee667aa7 	vmul.f32	s15, s13, s15
   10ec8:	ee377a27 	vadd.f32	s14, s14, s15
   10ecc:	e51b3018 	ldr	r3, [fp, #-24]	; 0xffffffe8
   10ed0:	e2833018 	add	r3, r3, #24
   10ed4:	edd36a02 	vldr	s13, [r3, #8]
   10ed8:	ed5b7a03 	vldr	s15, [fp, #-12]
   10edc:	ee667aa7 	vmul.f32	s15, s13, s15
   10ee0:	ee777a27 	vadd.f32	s15, s14, s15
   10ee4:	e51b3008 	ldr	r3, [fp, #-8]
   10ee8:	edc37a02 	vstr	s15, [r3, #8]
   10eec:	e1a00000 	nop			; (mov r0, r0)
   10ef0:	e28bd000 	add	sp, fp, #0
   10ef4:	e49db004 	pop	{fp}		; (ldr fp, [sp], #4)
   10ef8:	e12fff1e 	bx	lr
   10efc:	00000000 	andeq	r0, r0, r0

00010f00 <node_eq>:
   10f00:	e52db004 	push	{fp}		; (str fp, [sp, #-4]!)
   10f04:	e28db000 	add	fp, sp, #0
   10f08:	e24dd00c 	sub	sp, sp, #12
   10f0c:	e50b0008 	str	r0, [fp, #-8]
   10f10:	e50b100c 	str	r1, [fp, #-12]
   10f14:	e51b3008 	ldr	r3, [fp, #-8]
   10f18:	ed937a01 	vldr	s14, [r3, #4]
   10f1c:	e51b300c 	ldr	r3, [fp, #-12]
   10f20:	edd37a01 	vldr	s15, [r3, #4]
   10f24:	eeb47a67 	vcmp.f32	s14, s15
   10f28:	eef1fa10 	vmrs	APSR_nzcv, fpscr
   10f2c:	1a000008 	bne	10f54 <node_eq+0x54>
   10f30:	e51b3008 	ldr	r3, [fp, #-8]
   10f34:	ed937a02 	vldr	s14, [r3, #8]
   10f38:	e51b300c 	ldr	r3, [fp, #-12]
   10f3c:	edd37a02 	vldr	s15, [r3, #8]
   10f40:	eeb47a67 	vcmp.f32	s14, s15
   10f44:	eef1fa10 	vmrs	APSR_nzcv, fpscr
   10f48:	1a000001 	bne	10f54 <node_eq+0x54>
   10f4c:	e3a03001 	mov	r3, #1
   10f50:	ea000000 	b	10f58 <node_eq+0x58>
   10f54:	e3a03000 	mov	r3, #0
   10f58:	e6af3073 	sxtb	r3, r3
   10f5c:	e1a00003 	mov	r0, r3
   10f60:	e28bd000 	add	sp, fp, #0
   10f64:	e49db004 	pop	{fp}		; (ldr fp, [sp], #4)
   10f68:	e12fff1e 	bx	lr

00010f6c <get_speed_constraints>:
   10f6c:	e92d4800 	push	{fp, lr}
   10f70:	e28db004 	add	fp, sp, #4
   10f74:	e24dd070 	sub	sp, sp, #112	; 0x70
   10f78:	e50b0068 	str	r0, [fp, #-104]	; 0xffffff98
   10f7c:	e50b106c 	str	r1, [fp, #-108]	; 0xffffff94
   10f80:	e50b2070 	str	r2, [fp, #-112]	; 0xffffff90
   10f84:	e50b3074 	str	r3, [fp, #-116]	; 0xffffff8c
   10f88:	e3a03000 	mov	r3, #0
   10f8c:	e50b3008 	str	r3, [fp, #-8]
   10f90:	e51b3068 	ldr	r3, [fp, #-104]	; 0xffffff98
   10f94:	e1d330b8 	ldrh	r3, [r3, #8]
   10f98:	e2432001 	sub	r2, r3, #1
   10f9c:	e51b306c 	ldr	r3, [fp, #-108]	; 0xffffff94
   10fa0:	e1520003 	cmp	r2, r3
   10fa4:	ca000002 	bgt	10fb4 <get_speed_constraints+0x48>
   10fa8:	e51b306c 	ldr	r3, [fp, #-108]	; 0xffffff94
   10fac:	e2433001 	sub	r3, r3, #1
   10fb0:	ea000000 	b	10fb8 <get_speed_constraints+0x4c>
   10fb4:	e51b306c 	ldr	r3, [fp, #-108]	; 0xffffff94
   10fb8:	e50b300c 	str	r3, [fp, #-12]
   10fbc:	e51b2068 	ldr	r2, [fp, #-104]	; 0xffffff98
   10fc0:	e51b300c 	ldr	r3, [fp, #-12]
   10fc4:	e2833002 	add	r3, r3, #2
   10fc8:	e1a03103 	lsl	r3, r3, #2
   10fcc:	e0823003 	add	r3, r2, r3
   10fd0:	e5932004 	ldr	r2, [r3, #4]
   10fd4:	e24b3060 	sub	r3, fp, #96	; 0x60
   10fd8:	e1a01002 	mov	r1, r2
   10fdc:	e3a02054 	mov	r2, #84	; 0x54
   10fe0:	e1a00003 	mov	r0, r3
   10fe4:	ebfffda8 	bl	1068c <memcpy@plt>
   10fe8:	e51b3070 	ldr	r3, [fp, #-112]	; 0xffffff90
   10fec:	e59f2148 	ldr	r2, [pc, #328]	; 1113c <get_speed_constraints+0x1d0>
   10ff0:	e5832000 	str	r2, [r3]
   10ff4:	e51b3074 	ldr	r3, [fp, #-116]	; 0xffffff8c
   10ff8:	e59f213c 	ldr	r2, [pc, #316]	; 1113c <get_speed_constraints+0x1d0>
   10ffc:	e5832000 	str	r2, [r3]
   11000:	e3a03000 	mov	r3, #0
   11004:	e50b3008 	str	r3, [fp, #-8]
   11008:	ea00002e 	b	110c8 <get_speed_constraints+0x15c>
   1100c:	e51b2008 	ldr	r2, [fp, #-8]
   11010:	e1a03002 	mov	r3, r2
   11014:	e1a03083 	lsl	r3, r3, #1
   11018:	e0833002 	add	r3, r3, r2
   1101c:	e1a03103 	lsl	r3, r3, #2
   11020:	e24b2004 	sub	r2, fp, #4
   11024:	e0823003 	add	r3, r2, r3
   11028:	e2433048 	sub	r3, r3, #72	; 0x48
   1102c:	e5930000 	ldr	r0, [r3]
   11030:	e51b300c 	ldr	r3, [fp, #-12]
   11034:	e2833001 	add	r3, r3, #1
   11038:	e51b2068 	ldr	r2, [fp, #-104]	; 0xffffff98
   1103c:	e2833002 	add	r3, r3, #2
   11040:	e1a03103 	lsl	r3, r3, #2
   11044:	e0823003 	add	r3, r2, r3
   11048:	e5933004 	ldr	r3, [r3, #4]
   1104c:	e1a01003 	mov	r1, r3
   11050:	ebffffaa 	bl	10f00 <node_eq>
   11054:	e1a03000 	mov	r3, r0
   11058:	e3530000 	cmp	r3, #0
   1105c:	0a000016 	beq	110bc <get_speed_constraints+0x150>
   11060:	e51b2008 	ldr	r2, [fp, #-8]
   11064:	e1a03002 	mov	r3, r2
   11068:	e1a03083 	lsl	r3, r3, #1
   1106c:	e0833002 	add	r3, r3, r2
   11070:	e1a03103 	lsl	r3, r3, #2
   11074:	e24b2004 	sub	r2, fp, #4
   11078:	e0823003 	add	r3, r2, r3
   1107c:	e2433044 	sub	r3, r3, #68	; 0x44
   11080:	e5932000 	ldr	r2, [r3]
   11084:	e51b3070 	ldr	r3, [fp, #-112]	; 0xffffff90
   11088:	e5832000 	str	r2, [r3]
   1108c:	e51b2008 	ldr	r2, [fp, #-8]
   11090:	e1a03002 	mov	r3, r2
   11094:	e1a03083 	lsl	r3, r3, #1
   11098:	e0833002 	add	r3, r3, r2
   1109c:	e1a03103 	lsl	r3, r3, #2
   110a0:	e24b2004 	sub	r2, fp, #4
   110a4:	e0823003 	add	r3, r2, r3
   110a8:	e2433040 	sub	r3, r3, #64	; 0x40
   110ac:	e5932000 	ldr	r2, [r3]
   110b0:	e51b3074 	ldr	r3, [fp, #-116]	; 0xffffff8c
   110b4:	e5832000 	str	r2, [r3]
   110b8:	ea000007 	b	110dc <get_speed_constraints+0x170>
   110bc:	e51b3008 	ldr	r3, [fp, #-8]
   110c0:	e2833001 	add	r3, r3, #1
   110c4:	e50b3008 	str	r3, [fp, #-8]
   110c8:	e55b3050 	ldrb	r3, [fp, #-80]	; 0xffffffb0
   110cc:	e1a02003 	mov	r2, r3
   110d0:	e51b3008 	ldr	r3, [fp, #-8]
   110d4:	e1520003 	cmp	r2, r3
   110d8:	caffffcb 	bgt	1100c <get_speed_constraints+0xa0>
   110dc:	e51b3070 	ldr	r3, [fp, #-112]	; 0xffffff90
   110e0:	edd37a00 	vldr	s15, [r3]
   110e4:	ed9f7a13 	vldr	s14, [pc, #76]	; 11138 <get_speed_constraints+0x1cc>
   110e8:	eef47a47 	vcmp.f32	s15, s14
   110ec:	eef1fa10 	vmrs	APSR_nzcv, fpscr
   110f0:	1a000003 	bne	11104 <get_speed_constraints+0x198>
   110f4:	e51b3068 	ldr	r3, [fp, #-104]	; 0xffffff98
   110f8:	e5932000 	ldr	r2, [r3]
   110fc:	e51b3070 	ldr	r3, [fp, #-112]	; 0xffffff90
   11100:	e5832000 	str	r2, [r3]
   11104:	e51b3074 	ldr	r3, [fp, #-116]	; 0xffffff8c
   11108:	edd37a00 	vldr	s15, [r3]
   1110c:	ed9f7a09 	vldr	s14, [pc, #36]	; 11138 <get_speed_constraints+0x1cc>
   11110:	eef47a47 	vcmp.f32	s15, s14
   11114:	eef1fa10 	vmrs	APSR_nzcv, fpscr
   11118:	1a000003 	bne	1112c <get_speed_constraints+0x1c0>
   1111c:	e51b3068 	ldr	r3, [fp, #-104]	; 0xffffff98
   11120:	e5932004 	ldr	r2, [r3, #4]
   11124:	e51b3074 	ldr	r3, [fp, #-116]	; 0xffffff8c
   11128:	e5832000 	str	r2, [r3]
   1112c:	e1a00000 	nop			; (mov r0, r0)
   11130:	e24bd004 	sub	sp, fp, #4
   11134:	e8bd8800 	pop	{fp, pc}
   11138:	bf800000 	svclt	0x00800000
   1113c:	bf800000 	svclt	0x00800000

00011140 <get_max_range>:
   11140:	e92d4800 	push	{fp, lr}
   11144:	e28db004 	add	fp, sp, #4
   11148:	e24dd028 	sub	sp, sp, #40	; 0x28
   1114c:	eeb07a40 	vmov.f32	s14, s0
   11150:	eef07a60 	vmov.f32	s15, s1
   11154:	e50b0028 	str	r0, [fp, #-40]	; 0xffffffd8
   11158:	e50b102c 	str	r1, [fp, #-44]	; 0xffffffd4
   1115c:	ed0b7a09 	vstr	s14, [fp, #-36]	; 0xffffffdc
   11160:	ed4b7a08 	vstr	s15, [fp, #-32]	; 0xffffffe0
   11164:	e3a03000 	mov	r3, #0
   11168:	e50b3008 	str	r3, [fp, #-8]
   1116c:	e59f3274 	ldr	r3, [pc, #628]	; 113e8 <get_max_range+0x2a8>
   11170:	e50b300c 	str	r3, [fp, #-12]
   11174:	e3a03000 	mov	r3, #0
   11178:	e50b3010 	str	r3, [fp, #-16]
   1117c:	e51b302c 	ldr	r3, [fp, #-44]	; 0xffffffd4
   11180:	e50b3010 	str	r3, [fp, #-16]
   11184:	ea000080 	b	1138c <get_max_range+0x24c>
   11188:	e24b301c 	sub	r3, fp, #28
   1118c:	e24b2018 	sub	r2, fp, #24
   11190:	e51b1010 	ldr	r1, [fp, #-16]
   11194:	e51b0028 	ldr	r0, [fp, #-40]	; 0xffffffd8
   11198:	ebffff73 	bl	10f6c <get_speed_constraints>
   1119c:	ed1b7a06 	vldr	s14, [fp, #-24]	; 0xffffffe8
   111a0:	ed5b7a03 	vldr	s15, [fp, #-12]
   111a4:	ee677a27 	vmul.f32	s15, s14, s15
   111a8:	ed4b7a05 	vstr	s15, [fp, #-20]	; 0xffffffec
   111ac:	ed1b7a09 	vldr	s14, [fp, #-36]	; 0xffffffdc
   111b0:	e51b3010 	ldr	r3, [fp, #-16]
   111b4:	e2833001 	add	r3, r3, #1
   111b8:	e51b2028 	ldr	r2, [fp, #-40]	; 0xffffffd8
   111bc:	e2833002 	add	r3, r3, #2
   111c0:	e1a03103 	lsl	r3, r3, #2
   111c4:	e0823003 	add	r3, r2, r3
   111c8:	e5933004 	ldr	r3, [r3, #4]
   111cc:	edd37a01 	vldr	s15, [r3, #4]
   111d0:	ee377a67 	vsub.f32	s14, s14, s15
   111d4:	ed5b6a09 	vldr	s13, [fp, #-36]	; 0xffffffdc
   111d8:	e51b3010 	ldr	r3, [fp, #-16]
   111dc:	e2833001 	add	r3, r3, #1
   111e0:	e51b2028 	ldr	r2, [fp, #-40]	; 0xffffffd8
   111e4:	e2833002 	add	r3, r3, #2
   111e8:	e1a03103 	lsl	r3, r3, #2
   111ec:	e0823003 	add	r3, r2, r3
   111f0:	e5933004 	ldr	r3, [r3, #4]
   111f4:	edd37a01 	vldr	s15, [r3, #4]
   111f8:	ee767ae7 	vsub.f32	s15, s13, s15
   111fc:	ee277a27 	vmul.f32	s14, s14, s15
   11200:	ed5b6a08 	vldr	s13, [fp, #-32]	; 0xffffffe0
   11204:	e51b3010 	ldr	r3, [fp, #-16]
   11208:	e2833001 	add	r3, r3, #1
   1120c:	e51b2028 	ldr	r2, [fp, #-40]	; 0xffffffd8
   11210:	e2833002 	add	r3, r3, #2
   11214:	e1a03103 	lsl	r3, r3, #2
   11218:	e0823003 	add	r3, r2, r3
   1121c:	e5933004 	ldr	r3, [r3, #4]
   11220:	edd37a02 	vldr	s15, [r3, #8]
   11224:	ee766ae7 	vsub.f32	s13, s13, s15
   11228:	ed1b6a08 	vldr	s12, [fp, #-32]	; 0xffffffe0
   1122c:	e51b3010 	ldr	r3, [fp, #-16]
   11230:	e2833001 	add	r3, r3, #1
   11234:	e51b2028 	ldr	r2, [fp, #-40]	; 0xffffffd8
   11238:	e2833002 	add	r3, r3, #2
   1123c:	e1a03103 	lsl	r3, r3, #2
   11240:	e0823003 	add	r3, r2, r3
   11244:	e5933004 	ldr	r3, [r3, #4]
   11248:	edd37a02 	vldr	s15, [r3, #8]
   1124c:	ee767a67 	vsub.f32	s15, s12, s15
   11250:	ee667aa7 	vmul.f32	s15, s13, s15
   11254:	ee777a27 	vadd.f32	s15, s14, s15
   11258:	eeb77ae7 	vcvt.f64.f32	d7, s15
   1125c:	eeb00b47 	vmov.f64	d0, d7
   11260:	ebfffd2a 	bl	10710 <sqrt@plt>
   11264:	eeb07b40 	vmov.f64	d7, d0
   11268:	eeb77bc7 	vcvt.f32.f64	s14, d7
   1126c:	ed5b7a05 	vldr	s15, [fp, #-20]	; 0xffffffec
   11270:	eeb47ae7 	vcmpe.f32	s14, s15
   11274:	eef1fa10 	vmrs	APSR_nzcv, fpscr
   11278:	ba000005 	blt	11294 <get_max_range+0x154>
   1127c:	ed1b7a02 	vldr	s14, [fp, #-8]
   11280:	ed5b7a05 	vldr	s15, [fp, #-20]	; 0xffffffec
   11284:	ee777a27 	vadd.f32	s15, s14, s15
   11288:	ed4b7a02 	vstr	s15, [fp, #-8]
   1128c:	ed5b7a02 	vldr	s15, [fp, #-8]
   11290:	ea00004f 	b	113d4 <get_max_range+0x294>
   11294:	ed1b7a09 	vldr	s14, [fp, #-36]	; 0xffffffdc
   11298:	e51b3010 	ldr	r3, [fp, #-16]
   1129c:	e2833001 	add	r3, r3, #1
   112a0:	e51b2028 	ldr	r2, [fp, #-40]	; 0xffffffd8
   112a4:	e2833002 	add	r3, r3, #2
   112a8:	e1a03103 	lsl	r3, r3, #2
   112ac:	e0823003 	add	r3, r2, r3
   112b0:	e5933004 	ldr	r3, [r3, #4]
   112b4:	edd37a01 	vldr	s15, [r3, #4]
   112b8:	ee377a67 	vsub.f32	s14, s14, s15
   112bc:	ed5b6a09 	vldr	s13, [fp, #-36]	; 0xffffffdc
   112c0:	e51b3010 	ldr	r3, [fp, #-16]
   112c4:	e2833001 	add	r3, r3, #1
   112c8:	e51b2028 	ldr	r2, [fp, #-40]	; 0xffffffd8
   112cc:	e2833002 	add	r3, r3, #2
   112d0:	e1a03103 	lsl	r3, r3, #2
   112d4:	e0823003 	add	r3, r2, r3
   112d8:	e5933004 	ldr	r3, [r3, #4]
   112dc:	edd37a01 	vldr	s15, [r3, #4]
   112e0:	ee767ae7 	vsub.f32	s15, s13, s15
   112e4:	ee277a27 	vmul.f32	s14, s14, s15
   112e8:	ed5b6a08 	vldr	s13, [fp, #-32]	; 0xffffffe0
   112ec:	e51b3010 	ldr	r3, [fp, #-16]
   112f0:	e2833001 	add	r3, r3, #1
   112f4:	e51b2028 	ldr	r2, [fp, #-40]	; 0xffffffd8
   112f8:	e2833002 	add	r3, r3, #2
   112fc:	e1a03103 	lsl	r3, r3, #2
   11300:	e0823003 	add	r3, r2, r3
   11304:	e5933004 	ldr	r3, [r3, #4]
   11308:	edd37a02 	vldr	s15, [r3, #8]
   1130c:	ee766ae7 	vsub.f32	s13, s13, s15
   11310:	ed1b6a08 	vldr	s12, [fp, #-32]	; 0xffffffe0
   11314:	e51b3010 	ldr	r3, [fp, #-16]
   11318:	e2833001 	add	r3, r3, #1
   1131c:	e51b2028 	ldr	r2, [fp, #-40]	; 0xffffffd8
   11320:	e2833002 	add	r3, r3, #2
   11324:	e1a03103 	lsl	r3, r3, #2
   11328:	e0823003 	add	r3, r2, r3
   1132c:	e5933004 	ldr	r3, [r3, #4]
   11330:	edd37a02 	vldr	s15, [r3, #8]
   11334:	ee767a67 	vsub.f32	s15, s12, s15
   11338:	ee667aa7 	vmul.f32	s15, s13, s15
   1133c:	ee777a27 	vadd.f32	s15, s14, s15
   11340:	eeb77ae7 	vcvt.f64.f32	d7, s15
   11344:	eeb00b47 	vmov.f64	d0, d7
   11348:	ebfffcf0 	bl	10710 <sqrt@plt>
   1134c:	eeb07b40 	vmov.f64	d7, d0
   11350:	eef77bc7 	vcvt.f32.f64	s15, d7
   11354:	ed4b7a05 	vstr	s15, [fp, #-20]	; 0xffffffec
   11358:	ed1b7a02 	vldr	s14, [fp, #-8]
   1135c:	ed5b7a05 	vldr	s15, [fp, #-20]	; 0xffffffec
   11360:	ee777a27 	vadd.f32	s15, s14, s15
   11364:	ed4b7a02 	vstr	s15, [fp, #-8]
   11368:	ed1b7a06 	vldr	s14, [fp, #-24]	; 0xffffffe8
   1136c:	ed5b6a05 	vldr	s13, [fp, #-20]	; 0xffffffec
   11370:	eec67a87 	vdiv.f32	s15, s13, s14
   11374:	ed1b7a03 	vldr	s14, [fp, #-12]
   11378:	ee777a67 	vsub.f32	s15, s14, s15
   1137c:	ed4b7a03 	vstr	s15, [fp, #-12]
   11380:	e51b3010 	ldr	r3, [fp, #-16]
   11384:	e2833001 	add	r3, r3, #1
   11388:	e50b3010 	str	r3, [fp, #-16]
   1138c:	e51b3028 	ldr	r3, [fp, #-40]	; 0xffffffd8
   11390:	e1d330b8 	ldrh	r3, [r3, #8]
   11394:	e2432002 	sub	r2, r3, #2
   11398:	e51b3010 	ldr	r3, [fp, #-16]
   1139c:	e1520003 	cmp	r2, r3
   113a0:	aaffff78 	bge	11188 <get_max_range+0x48>
   113a4:	e51b3028 	ldr	r3, [fp, #-40]	; 0xffffffd8
   113a8:	e1d330b8 	ldrh	r3, [r3, #8]
   113ac:	e2431001 	sub	r1, r3, #1
   113b0:	e24b301c 	sub	r3, fp, #28
   113b4:	e24b2018 	sub	r2, fp, #24
   113b8:	e51b0028 	ldr	r0, [fp, #-40]	; 0xffffffd8
   113bc:	ebfffeea 	bl	10f6c <get_speed_constraints>
   113c0:	ed5b7a06 	vldr	s15, [fp, #-24]	; 0xffffffe8
   113c4:	eeb77ae7 	vcvt.f64.f32	d7, s15
   113c8:	ed9f6b04 	vldr	d6, [pc, #16]	; 113e0 <get_max_range+0x2a0>
   113cc:	ee277b06 	vmul.f64	d7, d7, d6
   113d0:	eef77bc7 	vcvt.f32.f64	s15, d7
   113d4:	eeb00a67 	vmov.f32	s0, s15
   113d8:	e24bd004 	sub	sp, fp, #4
   113dc:	e8bd8800 	pop	{fp, pc}
   113e0:	9999999a 	ldmibls	r9, {r1, r3, r4, r7, r8, fp, ip, pc}
   113e4:	3fb99999 	svccc	0x00b99999
   113e8:	3dcccccd 	stclcc	12, cr12, [ip, #820]	; 0x334

000113ec <projection>:
   113ec:	e92d4800 	push	{fp, lr}
   113f0:	ed2d8b02 	vpush	{d8}
   113f4:	e28db00c 	add	fp, sp, #12
   113f8:	e24dd058 	sub	sp, sp, #88	; 0x58
   113fc:	eef06a40 	vmov.f32	s13, s0
   11400:	eeb07a60 	vmov.f32	s14, s1
   11404:	eef07a41 	vmov.f32	s15, s2
   11408:	e50b0054 	str	r0, [fp, #-84]	; 0xffffffac
   1140c:	e50b1058 	str	r1, [fp, #-88]	; 0xffffffa8
   11410:	ed4b6a14 	vstr	s13, [fp, #-80]	; 0xffffffb0
   11414:	ed0b7a13 	vstr	s14, [fp, #-76]	; 0xffffffb4
   11418:	ed4b7a12 	vstr	s15, [fp, #-72]	; 0xffffffb8
   1141c:	e51b3058 	ldr	r3, [fp, #-88]	; 0xffffffa8
   11420:	e3530000 	cmp	r3, #0
   11424:	1a000010 	bne	1146c <projection+0x80>
   11428:	e51b3054 	ldr	r3, [fp, #-84]	; 0xffffffac
   1142c:	e593300c 	ldr	r3, [r3, #12]
   11430:	e5933004 	ldr	r3, [r3, #4]
   11434:	e50b3034 	str	r3, [fp, #-52]	; 0xffffffcc
   11438:	e51b3054 	ldr	r3, [fp, #-84]	; 0xffffffac
   1143c:	e593300c 	ldr	r3, [r3, #12]
   11440:	e5933008 	ldr	r3, [r3, #8]
   11444:	e50b3030 	str	r3, [fp, #-48]	; 0xffffffd0
   11448:	e51b3054 	ldr	r3, [fp, #-84]	; 0xffffffac
   1144c:	e5933010 	ldr	r3, [r3, #16]
   11450:	e5933004 	ldr	r3, [r3, #4]
   11454:	e50b303c 	str	r3, [fp, #-60]	; 0xffffffc4
   11458:	e51b3054 	ldr	r3, [fp, #-84]	; 0xffffffac
   1145c:	e5933010 	ldr	r3, [r3, #16]
   11460:	e5933008 	ldr	r3, [r3, #8]
   11464:	e50b3038 	str	r3, [fp, #-56]	; 0xffffffc8
   11468:	ea000021 	b	114f4 <projection+0x108>
   1146c:	e51b3058 	ldr	r3, [fp, #-88]	; 0xffffffa8
   11470:	e2433001 	sub	r3, r3, #1
   11474:	e51b2054 	ldr	r2, [fp, #-84]	; 0xffffffac
   11478:	e2833002 	add	r3, r3, #2
   1147c:	e1a03103 	lsl	r3, r3, #2
   11480:	e0823003 	add	r3, r2, r3
   11484:	e5933004 	ldr	r3, [r3, #4]
   11488:	e5933004 	ldr	r3, [r3, #4]
   1148c:	e50b3034 	str	r3, [fp, #-52]	; 0xffffffcc
   11490:	e51b3058 	ldr	r3, [fp, #-88]	; 0xffffffa8
   11494:	e2433001 	sub	r3, r3, #1
   11498:	e51b2054 	ldr	r2, [fp, #-84]	; 0xffffffac
   1149c:	e2833002 	add	r3, r3, #2
   114a0:	e1a03103 	lsl	r3, r3, #2
   114a4:	e0823003 	add	r3, r2, r3
   114a8:	e5933004 	ldr	r3, [r3, #4]
   114ac:	e5933008 	ldr	r3, [r3, #8]
   114b0:	e50b3030 	str	r3, [fp, #-48]	; 0xffffffd0
   114b4:	e51b2054 	ldr	r2, [fp, #-84]	; 0xffffffac
   114b8:	e51b3058 	ldr	r3, [fp, #-88]	; 0xffffffa8
   114bc:	e2833002 	add	r3, r3, #2
   114c0:	e1a03103 	lsl	r3, r3, #2
   114c4:	e0823003 	add	r3, r2, r3
   114c8:	e5933004 	ldr	r3, [r3, #4]
   114cc:	e5933004 	ldr	r3, [r3, #4]
   114d0:	e50b303c 	str	r3, [fp, #-60]	; 0xffffffc4
   114d4:	e51b2054 	ldr	r2, [fp, #-84]	; 0xffffffac
   114d8:	e51b3058 	ldr	r3, [fp, #-88]	; 0xffffffa8
   114dc:	e2833002 	add	r3, r3, #2
   114e0:	e1a03103 	lsl	r3, r3, #2
   114e4:	e0823003 	add	r3, r2, r3
   114e8:	e5933004 	ldr	r3, [r3, #4]
   114ec:	e5933008 	ldr	r3, [r3, #8]
   114f0:	e50b3038 	str	r3, [fp, #-56]	; 0xffffffc8
   114f4:	ed1b7a0d 	vldr	s14, [fp, #-52]	; 0xffffffcc
   114f8:	ed5b7a0f 	vldr	s15, [fp, #-60]	; 0xffffffc4
   114fc:	eeb47a67 	vcmp.f32	s14, s15
   11500:	eef1fa10 	vmrs	APSR_nzcv, fpscr
   11504:	1a000009 	bne	11530 <projection+0x144>
   11508:	ed1b7a0c 	vldr	s14, [fp, #-48]	; 0xffffffd0
   1150c:	ed5b7a0e 	vldr	s15, [fp, #-56]	; 0xffffffc8
   11510:	eeb47a67 	vcmp.f32	s14, s15
   11514:	eef1fa10 	vmrs	APSR_nzcv, fpscr
   11518:	1a000004 	bne	11530 <projection+0x144>
   1151c:	e24b302c 	sub	r3, fp, #44	; 0x2c
   11520:	e24b2034 	sub	r2, fp, #52	; 0x34
   11524:	e8920003 	ldm	r2, {r0, r1}
   11528:	e8830003 	stm	r3, {r0, r1}
   1152c:	ea00009c 	b	117a4 <projection+0x3b8>
   11530:	ed1b7a14 	vldr	s14, [fp, #-80]	; 0xffffffb0
   11534:	ed5b7a0d 	vldr	s15, [fp, #-52]	; 0xffffffcc
   11538:	ee377a67 	vsub.f32	s14, s14, s15
   1153c:	ed5b6a0f 	vldr	s13, [fp, #-60]	; 0xffffffc4
   11540:	ed5b7a0d 	vldr	s15, [fp, #-52]	; 0xffffffcc
   11544:	ee767ae7 	vsub.f32	s15, s13, s15
   11548:	ee277a27 	vmul.f32	s14, s14, s15
   1154c:	ed5b6a13 	vldr	s13, [fp, #-76]	; 0xffffffb4
   11550:	ed5b7a0c 	vldr	s15, [fp, #-48]	; 0xffffffd0
   11554:	ee766ae7 	vsub.f32	s13, s13, s15
   11558:	ed1b6a0e 	vldr	s12, [fp, #-56]	; 0xffffffc8
   1155c:	ed5b7a0c 	vldr	s15, [fp, #-48]	; 0xffffffd0
   11560:	ee767a67 	vsub.f32	s15, s12, s15
   11564:	ee667aa7 	vmul.f32	s15, s13, s15
   11568:	ee777a27 	vadd.f32	s15, s14, s15
   1156c:	ed4b7a08 	vstr	s15, [fp, #-32]	; 0xffffffe0
   11570:	ed1b7a0f 	vldr	s14, [fp, #-60]	; 0xffffffc4
   11574:	ed5b7a0d 	vldr	s15, [fp, #-52]	; 0xffffffcc
   11578:	ee377a67 	vsub.f32	s14, s14, s15
   1157c:	ed5b6a0f 	vldr	s13, [fp, #-60]	; 0xffffffc4
   11580:	ed5b7a0d 	vldr	s15, [fp, #-52]	; 0xffffffcc
   11584:	ee767ae7 	vsub.f32	s15, s13, s15
   11588:	ee277a27 	vmul.f32	s14, s14, s15
   1158c:	ed5b6a0e 	vldr	s13, [fp, #-56]	; 0xffffffc8
   11590:	ed5b7a0c 	vldr	s15, [fp, #-48]	; 0xffffffd0
   11594:	ee766ae7 	vsub.f32	s13, s13, s15
   11598:	ed1b6a0e 	vldr	s12, [fp, #-56]	; 0xffffffc8
   1159c:	ed5b7a0c 	vldr	s15, [fp, #-48]	; 0xffffffd0
   115a0:	ee767a67 	vsub.f32	s15, s12, s15
   115a4:	ee667aa7 	vmul.f32	s15, s13, s15
   115a8:	ee777a27 	vadd.f32	s15, s14, s15
   115ac:	ed4b7a09 	vstr	s15, [fp, #-36]	; 0xffffffdc
   115b0:	ed5b6a08 	vldr	s13, [fp, #-32]	; 0xffffffe0
   115b4:	ed1b7a09 	vldr	s14, [fp, #-36]	; 0xffffffdc
   115b8:	eec67a87 	vdiv.f32	s15, s13, s14
   115bc:	ed4b7a08 	vstr	s15, [fp, #-32]	; 0xffffffe0
   115c0:	ed1b7a0d 	vldr	s14, [fp, #-52]	; 0xffffffcc
   115c4:	ed5b6a0f 	vldr	s13, [fp, #-60]	; 0xffffffc4
   115c8:	ed5b7a0d 	vldr	s15, [fp, #-52]	; 0xffffffcc
   115cc:	ee766ae7 	vsub.f32	s13, s13, s15
   115d0:	ed5b7a08 	vldr	s15, [fp, #-32]	; 0xffffffe0
   115d4:	ee667aa7 	vmul.f32	s15, s13, s15
   115d8:	ee777a27 	vadd.f32	s15, s14, s15
   115dc:	ed4b7a11 	vstr	s15, [fp, #-68]	; 0xffffffbc
   115e0:	ed1b7a0c 	vldr	s14, [fp, #-48]	; 0xffffffd0
   115e4:	ed5b6a0e 	vldr	s13, [fp, #-56]	; 0xffffffc8
   115e8:	ed5b7a0c 	vldr	s15, [fp, #-48]	; 0xffffffd0
   115ec:	ee766ae7 	vsub.f32	s13, s13, s15
   115f0:	ed5b7a08 	vldr	s15, [fp, #-32]	; 0xffffffe0
   115f4:	ee667aa7 	vmul.f32	s15, s13, s15
   115f8:	ee777a27 	vadd.f32	s15, s14, s15
   115fc:	ed4b7a10 	vstr	s15, [fp, #-64]	; 0xffffffc0
   11600:	ed1b7a0d 	vldr	s14, [fp, #-52]	; 0xffffffcc
   11604:	ed5b7a0f 	vldr	s15, [fp, #-60]	; 0xffffffc4
   11608:	eeb47ae7 	vcmpe.f32	s14, s15
   1160c:	eef1fa10 	vmrs	APSR_nzcv, fpscr
   11610:	8a000004 	bhi	11628 <projection+0x23c>
   11614:	e51b3034 	ldr	r3, [fp, #-52]	; 0xffffffcc
   11618:	e50b3010 	str	r3, [fp, #-16]
   1161c:	e51b303c 	ldr	r3, [fp, #-60]	; 0xffffffc4
   11620:	e50b3018 	str	r3, [fp, #-24]	; 0xffffffe8
   11624:	ea000003 	b	11638 <projection+0x24c>
   11628:	e51b303c 	ldr	r3, [fp, #-60]	; 0xffffffc4
   1162c:	e50b3010 	str	r3, [fp, #-16]
   11630:	e51b3034 	ldr	r3, [fp, #-52]	; 0xffffffcc
   11634:	e50b3018 	str	r3, [fp, #-24]	; 0xffffffe8
   11638:	ed1b7a0c 	vldr	s14, [fp, #-48]	; 0xffffffd0
   1163c:	ed5b7a0e 	vldr	s15, [fp, #-56]	; 0xffffffc8
   11640:	eeb47ae7 	vcmpe.f32	s14, s15
   11644:	eef1fa10 	vmrs	APSR_nzcv, fpscr
   11648:	8a000004 	bhi	11660 <projection+0x274>
   1164c:	e51b3030 	ldr	r3, [fp, #-48]	; 0xffffffd0
   11650:	e50b3014 	str	r3, [fp, #-20]	; 0xffffffec
   11654:	e51b3038 	ldr	r3, [fp, #-56]	; 0xffffffc8
   11658:	e50b301c 	str	r3, [fp, #-28]	; 0xffffffe4
   1165c:	ea000003 	b	11670 <projection+0x284>
   11660:	e51b3038 	ldr	r3, [fp, #-56]	; 0xffffffc8
   11664:	e50b3014 	str	r3, [fp, #-20]	; 0xffffffec
   11668:	e51b3030 	ldr	r3, [fp, #-48]	; 0xffffffd0
   1166c:	e50b301c 	str	r3, [fp, #-28]	; 0xffffffe4
   11670:	ed1b7a11 	vldr	s14, [fp, #-68]	; 0xffffffbc
   11674:	ed5b7a04 	vldr	s15, [fp, #-16]
   11678:	eeb47ae7 	vcmpe.f32	s14, s15
   1167c:	eef1fa10 	vmrs	APSR_nzcv, fpscr
   11680:	ba000013 	blt	116d4 <projection+0x2e8>
   11684:	ed1b7a11 	vldr	s14, [fp, #-68]	; 0xffffffbc
   11688:	ed5b7a06 	vldr	s15, [fp, #-24]	; 0xffffffe8
   1168c:	eeb47ae7 	vcmpe.f32	s14, s15
   11690:	eef1fa10 	vmrs	APSR_nzcv, fpscr
   11694:	8a00000e 	bhi	116d4 <projection+0x2e8>
   11698:	ed1b7a10 	vldr	s14, [fp, #-64]	; 0xffffffc0
   1169c:	ed5b7a05 	vldr	s15, [fp, #-20]	; 0xffffffec
   116a0:	eeb47ae7 	vcmpe.f32	s14, s15
   116a4:	eef1fa10 	vmrs	APSR_nzcv, fpscr
   116a8:	ba000009 	blt	116d4 <projection+0x2e8>
   116ac:	ed1b7a10 	vldr	s14, [fp, #-64]	; 0xffffffc0
   116b0:	ed5b7a07 	vldr	s15, [fp, #-28]	; 0xffffffe4
   116b4:	eeb47ae7 	vcmpe.f32	s14, s15
   116b8:	eef1fa10 	vmrs	APSR_nzcv, fpscr
   116bc:	8a000004 	bhi	116d4 <projection+0x2e8>
   116c0:	e24b302c 	sub	r3, fp, #44	; 0x2c
   116c4:	e24b2044 	sub	r2, fp, #68	; 0x44
   116c8:	e8920003 	ldm	r2, {r0, r1}
   116cc:	e8830003 	stm	r3, {r0, r1}
   116d0:	ea000033 	b	117a4 <projection+0x3b8>
   116d4:	ed1b7a0d 	vldr	s14, [fp, #-52]	; 0xffffffcc
   116d8:	ed5b7a11 	vldr	s15, [fp, #-68]	; 0xffffffbc
   116dc:	ee377a67 	vsub.f32	s14, s14, s15
   116e0:	ed5b6a0d 	vldr	s13, [fp, #-52]	; 0xffffffcc
   116e4:	ed5b7a11 	vldr	s15, [fp, #-68]	; 0xffffffbc
   116e8:	ee767ae7 	vsub.f32	s15, s13, s15
   116ec:	ee277a27 	vmul.f32	s14, s14, s15
   116f0:	ed5b6a0c 	vldr	s13, [fp, #-48]	; 0xffffffd0
   116f4:	ed5b7a10 	vldr	s15, [fp, #-64]	; 0xffffffc0
   116f8:	ee766ae7 	vsub.f32	s13, s13, s15
   116fc:	ed1b6a0c 	vldr	s12, [fp, #-48]	; 0xffffffd0
   11700:	ed5b7a10 	vldr	s15, [fp, #-64]	; 0xffffffc0
   11704:	ee767a67 	vsub.f32	s15, s12, s15
   11708:	ee667aa7 	vmul.f32	s15, s13, s15
   1170c:	ee777a27 	vadd.f32	s15, s14, s15
   11710:	eeb77ae7 	vcvt.f64.f32	d7, s15
   11714:	eeb00b47 	vmov.f64	d0, d7
   11718:	ebfffbfc 	bl	10710 <sqrt@plt>
   1171c:	eeb07b40 	vmov.f64	d7, d0
   11720:	eeb78bc7 	vcvt.f32.f64	s16, d7
   11724:	ed1b7a0f 	vldr	s14, [fp, #-60]	; 0xffffffc4
   11728:	ed5b7a11 	vldr	s15, [fp, #-68]	; 0xffffffbc
   1172c:	ee377a67 	vsub.f32	s14, s14, s15
   11730:	ed5b6a0f 	vldr	s13, [fp, #-60]	; 0xffffffc4
   11734:	ed5b7a11 	vldr	s15, [fp, #-68]	; 0xffffffbc
   11738:	ee767ae7 	vsub.f32	s15, s13, s15
   1173c:	ee277a27 	vmul.f32	s14, s14, s15
   11740:	ed5b6a0e 	vldr	s13, [fp, #-56]	; 0xffffffc8
   11744:	ed5b7a10 	vldr	s15, [fp, #-64]	; 0xffffffc0
   11748:	ee766ae7 	vsub.f32	s13, s13, s15
   1174c:	ed1b6a0e 	vldr	s12, [fp, #-56]	; 0xffffffc8
   11750:	ed5b7a10 	vldr	s15, [fp, #-64]	; 0xffffffc0
   11754:	ee767a67 	vsub.f32	s15, s12, s15
   11758:	ee667aa7 	vmul.f32	s15, s13, s15
   1175c:	ee777a27 	vadd.f32	s15, s14, s15
   11760:	eeb77ae7 	vcvt.f64.f32	d7, s15
   11764:	eeb00b47 	vmov.f64	d0, d7
   11768:	ebfffbe8 	bl	10710 <sqrt@plt>
   1176c:	eeb07b40 	vmov.f64	d7, d0
   11770:	eef77bc7 	vcvt.f32.f64	s15, d7
   11774:	eeb48ae7 	vcmpe.f32	s16, s15
   11778:	eef1fa10 	vmrs	APSR_nzcv, fpscr
   1177c:	8a000004 	bhi	11794 <projection+0x3a8>
   11780:	e24b302c 	sub	r3, fp, #44	; 0x2c
   11784:	e24b2034 	sub	r2, fp, #52	; 0x34
   11788:	e8920003 	ldm	r2, {r0, r1}
   1178c:	e8830003 	stm	r3, {r0, r1}
   11790:	ea000003 	b	117a4 <projection+0x3b8>
   11794:	e24b302c 	sub	r3, fp, #44	; 0x2c
   11798:	e24b203c 	sub	r2, fp, #60	; 0x3c
   1179c:	e8920003 	ldm	r2, {r0, r1}
   117a0:	e8830003 	stm	r3, {r0, r1}
   117a4:	e51b202c 	ldr	r2, [fp, #-44]	; 0xffffffd4
   117a8:	e51b3028 	ldr	r3, [fp, #-40]	; 0xffffffd8
   117ac:	ee072a10 	vmov	s14, r2
   117b0:	ee073a90 	vmov	s15, r3
   117b4:	eeb00a47 	vmov.f32	s0, s14
   117b8:	eef00a67 	vmov.f32	s1, s15
   117bc:	e24bd00c 	sub	sp, fp, #12
   117c0:	ecbd8b02 	vpop	{d8}
   117c4:	e8bd8800 	pop	{fp, pc}

000117c8 <is_mandatory>:
   117c8:	e24dd010 	sub	sp, sp, #16
   117cc:	e52db004 	push	{fp}		; (str fp, [sp, #-4]!)
   117d0:	e28db000 	add	fp, sp, #0
   117d4:	e28bc004 	add	ip, fp, #4
   117d8:	e88c000f 	stm	ip, {r0, r1, r2, r3}
   117dc:	e59b3010 	ldr	r3, [fp, #16]
   117e0:	e3530001 	cmp	r3, #1
   117e4:	0a000002 	beq	117f4 <is_mandatory+0x2c>
   117e8:	e59b3010 	ldr	r3, [fp, #16]
   117ec:	e3530002 	cmp	r3, #2
   117f0:	1a000001 	bne	117fc <is_mandatory+0x34>
   117f4:	e3a03001 	mov	r3, #1
   117f8:	ea000000 	b	11800 <is_mandatory+0x38>
   117fc:	e3a03000 	mov	r3, #0
   11800:	e6af3073 	sxtb	r3, r3
   11804:	e1a00003 	mov	r0, r3
   11808:	e28bd000 	add	sp, fp, #0
   1180c:	e49db004 	pop	{fp}		; (ldr fp, [sp], #4)
   11810:	e28dd010 	add	sp, sp, #16
   11814:	e12fff1e 	bx	lr

00011818 <eq_pos>:
   11818:	e24dd010 	sub	sp, sp, #16
   1181c:	e52db004 	push	{fp}		; (str fp, [sp, #-4]!)
   11820:	e28db000 	add	fp, sp, #0
   11824:	e24dd01c 	sub	sp, sp, #28
   11828:	eef06a40 	vmov.f32	s13, s0
   1182c:	eeb07a60 	vmov.f32	s14, s1
   11830:	eef07a41 	vmov.f32	s15, s2
   11834:	e28bc004 	add	ip, fp, #4
   11838:	e88c000f 	stm	ip, {r0, r1, r2, r3}
   1183c:	ed4b1a07 	vstr	s3, [fp, #-28]	; 0xffffffe4
   11840:	ed4b6a06 	vstr	s13, [fp, #-24]	; 0xffffffe8
   11844:	ed0b7a05 	vstr	s14, [fp, #-20]	; 0xffffffec
   11848:	ed4b7a04 	vstr	s15, [fp, #-16]
   1184c:	ed1b7a06 	vldr	s14, [fp, #-24]	; 0xffffffe8
   11850:	eddb7a02 	vldr	s15, [fp, #8]
   11854:	ee777a67 	vsub.f32	s15, s14, s15
   11858:	ed4b7a02 	vstr	s15, [fp, #-8]
   1185c:	ed1b7a05 	vldr	s14, [fp, #-20]	; 0xffffffec
   11860:	eddb7a03 	vldr	s15, [fp, #12]
   11864:	ee777a67 	vsub.f32	s15, s14, s15
   11868:	ed4b7a03 	vstr	s15, [fp, #-12]
   1186c:	ed1b7a02 	vldr	s14, [fp, #-8]
   11870:	ed5b7a07 	vldr	s15, [fp, #-28]	; 0xffffffe4
   11874:	eeb47ae7 	vcmpe.f32	s14, s15
   11878:	eef1fa10 	vmrs	APSR_nzcv, fpscr
   1187c:	5a000012 	bpl	118cc <eq_pos+0xb4>
   11880:	ed5b7a07 	vldr	s15, [fp, #-28]	; 0xffffffe4
   11884:	eeb17a67 	vneg.f32	s14, s15
   11888:	ed5b7a02 	vldr	s15, [fp, #-8]
   1188c:	eeb47ae7 	vcmpe.f32	s14, s15
   11890:	eef1fa10 	vmrs	APSR_nzcv, fpscr
   11894:	5a00000c 	bpl	118cc <eq_pos+0xb4>
   11898:	ed1b7a03 	vldr	s14, [fp, #-12]
   1189c:	ed5b7a07 	vldr	s15, [fp, #-28]	; 0xffffffe4
   118a0:	eeb47ae7 	vcmpe.f32	s14, s15
   118a4:	eef1fa10 	vmrs	APSR_nzcv, fpscr
   118a8:	5a000007 	bpl	118cc <eq_pos+0xb4>
   118ac:	ed5b7a07 	vldr	s15, [fp, #-28]	; 0xffffffe4
   118b0:	eeb17a67 	vneg.f32	s14, s15
   118b4:	ed5b7a03 	vldr	s15, [fp, #-12]
   118b8:	eeb47ae7 	vcmpe.f32	s14, s15
   118bc:	eef1fa10 	vmrs	APSR_nzcv, fpscr
   118c0:	5a000001 	bpl	118cc <eq_pos+0xb4>
   118c4:	e3a03001 	mov	r3, #1
   118c8:	ea000000 	b	118d0 <eq_pos+0xb8>
   118cc:	e3a03000 	mov	r3, #0
   118d0:	e6af3073 	sxtb	r3, r3
   118d4:	e1a00003 	mov	r0, r3
   118d8:	e28bd000 	add	sp, fp, #0
   118dc:	e49db004 	pop	{fp}		; (ldr fp, [sp], #4)
   118e0:	e28dd010 	add	sp, sp, #16
   118e4:	e12fff1e 	bx	lr

000118e8 <get_pose_at_last_node>:
   118e8:	e24dd010 	sub	sp, sp, #16
   118ec:	e92d4800 	push	{fp, lr}
   118f0:	ed2d8b02 	vpush	{d8}
   118f4:	e28db00c 	add	fp, sp, #12
   118f8:	e24dd028 	sub	sp, sp, #40	; 0x28
   118fc:	e28bc004 	add	ip, fp, #4
   11900:	e88c000f 	stm	ip, {r0, r1, r2, r3}
   11904:	e59b305c 	ldr	r3, [fp, #92]	; 0x5c
   11908:	e50b3024 	str	r3, [fp, #-36]	; 0xffffffdc
   1190c:	e59b3060 	ldr	r3, [fp, #96]	; 0x60
   11910:	e50b3020 	str	r3, [fp, #-32]	; 0xffffffe0
   11914:	ed9b7a03 	vldr	s14, [fp, #12]
   11918:	eddb7a18 	vldr	s15, [fp, #96]	; 0x60
   1191c:	eeb47ae7 	vcmpe.f32	s14, s15
   11920:	eef1fa10 	vmrs	APSR_nzcv, fpscr
   11924:	da00001d 	ble	119a0 <get_pose_at_last_node+0xb8>
   11928:	ed9b7a17 	vldr	s14, [fp, #92]	; 0x5c
   1192c:	eddb7a02 	vldr	s15, [fp, #8]
   11930:	ee378a67 	vsub.f32	s16, s14, s15
   11934:	ed9b7a02 	vldr	s14, [fp, #8]
   11938:	eddb7a17 	vldr	s15, [fp, #92]	; 0x5c
   1193c:	ee377a67 	vsub.f32	s14, s14, s15
   11940:	eddb6a02 	vldr	s13, [fp, #8]
   11944:	eddb7a17 	vldr	s15, [fp, #92]	; 0x5c
   11948:	ee767ae7 	vsub.f32	s15, s13, s15
   1194c:	ee277a27 	vmul.f32	s14, s14, s15
   11950:	eddb6a03 	vldr	s13, [fp, #12]
   11954:	eddb7a18 	vldr	s15, [fp, #96]	; 0x60
   11958:	ee766ae7 	vsub.f32	s13, s13, s15
   1195c:	ed9b6a03 	vldr	s12, [fp, #12]
   11960:	eddb7a18 	vldr	s15, [fp, #96]	; 0x60
   11964:	ee767a67 	vsub.f32	s15, s12, s15
   11968:	ee667aa7 	vmul.f32	s15, s13, s15
   1196c:	ee777a27 	vadd.f32	s15, s14, s15
   11970:	eeb77ae7 	vcvt.f64.f32	d7, s15
   11974:	eeb00b47 	vmov.f64	d0, d7
   11978:	ebfffb64 	bl	10710 <sqrt@plt>
   1197c:	eeb07b40 	vmov.f64	d7, d0
   11980:	eeb77bc7 	vcvt.f32.f64	s14, d7
   11984:	eec87a07 	vdiv.f32	s15, s16, s14
   11988:	eeb77ae7 	vcvt.f64.f32	d7, s15
   1198c:	eeb00b47 	vmov.f64	d0, d7
   11990:	ebfffb49 	bl	106bc <acos@plt>
   11994:	eeb07b40 	vmov.f64	d7, d0
   11998:	eeb17b47 	vneg.f64	d7, d7
   1199c:	ea00001b 	b	11a10 <get_pose_at_last_node+0x128>
   119a0:	ed9b7a17 	vldr	s14, [fp, #92]	; 0x5c
   119a4:	eddb7a02 	vldr	s15, [fp, #8]
   119a8:	ee378a67 	vsub.f32	s16, s14, s15
   119ac:	ed9b7a02 	vldr	s14, [fp, #8]
   119b0:	eddb7a17 	vldr	s15, [fp, #92]	; 0x5c
   119b4:	ee377a67 	vsub.f32	s14, s14, s15
   119b8:	eddb6a02 	vldr	s13, [fp, #8]
   119bc:	eddb7a17 	vldr	s15, [fp, #92]	; 0x5c
   119c0:	ee767ae7 	vsub.f32	s15, s13, s15
   119c4:	ee277a27 	vmul.f32	s14, s14, s15
   119c8:	eddb6a03 	vldr	s13, [fp, #12]
   119cc:	eddb7a18 	vldr	s15, [fp, #96]	; 0x60
   119d0:	ee766ae7 	vsub.f32	s13, s13, s15
   119d4:	ed9b6a03 	vldr	s12, [fp, #12]
   119d8:	eddb7a18 	vldr	s15, [fp, #96]	; 0x60
   119dc:	ee767a67 	vsub.f32	s15, s12, s15
   119e0:	ee667aa7 	vmul.f32	s15, s13, s15
   119e4:	ee777a27 	vadd.f32	s15, s14, s15
   119e8:	eeb77ae7 	vcvt.f64.f32	d7, s15
   119ec:	eeb00b47 	vmov.f64	d0, d7
   119f0:	ebfffb46 	bl	10710 <sqrt@plt>
   119f4:	eeb07b40 	vmov.f64	d7, d0
   119f8:	eeb77bc7 	vcvt.f32.f64	s14, d7
   119fc:	eec87a07 	vdiv.f32	s15, s16, s14
   11a00:	eeb77ae7 	vcvt.f64.f32	d7, s15
   11a04:	eeb00b47 	vmov.f64	d0, d7
   11a08:	ebfffb2b 	bl	106bc <acos@plt>
   11a0c:	eeb07b40 	vmov.f64	d7, d0
   11a10:	eef77bc7 	vcvt.f32.f64	s15, d7
   11a14:	ed4b7a07 	vstr	s15, [fp, #-28]	; 0xffffffe4
   11a18:	e24b3018 	sub	r3, fp, #24
   11a1c:	e24b2024 	sub	r2, fp, #36	; 0x24
   11a20:	e8920007 	ldm	r2, {r0, r1, r2}
   11a24:	e8830007 	stm	r3, {r0, r1, r2}
   11a28:	e51b1018 	ldr	r1, [fp, #-24]	; 0xffffffe8
   11a2c:	e51b2014 	ldr	r2, [fp, #-20]	; 0xffffffec
   11a30:	e51b3010 	ldr	r3, [fp, #-16]
   11a34:	ee061a90 	vmov	s13, r1
   11a38:	ee072a10 	vmov	s14, r2
   11a3c:	ee073a90 	vmov	s15, r3
   11a40:	eeb00a66 	vmov.f32	s0, s13
   11a44:	eef00a47 	vmov.f32	s1, s14
   11a48:	eeb01a67 	vmov.f32	s2, s15
   11a4c:	e24bd00c 	sub	sp, fp, #12
   11a50:	ecbd8b02 	vpop	{d8}
   11a54:	e8bd4800 	pop	{fp, lr}
   11a58:	e28dd010 	add	sp, sp, #16
   11a5c:	e12fff1e 	bx	lr

00011a60 <get_setpoint>:
   11a60:	e92d4830 	push	{r4, r5, fp, lr}
   11a64:	ed2d8b04 	vpush	{d8-d9}
   11a68:	e28db01c 	add	fp, sp, #28
   11a6c:	e24dde21 	sub	sp, sp, #528	; 0x210
   11a70:	eef06a40 	vmov.f32	s13, s0
   11a74:	eeb07a60 	vmov.f32	s14, s1
   11a78:	eef07a41 	vmov.f32	s15, s2
   11a7c:	e50b012c 	str	r0, [fp, #-300]	; 0xfffffed4
   11a80:	e50b1130 	str	r1, [fp, #-304]	; 0xfffffed0
   11a84:	ed4b6a4a 	vstr	s13, [fp, #-296]	; 0xfffffed8
   11a88:	ed0b7a49 	vstr	s14, [fp, #-292]	; 0xfffffedc
   11a8c:	ed4b7a48 	vstr	s15, [fp, #-288]	; 0xfffffee0
   11a90:	e59f3750 	ldr	r3, [pc, #1872]	; 121e8 <get_setpoint+0x788>
   11a94:	e5933000 	ldr	r3, [r3]
   11a98:	e50b3020 	str	r3, [fp, #-32]	; 0xffffffe0
   11a9c:	e3a03000 	mov	r3, #0
   11aa0:	e54b3025 	strb	r3, [fp, #-37]	; 0xffffffdb
   11aa4:	e3a03000 	mov	r3, #0
   11aa8:	e54b3026 	strb	r3, [fp, #-38]	; 0xffffffda
   11aac:	e3a03000 	mov	r3, #0
   11ab0:	e50b3030 	str	r3, [fp, #-48]	; 0xffffffd0
   11ab4:	e59f372c 	ldr	r3, [pc, #1836]	; 121e8 <get_setpoint+0x788>
   11ab8:	e5933000 	ldr	r3, [r3]
   11abc:	ed5b6a4a 	vldr	s13, [fp, #-296]	; 0xfffffed8
   11ac0:	ed1b7a49 	vldr	s14, [fp, #-292]	; 0xfffffedc
   11ac4:	ed5b7a48 	vldr	s15, [fp, #-288]	; 0xfffffee0
   11ac8:	e1a01003 	mov	r1, r3
   11acc:	e51b012c 	ldr	r0, [fp, #-300]	; 0xfffffed4
   11ad0:	eeb00a66 	vmov.f32	s0, s13
   11ad4:	eef00a47 	vmov.f32	s1, s14
   11ad8:	eeb01a67 	vmov.f32	s2, s15
   11adc:	ebfffe42 	bl	113ec <projection>
   11ae0:	eeb07a40 	vmov.f32	s14, s0
   11ae4:	eef07a60 	vmov.f32	s15, s1
   11ae8:	ed0b7a3e 	vstr	s14, [fp, #-248]	; 0xffffff08
   11aec:	ed4b7a3d 	vstr	s15, [fp, #-244]	; 0xffffff0c
   11af0:	e59f36f0 	ldr	r3, [pc, #1776]	; 121e8 <get_setpoint+0x788>
   11af4:	e5933000 	ldr	r3, [r3]
   11af8:	ed1b7a3e 	vldr	s14, [fp, #-248]	; 0xffffff08
   11afc:	ed5b7a3d 	vldr	s15, [fp, #-244]	; 0xffffff0c
   11b00:	e1a01003 	mov	r1, r3
   11b04:	e51b012c 	ldr	r0, [fp, #-300]	; 0xfffffed4
   11b08:	eeb00a47 	vmov.f32	s0, s14
   11b0c:	eef00a67 	vmov.f32	s1, s15
   11b10:	ebfffd8a 	bl	11140 <get_max_range>
   11b14:	ed0b0a0d 	vstr	s0, [fp, #-52]	; 0xffffffcc
   11b18:	e59f36c8 	ldr	r3, [pc, #1736]	; 121e8 <get_setpoint+0x788>
   11b1c:	e5933000 	ldr	r3, [r3]
   11b20:	e3530000 	cmp	r3, #0
   11b24:	1a000002 	bne	11b34 <get_setpoint+0xd4>
   11b28:	e3a03000 	mov	r3, #0
   11b2c:	e50b3024 	str	r3, [fp, #-36]	; 0xffffffdc
   11b30:	ea000003 	b	11b44 <get_setpoint+0xe4>
   11b34:	e59f36ac 	ldr	r3, [pc, #1708]	; 121e8 <get_setpoint+0x788>
   11b38:	e5933000 	ldr	r3, [r3]
   11b3c:	e2433001 	sub	r3, r3, #1
   11b40:	e50b3024 	str	r3, [fp, #-36]	; 0xffffffdc
   11b44:	e51b312c 	ldr	r3, [fp, #-300]	; 0xfffffed4
   11b48:	e1d330b8 	ldrh	r3, [r3, #8]
   11b4c:	e2432001 	sub	r2, r3, #1
   11b50:	e59f3690 	ldr	r3, [pc, #1680]	; 121e8 <get_setpoint+0x788>
   11b54:	e5933000 	ldr	r3, [r3]
   11b58:	e1520003 	cmp	r2, r3
   11b5c:	1a0001c8 	bne	12284 <get_setpoint+0x824>
   11b60:	e51b312c 	ldr	r3, [fp, #-300]	; 0xfffffed4
   11b64:	e1d330b8 	ldrh	r3, [r3, #8]
   11b68:	e2433001 	sub	r3, r3, #1
   11b6c:	e51b212c 	ldr	r2, [fp, #-300]	; 0xfffffed4
   11b70:	e2833002 	add	r3, r3, #2
   11b74:	e1a03103 	lsl	r3, r3, #2
   11b78:	e0823003 	add	r3, r2, r3
   11b7c:	e5934004 	ldr	r4, [r3, #4]
   11b80:	e59f3668 	ldr	r3, [pc, #1640]	; 121f0 <get_setpoint+0x790>
   11b84:	ed939a00 	vldr	s18, [r3]
   11b88:	edd38a01 	vldr	s17, [r3, #4]
   11b8c:	ed938a02 	vldr	s16, [r3, #8]
   11b90:	e1a0000d 	mov	r0, sp
   11b94:	e2843010 	add	r3, r4, #16
   11b98:	e3a02044 	mov	r2, #68	; 0x44
   11b9c:	e1a01003 	mov	r1, r3
   11ba0:	ebfffab9 	bl	1068c <memcpy@plt>
   11ba4:	e894000f 	ldm	r4, {r0, r1, r2, r3}
   11ba8:	ed5b1a0d 	vldr	s3, [fp, #-52]	; 0xffffffcc
   11bac:	eeb00a49 	vmov.f32	s0, s18
   11bb0:	eef00a68 	vmov.f32	s1, s17
   11bb4:	eeb01a48 	vmov.f32	s2, s16
   11bb8:	ebffff16 	bl	11818 <eq_pos>
   11bbc:	e1a03000 	mov	r3, r0
   11bc0:	e3530000 	cmp	r3, #0
   11bc4:	0a0001ae 	beq	12284 <get_setpoint+0x824>
   11bc8:	e51b312c 	ldr	r3, [fp, #-300]	; 0xfffffed4
   11bcc:	e1d330b8 	ldrh	r3, [r3, #8]
   11bd0:	e2433002 	sub	r3, r3, #2
   11bd4:	e51b212c 	ldr	r2, [fp, #-300]	; 0xfffffed4
   11bd8:	e2833002 	add	r3, r3, #2
   11bdc:	e1a03103 	lsl	r3, r3, #2
   11be0:	e0823003 	add	r3, r2, r3
   11be4:	e5934004 	ldr	r4, [r3, #4]
   11be8:	e51b312c 	ldr	r3, [fp, #-300]	; 0xfffffed4
   11bec:	e1d330b8 	ldrh	r3, [r3, #8]
   11bf0:	e2433001 	sub	r3, r3, #1
   11bf4:	e51b212c 	ldr	r2, [fp, #-300]	; 0xfffffed4
   11bf8:	e2833002 	add	r3, r3, #2
   11bfc:	e1a03103 	lsl	r3, r3, #2
   11c00:	e0823003 	add	r3, r2, r3
   11c04:	e5933004 	ldr	r3, [r3, #4]
   11c08:	e28d0044 	add	r0, sp, #68	; 0x44
   11c0c:	e1a01003 	mov	r1, r3
   11c10:	e3a03054 	mov	r3, #84	; 0x54
   11c14:	e1a02003 	mov	r2, r3
   11c18:	ebfffa9b 	bl	1068c <memcpy@plt>
   11c1c:	e1a0000d 	mov	r0, sp
   11c20:	e2843010 	add	r3, r4, #16
   11c24:	e3a02044 	mov	r2, #68	; 0x44
   11c28:	e1a01003 	mov	r1, r3
   11c2c:	ebfffa96 	bl	1068c <memcpy@plt>
   11c30:	e894000f 	ldm	r4, {r0, r1, r2, r3}
   11c34:	ebffff2b 	bl	118e8 <get_pose_at_last_node>
   11c38:	eef06a40 	vmov.f32	s13, s0
   11c3c:	eeb07a60 	vmov.f32	s14, s1
   11c40:	eef07a41 	vmov.f32	s15, s2
   11c44:	e51b3130 	ldr	r3, [fp, #-304]	; 0xfffffed0
   11c48:	edc36a00 	vstr	s13, [r3]
   11c4c:	ed837a01 	vstr	s14, [r3, #4]
   11c50:	edc37a02 	vstr	s15, [r3, #8]
   11c54:	e3a03000 	mov	r3, #0
   11c58:	ea000372 	b	12a28 <get_setpoint+0xfc8>
   11c5c:	e51b212c 	ldr	r2, [fp, #-300]	; 0xfffffed4
   11c60:	e51b3020 	ldr	r3, [fp, #-32]	; 0xffffffe0
   11c64:	e2833002 	add	r3, r3, #2
   11c68:	e1a03103 	lsl	r3, r3, #2
   11c6c:	e0823003 	add	r3, r2, r3
   11c70:	e5932004 	ldr	r2, [r3, #4]
   11c74:	e24b30e8 	sub	r3, fp, #232	; 0xe8
   11c78:	e1a01002 	mov	r1, r2
   11c7c:	e3a02054 	mov	r2, #84	; 0x54
   11c80:	e1a00003 	mov	r0, r3
   11c84:	ebfffa80 	bl	1068c <memcpy@plt>
   11c88:	e51b30e4 	ldr	r3, [fp, #-228]	; 0xffffff1c
   11c8c:	e50b30f0 	str	r3, [fp, #-240]	; 0xffffff10
   11c90:	e51b30e0 	ldr	r3, [fp, #-224]	; 0xffffff20
   11c94:	e50b30ec 	str	r3, [fp, #-236]	; 0xffffff14
   11c98:	ed1b7a3e 	vldr	s14, [fp, #-248]	; 0xffffff08
   11c9c:	e51b212c 	ldr	r2, [fp, #-300]	; 0xfffffed4
   11ca0:	e51b3020 	ldr	r3, [fp, #-32]	; 0xffffffe0
   11ca4:	e2833002 	add	r3, r3, #2
   11ca8:	e1a03103 	lsl	r3, r3, #2
   11cac:	e0823003 	add	r3, r2, r3
   11cb0:	e5933004 	ldr	r3, [r3, #4]
   11cb4:	edd37a01 	vldr	s15, [r3, #4]
   11cb8:	ee377a67 	vsub.f32	s14, s14, s15
   11cbc:	ed5b6a3e 	vldr	s13, [fp, #-248]	; 0xffffff08
   11cc0:	e51b212c 	ldr	r2, [fp, #-300]	; 0xfffffed4
   11cc4:	e51b3020 	ldr	r3, [fp, #-32]	; 0xffffffe0
   11cc8:	e2833002 	add	r3, r3, #2
   11ccc:	e1a03103 	lsl	r3, r3, #2
   11cd0:	e0823003 	add	r3, r2, r3
   11cd4:	e5933004 	ldr	r3, [r3, #4]
   11cd8:	edd37a01 	vldr	s15, [r3, #4]
   11cdc:	ee767ae7 	vsub.f32	s15, s13, s15
   11ce0:	ee277a27 	vmul.f32	s14, s14, s15
   11ce4:	ed5b6a3d 	vldr	s13, [fp, #-244]	; 0xffffff0c
   11ce8:	e51b212c 	ldr	r2, [fp, #-300]	; 0xfffffed4
   11cec:	e51b3020 	ldr	r3, [fp, #-32]	; 0xffffffe0
   11cf0:	e2833002 	add	r3, r3, #2
   11cf4:	e1a03103 	lsl	r3, r3, #2
   11cf8:	e0823003 	add	r3, r2, r3
   11cfc:	e5933004 	ldr	r3, [r3, #4]
   11d00:	edd37a02 	vldr	s15, [r3, #8]
   11d04:	ee766ae7 	vsub.f32	s13, s13, s15
   11d08:	ed1b6a3d 	vldr	s12, [fp, #-244]	; 0xffffff0c
   11d0c:	e51b212c 	ldr	r2, [fp, #-300]	; 0xfffffed4
   11d10:	e51b3020 	ldr	r3, [fp, #-32]	; 0xffffffe0
   11d14:	e2833002 	add	r3, r3, #2
   11d18:	e1a03103 	lsl	r3, r3, #2
   11d1c:	e0823003 	add	r3, r2, r3
   11d20:	e5933004 	ldr	r3, [r3, #4]
   11d24:	edd37a02 	vldr	s15, [r3, #8]
   11d28:	ee767a67 	vsub.f32	s15, s12, s15
   11d2c:	ee667aa7 	vmul.f32	s15, s13, s15
   11d30:	ee777a27 	vadd.f32	s15, s14, s15
   11d34:	eeb77ae7 	vcvt.f64.f32	d7, s15
   11d38:	eeb00b47 	vmov.f64	d0, d7
   11d3c:	ebfffa73 	bl	10710 <sqrt@plt>
   11d40:	eeb07b40 	vmov.f64	d7, d0
   11d44:	eef77bc7 	vcvt.f32.f64	s15, d7
   11d48:	ed4b7a0c 	vstr	s15, [fp, #-48]	; 0xffffffd0
   11d4c:	ed1b7a0c 	vldr	s14, [fp, #-48]	; 0xffffffd0
   11d50:	ed5b7a0d 	vldr	s15, [fp, #-52]	; 0xffffffcc
   11d54:	eeb47ae7 	vcmpe.f32	s14, s15
   11d58:	eef1fa10 	vmrs	APSR_nzcv, fpscr
   11d5c:	c3a03001 	movgt	r3, #1
   11d60:	d3a03000 	movle	r3, #0
   11d64:	e6ef3073 	uxtb	r3, r3
   11d68:	e54b3025 	strb	r3, [fp, #-37]	; 0xffffffdb
   11d6c:	e15b32d5 	ldrsb	r3, [fp, #-37]	; 0xffffffdb
   11d70:	e3530000 	cmp	r3, #0
   11d74:	1a000142 	bne	12284 <get_setpoint+0x824>
   11d78:	ea000083 	b	11f8c <get_setpoint+0x52c>
   11d7c:	e51b312c 	ldr	r3, [fp, #-300]	; 0xfffffed4
   11d80:	e1d330b8 	ldrh	r3, [r3, #8]
   11d84:	e2432002 	sub	r2, r3, #2
   11d88:	e59f344c 	ldr	r3, [pc, #1100]	; 121dc <get_setpoint+0x77c>
   11d8c:	e5933000 	ldr	r3, [r3]
   11d90:	e1520003 	cmp	r2, r3
   11d94:	aa000028 	bge	11e3c <get_setpoint+0x3dc>
   11d98:	e59f343c 	ldr	r3, [pc, #1084]	; 121dc <get_setpoint+0x77c>
   11d9c:	e5933000 	ldr	r3, [r3]
   11da0:	e51b212c 	ldr	r2, [fp, #-300]	; 0xfffffed4
   11da4:	e2833002 	add	r3, r3, #2
   11da8:	e1a03103 	lsl	r3, r3, #2
   11dac:	e0823003 	add	r3, r2, r3
   11db0:	e5934004 	ldr	r4, [r3, #4]
   11db4:	e59f3420 	ldr	r3, [pc, #1056]	; 121dc <get_setpoint+0x77c>
   11db8:	e5933000 	ldr	r3, [r3]
   11dbc:	e2433001 	sub	r3, r3, #1
   11dc0:	e51b212c 	ldr	r2, [fp, #-300]	; 0xfffffed4
   11dc4:	e2833002 	add	r3, r3, #2
   11dc8:	e1a03103 	lsl	r3, r3, #2
   11dcc:	e0823003 	add	r3, r2, r3
   11dd0:	e5930004 	ldr	r0, [r3, #4]
   11dd4:	e59f3400 	ldr	r3, [pc, #1024]	; 121dc <get_setpoint+0x77c>
   11dd8:	e5933000 	ldr	r3, [r3]
   11ddc:	e1a03183 	lsl	r3, r3, #3
   11de0:	e59f23f8 	ldr	r2, [pc, #1016]	; 121e0 <get_setpoint+0x780>
   11de4:	e0833002 	add	r3, r3, r2
   11de8:	e59f23ec 	ldr	r2, [pc, #1004]	; 121dc <get_setpoint+0x77c>
   11dec:	e5922000 	ldr	r2, [r2]
   11df0:	e1a02182 	lsl	r2, r2, #3
   11df4:	e59f13e8 	ldr	r1, [pc, #1000]	; 121e4 <get_setpoint+0x784>
   11df8:	e0822001 	add	r2, r2, r1
   11dfc:	e58d209c 	str	r2, [sp, #156]	; 0x9c
   11e00:	e58d3098 	str	r3, [sp, #152]	; 0x98
   11e04:	e28d3044 	add	r3, sp, #68	; 0x44
   11e08:	e1a01000 	mov	r1, r0
   11e0c:	e3a02054 	mov	r2, #84	; 0x54
   11e10:	e1a00003 	mov	r0, r3
   11e14:	ebfffa1c 	bl	1068c <memcpy@plt>
   11e18:	e1a0000d 	mov	r0, sp
   11e1c:	e2843010 	add	r3, r4, #16
   11e20:	e3a02044 	mov	r2, #68	; 0x44
   11e24:	e1a01003 	mov	r1, r3
   11e28:	ebfffa17 	bl	1068c <memcpy@plt>
   11e2c:	e894000f 	ldm	r4, {r0, r1, r2, r3}
   11e30:	ed9f0ae8 	vldr	s0, [pc, #928]	; 121d8 <get_setpoint+0x778>
   11e34:	eb00092c 	bl	142ec <side_lr_points>
   11e38:	ea00004e 	b	11f78 <get_setpoint+0x518>
   11e3c:	e59f3398 	ldr	r3, [pc, #920]	; 121dc <get_setpoint+0x77c>
   11e40:	e5933000 	ldr	r3, [r3]
   11e44:	e3530000 	cmp	r3, #0
   11e48:	1a000015 	bne	11ea4 <get_setpoint+0x444>
   11e4c:	e51b312c 	ldr	r3, [fp, #-300]	; 0xfffffed4
   11e50:	e593400c 	ldr	r4, [r3, #12]
   11e54:	e51b312c 	ldr	r3, [fp, #-300]	; 0xfffffed4
   11e58:	e5932010 	ldr	r2, [r3, #16]
   11e5c:	e59f337c 	ldr	r3, [pc, #892]	; 121e0 <get_setpoint+0x780>
   11e60:	e58d309c 	str	r3, [sp, #156]	; 0x9c
   11e64:	e59f3378 	ldr	r3, [pc, #888]	; 121e4 <get_setpoint+0x784>
   11e68:	e58d3098 	str	r3, [sp, #152]	; 0x98
   11e6c:	e28d3044 	add	r3, sp, #68	; 0x44
   11e70:	e1a01002 	mov	r1, r2
   11e74:	e3a02054 	mov	r2, #84	; 0x54
   11e78:	e1a00003 	mov	r0, r3
   11e7c:	ebfffa02 	bl	1068c <memcpy@plt>
   11e80:	e1a0000d 	mov	r0, sp
   11e84:	e2843010 	add	r3, r4, #16
   11e88:	e3a02044 	mov	r2, #68	; 0x44
   11e8c:	e1a01003 	mov	r1, r3
   11e90:	ebfff9fd 	bl	1068c <memcpy@plt>
   11e94:	e894000f 	ldm	r4, {r0, r1, r2, r3}
   11e98:	ed9f0ace 	vldr	s0, [pc, #824]	; 121d8 <get_setpoint+0x778>
   11e9c:	eb000912 	bl	142ec <side_lr_points>
   11ea0:	ea000034 	b	11f78 <get_setpoint+0x518>
   11ea4:	e59f3330 	ldr	r3, [pc, #816]	; 121dc <get_setpoint+0x77c>
   11ea8:	e5933000 	ldr	r3, [r3]
   11eac:	e2433001 	sub	r3, r3, #1
   11eb0:	e51b212c 	ldr	r2, [fp, #-300]	; 0xfffffed4
   11eb4:	e2833002 	add	r3, r3, #2
   11eb8:	e1a03103 	lsl	r3, r3, #2
   11ebc:	e0823003 	add	r3, r2, r3
   11ec0:	e5934004 	ldr	r4, [r3, #4]
   11ec4:	e59f3310 	ldr	r3, [pc, #784]	; 121dc <get_setpoint+0x77c>
   11ec8:	e5933000 	ldr	r3, [r3]
   11ecc:	e51b212c 	ldr	r2, [fp, #-300]	; 0xfffffed4
   11ed0:	e2833002 	add	r3, r3, #2
   11ed4:	e1a03103 	lsl	r3, r3, #2
   11ed8:	e0823003 	add	r3, r2, r3
   11edc:	e5935004 	ldr	r5, [r3, #4]
   11ee0:	e59f32f4 	ldr	r3, [pc, #756]	; 121dc <get_setpoint+0x77c>
   11ee4:	e5933000 	ldr	r3, [r3]
   11ee8:	e2833001 	add	r3, r3, #1
   11eec:	e51b212c 	ldr	r2, [fp, #-300]	; 0xfffffed4
   11ef0:	e2833002 	add	r3, r3, #2
   11ef4:	e1a03103 	lsl	r3, r3, #2
   11ef8:	e0823003 	add	r3, r2, r3
   11efc:	e5930004 	ldr	r0, [r3, #4]
   11f00:	e59f32d4 	ldr	r3, [pc, #724]	; 121dc <get_setpoint+0x77c>
   11f04:	e5933000 	ldr	r3, [r3]
   11f08:	e1a03183 	lsl	r3, r3, #3
   11f0c:	e59f22d0 	ldr	r2, [pc, #720]	; 121e4 <get_setpoint+0x784>
   11f10:	e0833002 	add	r3, r3, r2
   11f14:	e59f22c0 	ldr	r2, [pc, #704]	; 121dc <get_setpoint+0x77c>
   11f18:	e5922000 	ldr	r2, [r2]
   11f1c:	e1a02182 	lsl	r2, r2, #3
   11f20:	e59f12b8 	ldr	r1, [pc, #696]	; 121e0 <get_setpoint+0x780>
   11f24:	e0822001 	add	r2, r2, r1
   11f28:	e58d20f0 	str	r2, [sp, #240]	; 0xf0
   11f2c:	e58d30ec 	str	r3, [sp, #236]	; 0xec
   11f30:	e28d3098 	add	r3, sp, #152	; 0x98
   11f34:	e1a01000 	mov	r1, r0
   11f38:	e3a02054 	mov	r2, #84	; 0x54
   11f3c:	e1a00003 	mov	r0, r3
   11f40:	ebfff9d1 	bl	1068c <memcpy@plt>
   11f44:	e28d3044 	add	r3, sp, #68	; 0x44
   11f48:	e1a01005 	mov	r1, r5
   11f4c:	e3a02054 	mov	r2, #84	; 0x54
   11f50:	e1a00003 	mov	r0, r3
   11f54:	ebfff9cc 	bl	1068c <memcpy@plt>
   11f58:	e1a0000d 	mov	r0, sp
   11f5c:	e2843010 	add	r3, r4, #16
   11f60:	e3a02044 	mov	r2, #68	; 0x44
   11f64:	e1a01003 	mov	r1, r3
   11f68:	ebfff9c7 	bl	1068c <memcpy@plt>
   11f6c:	e894000f 	ldm	r4, {r0, r1, r2, r3}
   11f70:	ed9f0a98 	vldr	s0, [pc, #608]	; 121d8 <get_setpoint+0x778>
   11f74:	eb000953 	bl	144c8 <lr_points>
   11f78:	e59f325c 	ldr	r3, [pc, #604]	; 121dc <get_setpoint+0x77c>
   11f7c:	e5933000 	ldr	r3, [r3]
   11f80:	e2833001 	add	r3, r3, #1
   11f84:	e59f2250 	ldr	r2, [pc, #592]	; 121dc <get_setpoint+0x77c>
   11f88:	e5823000 	str	r3, [r2]
   11f8c:	e59f3248 	ldr	r3, [pc, #584]	; 121dc <get_setpoint+0x77c>
   11f90:	e5932000 	ldr	r2, [r3]
   11f94:	e51b3020 	ldr	r3, [fp, #-32]	; 0xffffffe0
   11f98:	e1520003 	cmp	r2, r3
   11f9c:	daffff76 	ble	11d7c <get_setpoint+0x31c>
   11fa0:	e59f3234 	ldr	r3, [pc, #564]	; 121dc <get_setpoint+0x77c>
   11fa4:	e5933000 	ldr	r3, [r3]
   11fa8:	e3530000 	cmp	r3, #0
   11fac:	da00000f 	ble	11ff0 <get_setpoint+0x590>
   11fb0:	e59f3224 	ldr	r3, [pc, #548]	; 121dc <get_setpoint+0x77c>
   11fb4:	e5931000 	ldr	r1, [r3]
   11fb8:	ed1b6a3c 	vldr	s12, [fp, #-240]	; 0xffffff10
   11fbc:	ed5b6a3b 	vldr	s13, [fp, #-236]	; 0xffffff14
   11fc0:	ed1b7a3e 	vldr	s14, [fp, #-248]	; 0xffffff08
   11fc4:	ed5b7a3d 	vldr	s15, [fp, #-244]	; 0xffffff0c
   11fc8:	e59f3210 	ldr	r3, [pc, #528]	; 121e0 <get_setpoint+0x780>
   11fcc:	e59f2210 	ldr	r2, [pc, #528]	; 121e4 <get_setpoint+0x784>
   11fd0:	e51b0024 	ldr	r0, [fp, #-36]	; 0xffffffdc
   11fd4:	eeb01a46 	vmov.f32	s2, s12
   11fd8:	eef01a66 	vmov.f32	s3, s13
   11fdc:	eeb00a47 	vmov.f32	s0, s14
   11fe0:	eef00a67 	vmov.f32	s1, s15
   11fe4:	eb000809 	bl	14010 <test_intersection_point>
   11fe8:	e1a03000 	mov	r3, r0
   11fec:	e54b3026 	strb	r3, [fp, #-38]	; 0xffffffda
   11ff0:	e15b32d6 	ldrsb	r3, [fp, #-38]	; 0xffffffda
   11ff4:	e3530000 	cmp	r3, #0
   11ff8:	1a0000a1 	bne	12284 <get_setpoint+0x824>
   11ffc:	e1a0000d 	mov	r0, sp
   12000:	e24b30d8 	sub	r3, fp, #216	; 0xd8
   12004:	e3a02044 	mov	r2, #68	; 0x44
   12008:	e1a01003 	mov	r1, r3
   1200c:	ebfff99e 	bl	1068c <memcpy@plt>
   12010:	e24b30e8 	sub	r3, fp, #232	; 0xe8
   12014:	e893000f 	ldm	r3, {r0, r1, r2, r3}
   12018:	ebfffdea 	bl	117c8 <is_mandatory>
   1201c:	e1a03000 	mov	r3, r0
   12020:	e3530000 	cmp	r3, #0
   12024:	0a000009 	beq	12050 <get_setpoint+0x5f0>
   12028:	ed1b7a3e 	vldr	s14, [fp, #-248]	; 0xffffff08
   1202c:	ed5b7a39 	vldr	s15, [fp, #-228]	; 0xffffff1c
   12030:	eeb47a67 	vcmp.f32	s14, s15
   12034:	eef1fa10 	vmrs	APSR_nzcv, fpscr
   12038:	1a00000a 	bne	12068 <get_setpoint+0x608>
   1203c:	ed1b7a3d 	vldr	s14, [fp, #-244]	; 0xffffff0c
   12040:	ed5b7a38 	vldr	s15, [fp, #-224]	; 0xffffff20
   12044:	eeb47a67 	vcmp.f32	s14, s15
   12048:	eef1fa10 	vmrs	APSR_nzcv, fpscr
   1204c:	1a000005 	bne	12068 <get_setpoint+0x608>
   12050:	e51b312c 	ldr	r3, [fp, #-300]	; 0xfffffed4
   12054:	e1d330b8 	ldrh	r3, [r3, #8]
   12058:	e2432001 	sub	r2, r3, #1
   1205c:	e51b3020 	ldr	r3, [fp, #-32]	; 0xffffffe0
   12060:	e1520003 	cmp	r2, r3
   12064:	1a000083 	bne	12278 <get_setpoint+0x818>
   12068:	e51b3020 	ldr	r3, [fp, #-32]	; 0xffffffe0
   1206c:	e3530000 	cmp	r3, #0
   12070:	0a000012 	beq	120c0 <get_setpoint+0x660>
   12074:	e51b3020 	ldr	r3, [fp, #-32]	; 0xffffffe0
   12078:	e2433001 	sub	r3, r3, #1
   1207c:	e51b212c 	ldr	r2, [fp, #-300]	; 0xfffffed4
   12080:	e2833002 	add	r3, r3, #2
   12084:	e1a03103 	lsl	r3, r3, #2
   12088:	e0823003 	add	r3, r2, r3
   1208c:	e5933004 	ldr	r3, [r3, #4]
   12090:	e5933004 	ldr	r3, [r3, #4]
   12094:	e50b3100 	str	r3, [fp, #-256]	; 0xffffff00
   12098:	e51b3020 	ldr	r3, [fp, #-32]	; 0xffffffe0
   1209c:	e2433001 	sub	r3, r3, #1
   120a0:	e51b212c 	ldr	r2, [fp, #-300]	; 0xfffffed4
   120a4:	e2833002 	add	r3, r3, #2
   120a8:	e1a03103 	lsl	r3, r3, #2
   120ac:	e0823003 	add	r3, r2, r3
   120b0:	e5933004 	ldr	r3, [r3, #4]
   120b4:	e5933008 	ldr	r3, [r3, #8]
   120b8:	e50b30fc 	str	r3, [fp, #-252]	; 0xffffff04
   120bc:	ea000003 	b	120d0 <get_setpoint+0x670>
   120c0:	e51b30f8 	ldr	r3, [fp, #-248]	; 0xffffff08
   120c4:	e50b3100 	str	r3, [fp, #-256]	; 0xffffff00
   120c8:	e51b30f4 	ldr	r3, [fp, #-244]	; 0xffffff0c
   120cc:	e50b30fc 	str	r3, [fp, #-252]	; 0xffffff04
   120d0:	e51b20e4 	ldr	r2, [fp, #-228]	; 0xffffff1c
   120d4:	e51b3130 	ldr	r3, [fp, #-304]	; 0xfffffed0
   120d8:	e5832000 	str	r2, [r3]
   120dc:	e51b20e0 	ldr	r2, [fp, #-224]	; 0xffffff20
   120e0:	e51b3130 	ldr	r3, [fp, #-304]	; 0xfffffed0
   120e4:	e5832004 	str	r2, [r3, #4]
   120e8:	ed1b7a39 	vldr	s14, [fp, #-228]	; 0xffffff1c
   120ec:	ed5b7a40 	vldr	s15, [fp, #-256]	; 0xffffff00
   120f0:	ee378a67 	vsub.f32	s16, s14, s15
   120f4:	ed1b7a40 	vldr	s14, [fp, #-256]	; 0xffffff00
   120f8:	ed5b7a39 	vldr	s15, [fp, #-228]	; 0xffffff1c
   120fc:	ee377a67 	vsub.f32	s14, s14, s15
   12100:	ed5b6a40 	vldr	s13, [fp, #-256]	; 0xffffff00
   12104:	ed5b7a39 	vldr	s15, [fp, #-228]	; 0xffffff1c
   12108:	ee767ae7 	vsub.f32	s15, s13, s15
   1210c:	ee277a27 	vmul.f32	s14, s14, s15
   12110:	ed5b6a3f 	vldr	s13, [fp, #-252]	; 0xffffff04
   12114:	ed5b7a38 	vldr	s15, [fp, #-224]	; 0xffffff20
   12118:	ee766ae7 	vsub.f32	s13, s13, s15
   1211c:	ed1b6a3f 	vldr	s12, [fp, #-252]	; 0xffffff04
   12120:	ed5b7a38 	vldr	s15, [fp, #-224]	; 0xffffff20
   12124:	ee767a67 	vsub.f32	s15, s12, s15
   12128:	ee667aa7 	vmul.f32	s15, s13, s15
   1212c:	ee777a27 	vadd.f32	s15, s14, s15
   12130:	eeb77ae7 	vcvt.f64.f32	d7, s15
   12134:	eeb00b47 	vmov.f64	d0, d7
   12138:	ebfff974 	bl	10710 <sqrt@plt>
   1213c:	eeb07b40 	vmov.f64	d7, d0
   12140:	eeb77bc7 	vcvt.f32.f64	s14, d7
   12144:	eec87a07 	vdiv.f32	s15, s16, s14
   12148:	eeb77ae7 	vcvt.f64.f32	d7, s15
   1214c:	eeb00b47 	vmov.f64	d0, d7
   12150:	ebfff959 	bl	106bc <acos@plt>
   12154:	eeb07b40 	vmov.f64	d7, d0
   12158:	eef77bc7 	vcvt.f32.f64	s15, d7
   1215c:	e51b3130 	ldr	r3, [fp, #-304]	; 0xfffffed0
   12160:	edc37a02 	vstr	s15, [r3, #8]
   12164:	ed1b7a3f 	vldr	s14, [fp, #-252]	; 0xffffff04
   12168:	ed5b7a38 	vldr	s15, [fp, #-224]	; 0xffffff20
   1216c:	eeb47ae7 	vcmpe.f32	s14, s15
   12170:	eef1fa10 	vmrs	APSR_nzcv, fpscr
   12174:	da000003 	ble	12188 <get_setpoint+0x728>
   12178:	e51b3130 	ldr	r3, [fp, #-304]	; 0xfffffed0
   1217c:	edd37a02 	vldr	s15, [r3, #8]
   12180:	eef17a67 	vneg.f32	s15, s15
   12184:	ea000001 	b	12190 <get_setpoint+0x730>
   12188:	e51b3130 	ldr	r3, [fp, #-304]	; 0xfffffed0
   1218c:	edd37a02 	vldr	s15, [r3, #8]
   12190:	e51b3130 	ldr	r3, [fp, #-304]	; 0xfffffed0
   12194:	edc37a02 	vstr	s15, [r3, #8]
   12198:	e59f2048 	ldr	r2, [pc, #72]	; 121e8 <get_setpoint+0x788>
   1219c:	e51b3020 	ldr	r3, [fp, #-32]	; 0xffffffe0
   121a0:	e5823000 	str	r3, [r2]
   121a4:	e59f3040 	ldr	r3, [pc, #64]	; 121ec <get_setpoint+0x78c>
   121a8:	e1d330d0 	ldrsb	r3, [r3]
   121ac:	e3530000 	cmp	r3, #0
   121b0:	0a00000f 	beq	121f4 <get_setpoint+0x794>
   121b4:	e59f3034 	ldr	r3, [pc, #52]	; 121f0 <get_setpoint+0x790>
   121b8:	e51b2130 	ldr	r2, [fp, #-304]	; 0xfffffed0
   121bc:	e8920007 	ldm	r2, {r0, r1, r2}
   121c0:	e8830007 	stm	r3, {r0, r1, r2}
   121c4:	e59f3020 	ldr	r3, [pc, #32]	; 121ec <get_setpoint+0x78c>
   121c8:	e3a02000 	mov	r2, #0
   121cc:	e5c32000 	strb	r2, [r3]
   121d0:	e3a03001 	mov	r3, #1
   121d4:	ea000213 	b	12a28 <get_setpoint+0xfc8>
   121d8:	3d4ccccd 	stclcc	12, cr12, [ip, #-820]	; 0xfffffccc
   121dc:	0002709c 	muleq	r2, ip, r0
   121e0:	000270a0 	andeq	r7, r2, r0, lsr #1
   121e4:	00028fe0 	andeq	r8, r2, r0, ror #31
   121e8:	0002708c 	andeq	r7, r2, ip, lsl #1
   121ec:	0002706c 	andeq	r7, r2, ip, rrx
   121f0:	00027090 	muleq	r2, r0, r0
   121f4:	e51b312c 	ldr	r3, [fp, #-300]	; 0xfffffed4
   121f8:	e1d330b8 	ldrh	r3, [r3, #8]
   121fc:	e2432001 	sub	r2, r3, #1
   12200:	e51b3020 	ldr	r3, [fp, #-32]	; 0xffffffe0
   12204:	e1520003 	cmp	r2, r3
   12208:	0a000014 	beq	12260 <get_setpoint+0x800>
   1220c:	e51b3130 	ldr	r3, [fp, #-304]	; 0xfffffed0
   12210:	ed937a00 	vldr	s14, [r3]
   12214:	e51f302c 	ldr	r3, [pc, #-44]	; 121f0 <get_setpoint+0x790>
   12218:	edd37a00 	vldr	s15, [r3]
   1221c:	eeb47a67 	vcmp.f32	s14, s15
   12220:	eef1fa10 	vmrs	APSR_nzcv, fpscr
   12224:	1a00000d 	bne	12260 <get_setpoint+0x800>
   12228:	e51b3130 	ldr	r3, [fp, #-304]	; 0xfffffed0
   1222c:	ed937a01 	vldr	s14, [r3, #4]
   12230:	e51f3048 	ldr	r3, [pc, #-72]	; 121f0 <get_setpoint+0x790>
   12234:	edd37a01 	vldr	s15, [r3, #4]
   12238:	eeb47a67 	vcmp.f32	s14, s15
   1223c:	eef1fa10 	vmrs	APSR_nzcv, fpscr
   12240:	1a000006 	bne	12260 <get_setpoint+0x800>
   12244:	e51b3130 	ldr	r3, [fp, #-304]	; 0xfffffed0
   12248:	ed937a02 	vldr	s14, [r3, #8]
   1224c:	e51f3064 	ldr	r3, [pc, #-100]	; 121f0 <get_setpoint+0x790>
   12250:	edd37a02 	vldr	s15, [r3, #8]
   12254:	eeb47a67 	vcmp.f32	s14, s15
   12258:	eef1fa10 	vmrs	APSR_nzcv, fpscr
   1225c:	0a000005 	beq	12278 <get_setpoint+0x818>
   12260:	e51f3078 	ldr	r3, [pc, #-120]	; 121f0 <get_setpoint+0x790>
   12264:	e51b2130 	ldr	r2, [fp, #-304]	; 0xfffffed0
   12268:	e8920007 	ldm	r2, {r0, r1, r2}
   1226c:	e8830007 	stm	r3, {r0, r1, r2}
   12270:	e3a03002 	mov	r3, #2
   12274:	ea0001eb 	b	12a28 <get_setpoint+0xfc8>
   12278:	e51b3020 	ldr	r3, [fp, #-32]	; 0xffffffe0
   1227c:	e2833001 	add	r3, r3, #1
   12280:	e50b3020 	str	r3, [fp, #-32]	; 0xffffffe0
   12284:	e15b32d5 	ldrsb	r3, [fp, #-37]	; 0xffffffdb
   12288:	e3530000 	cmp	r3, #0
   1228c:	1a000002 	bne	1229c <get_setpoint+0x83c>
   12290:	e15b32d6 	ldrsb	r3, [fp, #-38]	; 0xffffffda
   12294:	e3530000 	cmp	r3, #0
   12298:	0afffe6f 	beq	11c5c <get_setpoint+0x1fc>
   1229c:	e15b32d5 	ldrsb	r3, [fp, #-37]	; 0xffffffdb
   122a0:	e3530000 	cmp	r3, #0
   122a4:	0a00006d 	beq	12460 <get_setpoint+0xa00>
   122a8:	e51b212c 	ldr	r2, [fp, #-300]	; 0xfffffed4
   122ac:	e51b3020 	ldr	r3, [fp, #-32]	; 0xffffffe0
   122b0:	e2833002 	add	r3, r3, #2
   122b4:	e1a03103 	lsl	r3, r3, #2
   122b8:	e0823003 	add	r3, r2, r3
   122bc:	e5934004 	ldr	r4, [r3, #4]
   122c0:	ed5b8a3e 	vldr	s17, [fp, #-248]	; 0xffffff08
   122c4:	ed1b8a3d 	vldr	s16, [fp, #-244]	; 0xffffff0c
   122c8:	e1a0000d 	mov	r0, sp
   122cc:	e2843010 	add	r3, r4, #16
   122d0:	e3a02044 	mov	r2, #68	; 0x44
   122d4:	e1a01003 	mov	r1, r3
   122d8:	ebfff8eb 	bl	1068c <memcpy@plt>
   122dc:	e894000f 	ldm	r4, {r0, r1, r2, r3}
   122e0:	ed1b1a0d 	vldr	s2, [fp, #-52]	; 0xffffffcc
   122e4:	eeb00a68 	vmov.f32	s0, s17
   122e8:	eef00a48 	vmov.f32	s1, s16
   122ec:	eb00094e 	bl	1482c <segPoint_point_node>
   122f0:	eef06a40 	vmov.f32	s13, s0
   122f4:	eeb07a60 	vmov.f32	s14, s1
   122f8:	eef07a41 	vmov.f32	s15, s2
   122fc:	e51b3130 	ldr	r3, [fp, #-304]	; 0xfffffed0
   12300:	edc36a00 	vstr	s13, [r3]
   12304:	ed837a01 	vstr	s14, [r3, #4]
   12308:	edc37a02 	vstr	s15, [r3, #8]
   1230c:	e51f3138 	ldr	r3, [pc, #-312]	; 121dc <get_setpoint+0x77c>
   12310:	e5931000 	ldr	r1, [r3]
   12314:	e51b3130 	ldr	r3, [fp, #-304]	; 0xfffffed0
   12318:	edd35a00 	vldr	s11, [r3]
   1231c:	ed936a01 	vldr	s12, [r3, #4]
   12320:	edd36a02 	vldr	s13, [r3, #8]
   12324:	ed1b7a3e 	vldr	s14, [fp, #-248]	; 0xffffff08
   12328:	ed5b7a3d 	vldr	s15, [fp, #-244]	; 0xffffff0c
   1232c:	e51f3154 	ldr	r3, [pc, #-340]	; 121e0 <get_setpoint+0x780>
   12330:	e51f2154 	ldr	r2, [pc, #-340]	; 121e4 <get_setpoint+0x784>
   12334:	e51b0024 	ldr	r0, [fp, #-36]	; 0xffffffdc
   12338:	eeb01a65 	vmov.f32	s2, s11
   1233c:	eef01a46 	vmov.f32	s3, s12
   12340:	eeb02a66 	vmov.f32	s4, s13
   12344:	eeb00a47 	vmov.f32	s0, s14
   12348:	eef00a67 	vmov.f32	s1, s15
   1234c:	eb0007c0 	bl	14254 <test_intersection_pos>
   12350:	e1a03000 	mov	r3, r0
   12354:	e54b3026 	strb	r3, [fp, #-38]	; 0xffffffda
   12358:	e15b32d6 	ldrsb	r3, [fp, #-38]	; 0xffffffda
   1235c:	e3530000 	cmp	r3, #0
   12360:	1a00003e 	bne	12460 <get_setpoint+0xa00>
   12364:	e51b3020 	ldr	r3, [fp, #-32]	; 0xffffffe0
   12368:	e3530000 	cmp	r3, #0
   1236c:	da00001c 	ble	123e4 <get_setpoint+0x984>
   12370:	e51b3020 	ldr	r3, [fp, #-32]	; 0xffffffe0
   12374:	e2433001 	sub	r3, r3, #1
   12378:	e51b212c 	ldr	r2, [fp, #-300]	; 0xfffffed4
   1237c:	e2833002 	add	r3, r3, #2
   12380:	e1a03103 	lsl	r3, r3, #2
   12384:	e0823003 	add	r3, r2, r3
   12388:	e5934004 	ldr	r4, [r3, #4]
   1238c:	e51b212c 	ldr	r2, [fp, #-300]	; 0xfffffed4
   12390:	e51b3020 	ldr	r3, [fp, #-32]	; 0xffffffe0
   12394:	e2833002 	add	r3, r3, #2
   12398:	e1a03103 	lsl	r3, r3, #2
   1239c:	e0823003 	add	r3, r2, r3
   123a0:	e5933004 	ldr	r3, [r3, #4]
   123a4:	e28d0044 	add	r0, sp, #68	; 0x44
   123a8:	e1a01003 	mov	r1, r3
   123ac:	e3a03054 	mov	r3, #84	; 0x54
   123b0:	e1a02003 	mov	r2, r3
   123b4:	ebfff8b4 	bl	1068c <memcpy@plt>
   123b8:	e1a0000d 	mov	r0, sp
   123bc:	e2843010 	add	r3, r4, #16
   123c0:	e3a02044 	mov	r2, #68	; 0x44
   123c4:	e1a01003 	mov	r1, r3
   123c8:	ebfff8af 	bl	1068c <memcpy@plt>
   123cc:	e894000f 	ldm	r4, {r0, r1, r2, r3}
   123d0:	eb0009df 	bl	14b54 <compute_theta>
   123d4:	eef07a40 	vmov.f32	s15, s0
   123d8:	e51b3130 	ldr	r3, [fp, #-304]	; 0xfffffed0
   123dc:	edc37a02 	vstr	s15, [r3, #8]
   123e0:	ea000012 	b	12430 <get_setpoint+0x9d0>
   123e4:	e51b312c 	ldr	r3, [fp, #-300]	; 0xfffffed4
   123e8:	e593400c 	ldr	r4, [r3, #12]
   123ec:	e51b312c 	ldr	r3, [fp, #-300]	; 0xfffffed4
   123f0:	e5933010 	ldr	r3, [r3, #16]
   123f4:	e28d0044 	add	r0, sp, #68	; 0x44
   123f8:	e1a01003 	mov	r1, r3
   123fc:	e3a03054 	mov	r3, #84	; 0x54
   12400:	e1a02003 	mov	r2, r3
   12404:	ebfff8a0 	bl	1068c <memcpy@plt>
   12408:	e1a0000d 	mov	r0, sp
   1240c:	e2843010 	add	r3, r4, #16
   12410:	e3a02044 	mov	r2, #68	; 0x44
   12414:	e1a01003 	mov	r1, r3
   12418:	ebfff89b 	bl	1068c <memcpy@plt>
   1241c:	e894000f 	ldm	r4, {r0, r1, r2, r3}
   12420:	eb0009cb 	bl	14b54 <compute_theta>
   12424:	eef07a40 	vmov.f32	s15, s0
   12428:	e51b3130 	ldr	r3, [fp, #-304]	; 0xfffffed0
   1242c:	edc37a02 	vstr	s15, [r3, #8]
   12430:	e51f2250 	ldr	r2, [pc, #-592]	; 121e8 <get_setpoint+0x788>
   12434:	e51b3020 	ldr	r3, [fp, #-32]	; 0xffffffe0
   12438:	e5823000 	str	r3, [r2]
   1243c:	e51f3258 	ldr	r3, [pc, #-600]	; 121ec <get_setpoint+0x78c>
   12440:	e3a02000 	mov	r2, #0
   12444:	e5c32000 	strb	r2, [r3]
   12448:	e51f3260 	ldr	r3, [pc, #-608]	; 121f0 <get_setpoint+0x790>
   1244c:	e51b2130 	ldr	r2, [fp, #-304]	; 0xfffffed0
   12450:	e8920007 	ldm	r2, {r0, r1, r2}
   12454:	e8830007 	stm	r3, {r0, r1, r2}
   12458:	e3a03003 	mov	r3, #3
   1245c:	ea000171 	b	12a28 <get_setpoint+0xfc8>
   12460:	e15b32d6 	ldrsb	r3, [fp, #-38]	; 0xffffffda
   12464:	e3530000 	cmp	r3, #0
   12468:	0a00016d 	beq	12a24 <get_setpoint+0xfc4>
   1246c:	e51b30f8 	ldr	r3, [fp, #-248]	; 0xffffff08
   12470:	e50b310c 	str	r3, [fp, #-268]	; 0xfffffef4
   12474:	e51b30f4 	ldr	r3, [fp, #-244]	; 0xffffff0c
   12478:	e50b3108 	str	r3, [fp, #-264]	; 0xfffffef8
   1247c:	e51b212c 	ldr	r2, [fp, #-300]	; 0xfffffed4
   12480:	e51b3020 	ldr	r3, [fp, #-32]	; 0xffffffe0
   12484:	e2833002 	add	r3, r3, #2
   12488:	e1a03103 	lsl	r3, r3, #2
   1248c:	e0823003 	add	r3, r2, r3
   12490:	e5933004 	ldr	r3, [r3, #4]
   12494:	ed937a01 	vldr	s14, [r3, #4]
   12498:	ed5b7a3e 	vldr	s15, [fp, #-248]	; 0xffffff08
   1249c:	ee378a67 	vsub.f32	s16, s14, s15
   124a0:	ed1b7a3e 	vldr	s14, [fp, #-248]	; 0xffffff08
   124a4:	e51b212c 	ldr	r2, [fp, #-300]	; 0xfffffed4
   124a8:	e51b3020 	ldr	r3, [fp, #-32]	; 0xffffffe0
   124ac:	e2833002 	add	r3, r3, #2
   124b0:	e1a03103 	lsl	r3, r3, #2
   124b4:	e0823003 	add	r3, r2, r3
   124b8:	e5933004 	ldr	r3, [r3, #4]
   124bc:	edd37a01 	vldr	s15, [r3, #4]
   124c0:	ee377a67 	vsub.f32	s14, s14, s15
   124c4:	ed5b6a3e 	vldr	s13, [fp, #-248]	; 0xffffff08
   124c8:	e51b212c 	ldr	r2, [fp, #-300]	; 0xfffffed4
   124cc:	e51b3020 	ldr	r3, [fp, #-32]	; 0xffffffe0
   124d0:	e2833002 	add	r3, r3, #2
   124d4:	e1a03103 	lsl	r3, r3, #2
   124d8:	e0823003 	add	r3, r2, r3
   124dc:	e5933004 	ldr	r3, [r3, #4]
   124e0:	edd37a01 	vldr	s15, [r3, #4]
   124e4:	ee767ae7 	vsub.f32	s15, s13, s15
   124e8:	ee277a27 	vmul.f32	s14, s14, s15
   124ec:	ed5b6a3d 	vldr	s13, [fp, #-244]	; 0xffffff0c
   124f0:	e51b212c 	ldr	r2, [fp, #-300]	; 0xfffffed4
   124f4:	e51b3020 	ldr	r3, [fp, #-32]	; 0xffffffe0
   124f8:	e2833002 	add	r3, r3, #2
   124fc:	e1a03103 	lsl	r3, r3, #2
   12500:	e0823003 	add	r3, r2, r3
   12504:	e5933004 	ldr	r3, [r3, #4]
   12508:	edd37a02 	vldr	s15, [r3, #8]
   1250c:	ee766ae7 	vsub.f32	s13, s13, s15
   12510:	ed1b6a3d 	vldr	s12, [fp, #-244]	; 0xffffff0c
   12514:	e51b212c 	ldr	r2, [fp, #-300]	; 0xfffffed4
   12518:	e51b3020 	ldr	r3, [fp, #-32]	; 0xffffffe0
   1251c:	e2833002 	add	r3, r3, #2
   12520:	e1a03103 	lsl	r3, r3, #2
   12524:	e0823003 	add	r3, r2, r3
   12528:	e5933004 	ldr	r3, [r3, #4]
   1252c:	edd37a02 	vldr	s15, [r3, #8]
   12530:	ee767a67 	vsub.f32	s15, s12, s15
   12534:	ee667aa7 	vmul.f32	s15, s13, s15
   12538:	ee777a27 	vadd.f32	s15, s14, s15
   1253c:	eeb77ae7 	vcvt.f64.f32	d7, s15
   12540:	eeb00b47 	vmov.f64	d0, d7
   12544:	ebfff871 	bl	10710 <sqrt@plt>
   12548:	eeb07b40 	vmov.f64	d7, d0
   1254c:	eeb77bc7 	vcvt.f32.f64	s14, d7
   12550:	eec87a07 	vdiv.f32	s15, s16, s14
   12554:	eeb77ae7 	vcvt.f64.f32	d7, s15
   12558:	eeb00b47 	vmov.f64	d0, d7
   1255c:	ebfff856 	bl	106bc <acos@plt>
   12560:	eeb07b40 	vmov.f64	d7, d0
   12564:	eef77bc7 	vcvt.f32.f64	s15, d7
   12568:	ed4b7a41 	vstr	s15, [fp, #-260]	; 0xfffffefc
   1256c:	ed1b7a3d 	vldr	s14, [fp, #-244]	; 0xffffff0c
   12570:	e51b212c 	ldr	r2, [fp, #-300]	; 0xfffffed4
   12574:	e51b3020 	ldr	r3, [fp, #-32]	; 0xffffffe0
   12578:	e2833002 	add	r3, r3, #2
   1257c:	e1a03103 	lsl	r3, r3, #2
   12580:	e0823003 	add	r3, r2, r3
   12584:	e5933004 	ldr	r3, [r3, #4]
   12588:	edd37a02 	vldr	s15, [r3, #8]
   1258c:	eeb47ae7 	vcmpe.f32	s14, s15
   12590:	eef1fa10 	vmrs	APSR_nzcv, fpscr
   12594:	da000002 	ble	125a4 <get_setpoint+0xb44>
   12598:	ed5b7a41 	vldr	s15, [fp, #-260]	; 0xfffffefc
   1259c:	eef17a67 	vneg.f32	s15, s15
   125a0:	ed4b7a41 	vstr	s15, [fp, #-260]	; 0xfffffefc
   125a4:	e51b212c 	ldr	r2, [fp, #-300]	; 0xfffffed4
   125a8:	e51b3020 	ldr	r3, [fp, #-32]	; 0xffffffe0
   125ac:	e2833002 	add	r3, r3, #2
   125b0:	e1a03103 	lsl	r3, r3, #2
   125b4:	e0823003 	add	r3, r2, r3
   125b8:	e5934004 	ldr	r4, [r3, #4]
   125bc:	ed1b9a43 	vldr	s18, [fp, #-268]	; 0xfffffef4
   125c0:	ed5b8a42 	vldr	s17, [fp, #-264]	; 0xfffffef8
   125c4:	ed1b8a41 	vldr	s16, [fp, #-260]	; 0xfffffefc
   125c8:	e1a0000d 	mov	r0, sp
   125cc:	e2843010 	add	r3, r4, #16
   125d0:	e3a02044 	mov	r2, #68	; 0x44
   125d4:	e1a01003 	mov	r1, r3
   125d8:	ebfff82b 	bl	1068c <memcpy@plt>
   125dc:	e894000f 	ldm	r4, {r0, r1, r2, r3}
   125e0:	eeb00a49 	vmov.f32	s0, s18
   125e4:	eef00a68 	vmov.f32	s1, s17
   125e8:	eeb01a48 	vmov.f32	s2, s16
   125ec:	eb0008f8 	bl	149d4 <is_collision_right>
   125f0:	e1a03000 	mov	r3, r0
   125f4:	e3530000 	cmp	r3, #0
   125f8:	0a000002 	beq	12608 <get_setpoint+0xba8>
   125fc:	e51f3424 	ldr	r3, [pc, #-1060]	; 121e0 <get_setpoint+0x780>
   12600:	e50b302c 	str	r3, [fp, #-44]	; 0xffffffd4
   12604:	ea000001 	b	12610 <get_setpoint+0xbb0>
   12608:	e51f342c 	ldr	r3, [pc, #-1068]	; 121e4 <get_setpoint+0x784>
   1260c:	e50b302c 	str	r3, [fp, #-44]	; 0xffffffd4
   12610:	e51b3020 	ldr	r3, [fp, #-32]	; 0xffffffe0
   12614:	e3530000 	cmp	r3, #0
   12618:	da00005f 	ble	1279c <get_setpoint+0xd3c>
   1261c:	e51b3020 	ldr	r3, [fp, #-32]	; 0xffffffe0
   12620:	e243321e 	sub	r3, r3, #-536870911	; 0xe0000001
   12624:	e1a03183 	lsl	r3, r3, #3
   12628:	e51b202c 	ldr	r2, [fp, #-44]	; 0xffffffd4
   1262c:	e0823003 	add	r3, r2, r3
   12630:	ed936a00 	vldr	s12, [r3]
   12634:	edd36a01 	vldr	s13, [r3, #4]
   12638:	ed1b7a3e 	vldr	s14, [fp, #-248]	; 0xffffff08
   1263c:	ed5b7a3d 	vldr	s15, [fp, #-244]	; 0xffffff0c
   12640:	eeb01a46 	vmov.f32	s2, s12
   12644:	eef01a66 	vmov.f32	s3, s13
   12648:	eeb00a47 	vmov.f32	s0, s14
   1264c:	eef00a67 	vmov.f32	s1, s15
   12650:	eb0003dc 	bl	135c8 <segment>
   12654:	eeb06a40 	vmov.f32	s12, s0
   12658:	eef06a60 	vmov.f32	s13, s1
   1265c:	eeb07a41 	vmov.f32	s14, s2
   12660:	eef07a61 	vmov.f32	s15, s3
   12664:	ed0b6a25 	vstr	s12, [fp, #-148]	; 0xffffff6c
   12668:	ed4b6a24 	vstr	s13, [fp, #-144]	; 0xffffff70
   1266c:	ed0b7a23 	vstr	s14, [fp, #-140]	; 0xffffff74
   12670:	ed4b7a22 	vstr	s15, [fp, #-136]	; 0xffffff78
   12674:	e51b3020 	ldr	r3, [fp, #-32]	; 0xffffffe0
   12678:	e2433001 	sub	r3, r3, #1
   1267c:	e51b212c 	ldr	r2, [fp, #-300]	; 0xfffffed4
   12680:	e2833002 	add	r3, r3, #2
   12684:	e1a03103 	lsl	r3, r3, #2
   12688:	e0823003 	add	r3, r2, r3
   1268c:	e5934004 	ldr	r4, [r3, #4]
   12690:	e1a0000d 	mov	r0, sp
   12694:	e2843010 	add	r3, r4, #16
   12698:	e3a02044 	mov	r2, #68	; 0x44
   1269c:	e1a01003 	mov	r1, r3
   126a0:	ebfff7f9 	bl	1068c <memcpy@plt>
   126a4:	e894000f 	ldm	r4, {r0, r1, r2, r3}
   126a8:	eb000911 	bl	14af4 <node_to_point>
   126ac:	eeb07a40 	vmov.f32	s14, s0
   126b0:	eef07a60 	vmov.f32	s15, s1
   126b4:	ed0b7a21 	vstr	s14, [fp, #-132]	; 0xffffff7c
   126b8:	ed4b7a20 	vstr	s15, [fp, #-128]	; 0xffffff80
   126bc:	e51b212c 	ldr	r2, [fp, #-300]	; 0xfffffed4
   126c0:	e51b3020 	ldr	r3, [fp, #-32]	; 0xffffffe0
   126c4:	e2833002 	add	r3, r3, #2
   126c8:	e1a03103 	lsl	r3, r3, #2
   126cc:	e0823003 	add	r3, r2, r3
   126d0:	e5934004 	ldr	r4, [r3, #4]
   126d4:	e1a0000d 	mov	r0, sp
   126d8:	e2843010 	add	r3, r4, #16
   126dc:	e3a02044 	mov	r2, #68	; 0x44
   126e0:	e1a01003 	mov	r1, r3
   126e4:	ebfff7e8 	bl	1068c <memcpy@plt>
   126e8:	e894000f 	ldm	r4, {r0, r1, r2, r3}
   126ec:	eb000900 	bl	14af4 <node_to_point>
   126f0:	eeb07a40 	vmov.f32	s14, s0
   126f4:	eef07a60 	vmov.f32	s15, s1
   126f8:	ed0b7a1f 	vstr	s14, [fp, #-124]	; 0xffffff84
   126fc:	ed4b7a1e 	vstr	s15, [fp, #-120]	; 0xffffff88
   12700:	ed1b6a1f 	vldr	s12, [fp, #-124]	; 0xffffff84
   12704:	ed5b6a1e 	vldr	s13, [fp, #-120]	; 0xffffff88
   12708:	ed1b7a21 	vldr	s14, [fp, #-132]	; 0xffffff7c
   1270c:	ed5b7a20 	vldr	s15, [fp, #-128]	; 0xffffff80
   12710:	eeb01a46 	vmov.f32	s2, s12
   12714:	eef01a66 	vmov.f32	s3, s13
   12718:	eeb00a47 	vmov.f32	s0, s14
   1271c:	eef00a67 	vmov.f32	s1, s15
   12720:	eb0003a8 	bl	135c8 <segment>
   12724:	eeb06a40 	vmov.f32	s12, s0
   12728:	eef06a60 	vmov.f32	s13, s1
   1272c:	eeb07a41 	vmov.f32	s14, s2
   12730:	eef07a61 	vmov.f32	s15, s3
   12734:	ed0b6a1d 	vstr	s12, [fp, #-116]	; 0xffffff8c
   12738:	ed4b6a1c 	vstr	s13, [fp, #-112]	; 0xffffff90
   1273c:	ed0b7a1b 	vstr	s14, [fp, #-108]	; 0xffffff94
   12740:	ed4b7a1a 	vstr	s15, [fp, #-104]	; 0xffffff98
   12744:	e24b2f46 	sub	r2, fp, #280	; 0x118
   12748:	e24b3f45 	sub	r3, fp, #276	; 0x114
   1274c:	ed1b4a1d 	vldr	s8, [fp, #-116]	; 0xffffff8c
   12750:	ed5b4a1c 	vldr	s9, [fp, #-112]	; 0xffffff90
   12754:	ed1b5a1b 	vldr	s10, [fp, #-108]	; 0xffffff94
   12758:	ed5b5a1a 	vldr	s11, [fp, #-104]	; 0xffffff98
   1275c:	ed1b6a25 	vldr	s12, [fp, #-148]	; 0xffffff6c
   12760:	ed5b6a24 	vldr	s13, [fp, #-144]	; 0xffffff70
   12764:	ed1b7a23 	vldr	s14, [fp, #-140]	; 0xffffff74
   12768:	ed5b7a22 	vldr	s15, [fp, #-136]	; 0xffffff78
   1276c:	e1a01002 	mov	r1, r2
   12770:	e1a00003 	mov	r0, r3
   12774:	eeb02a44 	vmov.f32	s4, s8
   12778:	eef02a64 	vmov.f32	s5, s9
   1277c:	eeb03a45 	vmov.f32	s6, s10
   12780:	eef03a65 	vmov.f32	s7, s11
   12784:	eeb00a46 	vmov.f32	s0, s12
   12788:	eef00a66 	vmov.f32	s1, s13
   1278c:	eeb01a47 	vmov.f32	s2, s14
   12790:	eef01a67 	vmov.f32	s3, s15
   12794:	eb0004d4 	bl	13aec <get_intersection>
   12798:	ea000055 	b	128f4 <get_setpoint+0xe94>
   1279c:	e51b302c 	ldr	r3, [fp, #-44]	; 0xffffffd4
   127a0:	ed936a00 	vldr	s12, [r3]
   127a4:	edd36a01 	vldr	s13, [r3, #4]
   127a8:	ed1b7a3e 	vldr	s14, [fp, #-248]	; 0xffffff08
   127ac:	ed5b7a3d 	vldr	s15, [fp, #-244]	; 0xffffff0c
   127b0:	eeb01a46 	vmov.f32	s2, s12
   127b4:	eef01a66 	vmov.f32	s3, s13
   127b8:	eeb00a47 	vmov.f32	s0, s14
   127bc:	eef00a67 	vmov.f32	s1, s15
   127c0:	eb000380 	bl	135c8 <segment>
   127c4:	eeb06a40 	vmov.f32	s12, s0
   127c8:	eef06a60 	vmov.f32	s13, s1
   127cc:	eeb07a41 	vmov.f32	s14, s2
   127d0:	eef07a61 	vmov.f32	s15, s3
   127d4:	ed0b6a19 	vstr	s12, [fp, #-100]	; 0xffffff9c
   127d8:	ed4b6a18 	vstr	s13, [fp, #-96]	; 0xffffffa0
   127dc:	ed0b7a17 	vstr	s14, [fp, #-92]	; 0xffffffa4
   127e0:	ed4b7a16 	vstr	s15, [fp, #-88]	; 0xffffffa8
   127e4:	e51b312c 	ldr	r3, [fp, #-300]	; 0xfffffed4
   127e8:	e593400c 	ldr	r4, [r3, #12]
   127ec:	e1a0000d 	mov	r0, sp
   127f0:	e2843010 	add	r3, r4, #16
   127f4:	e3a02044 	mov	r2, #68	; 0x44
   127f8:	e1a01003 	mov	r1, r3
   127fc:	ebfff7a2 	bl	1068c <memcpy@plt>
   12800:	e894000f 	ldm	r4, {r0, r1, r2, r3}
   12804:	eb0008ba 	bl	14af4 <node_to_point>
   12808:	eeb07a40 	vmov.f32	s14, s0
   1280c:	eef07a60 	vmov.f32	s15, s1
   12810:	ed0b7a15 	vstr	s14, [fp, #-84]	; 0xffffffac
   12814:	ed4b7a14 	vstr	s15, [fp, #-80]	; 0xffffffb0
   12818:	e51b212c 	ldr	r2, [fp, #-300]	; 0xfffffed4
   1281c:	e51b3020 	ldr	r3, [fp, #-32]	; 0xffffffe0
   12820:	e2833002 	add	r3, r3, #2
   12824:	e1a03103 	lsl	r3, r3, #2
   12828:	e0823003 	add	r3, r2, r3
   1282c:	e5934004 	ldr	r4, [r3, #4]
   12830:	e1a0000d 	mov	r0, sp
   12834:	e2843010 	add	r3, r4, #16
   12838:	e3a02044 	mov	r2, #68	; 0x44
   1283c:	e1a01003 	mov	r1, r3
   12840:	ebfff791 	bl	1068c <memcpy@plt>
   12844:	e894000f 	ldm	r4, {r0, r1, r2, r3}
   12848:	eb0008a9 	bl	14af4 <node_to_point>
   1284c:	eeb07a40 	vmov.f32	s14, s0
   12850:	eef07a60 	vmov.f32	s15, s1
   12854:	ed0b7a13 	vstr	s14, [fp, #-76]	; 0xffffffb4
   12858:	ed4b7a12 	vstr	s15, [fp, #-72]	; 0xffffffb8
   1285c:	ed1b6a13 	vldr	s12, [fp, #-76]	; 0xffffffb4
   12860:	ed5b6a12 	vldr	s13, [fp, #-72]	; 0xffffffb8
   12864:	ed1b7a15 	vldr	s14, [fp, #-84]	; 0xffffffac
   12868:	ed5b7a14 	vldr	s15, [fp, #-80]	; 0xffffffb0
   1286c:	eeb01a46 	vmov.f32	s2, s12
   12870:	eef01a66 	vmov.f32	s3, s13
   12874:	eeb00a47 	vmov.f32	s0, s14
   12878:	eef00a67 	vmov.f32	s1, s15
   1287c:	eb000351 	bl	135c8 <segment>
   12880:	eeb06a40 	vmov.f32	s12, s0
   12884:	eef06a60 	vmov.f32	s13, s1
   12888:	eeb07a41 	vmov.f32	s14, s2
   1288c:	eef07a61 	vmov.f32	s15, s3
   12890:	ed0b6a11 	vstr	s12, [fp, #-68]	; 0xffffffbc
   12894:	ed4b6a10 	vstr	s13, [fp, #-64]	; 0xffffffc0
   12898:	ed0b7a0f 	vstr	s14, [fp, #-60]	; 0xffffffc4
   1289c:	ed4b7a0e 	vstr	s15, [fp, #-56]	; 0xffffffc8
   128a0:	e24b2f46 	sub	r2, fp, #280	; 0x118
   128a4:	e24b3f45 	sub	r3, fp, #276	; 0x114
   128a8:	ed1b4a11 	vldr	s8, [fp, #-68]	; 0xffffffbc
   128ac:	ed5b4a10 	vldr	s9, [fp, #-64]	; 0xffffffc0
   128b0:	ed1b5a0f 	vldr	s10, [fp, #-60]	; 0xffffffc4
   128b4:	ed5b5a0e 	vldr	s11, [fp, #-56]	; 0xffffffc8
   128b8:	ed1b6a19 	vldr	s12, [fp, #-100]	; 0xffffff9c
   128bc:	ed5b6a18 	vldr	s13, [fp, #-96]	; 0xffffffa0
   128c0:	ed1b7a17 	vldr	s14, [fp, #-92]	; 0xffffffa4
   128c4:	ed5b7a16 	vldr	s15, [fp, #-88]	; 0xffffffa8
   128c8:	e1a01002 	mov	r1, r2
   128cc:	e1a00003 	mov	r0, r3
   128d0:	eeb02a44 	vmov.f32	s4, s8
   128d4:	eef02a64 	vmov.f32	s5, s9
   128d8:	eeb03a45 	vmov.f32	s6, s10
   128dc:	eef03a65 	vmov.f32	s7, s11
   128e0:	eeb00a46 	vmov.f32	s0, s12
   128e4:	eef00a66 	vmov.f32	s1, s13
   128e8:	eeb01a47 	vmov.f32	s2, s14
   128ec:	eef01a67 	vmov.f32	s3, s15
   128f0:	eb00047d 	bl	13aec <get_intersection>
   128f4:	e24b3f46 	sub	r3, fp, #280	; 0x118
   128f8:	e1d330d0 	ldrsb	r3, [r3]
   128fc:	e3530000 	cmp	r3, #0
   12900:	1a000004 	bne	12918 <get_setpoint+0xeb8>
   12904:	e24b3f45 	sub	r3, fp, #276	; 0x114
   12908:	e2433003 	sub	r3, r3, #3
   1290c:	e1d330d0 	ldrsb	r3, [r3]
   12910:	e3530000 	cmp	r3, #0
   12914:	1a000042 	bne	12a24 <get_setpoint+0xfc4>
   12918:	e51b2114 	ldr	r2, [fp, #-276]	; 0xfffffeec
   1291c:	e51b3130 	ldr	r3, [fp, #-304]	; 0xfffffed0
   12920:	e5832000 	str	r2, [r3]
   12924:	e51b2110 	ldr	r2, [fp, #-272]	; 0xfffffef0
   12928:	e51b3130 	ldr	r3, [fp, #-304]	; 0xfffffed0
   1292c:	e5832004 	str	r2, [r3, #4]
   12930:	e51b3020 	ldr	r3, [fp, #-32]	; 0xffffffe0
   12934:	e3530000 	cmp	r3, #0
   12938:	da00001a 	ble	129a8 <get_setpoint+0xf48>
   1293c:	e51b3020 	ldr	r3, [fp, #-32]	; 0xffffffe0
   12940:	e2433001 	sub	r3, r3, #1
   12944:	e51b212c 	ldr	r2, [fp, #-300]	; 0xfffffed4
   12948:	e2833002 	add	r3, r3, #2
   1294c:	e1a03103 	lsl	r3, r3, #2
   12950:	e0823003 	add	r3, r2, r3
   12954:	e5934004 	ldr	r4, [r3, #4]
   12958:	e51b212c 	ldr	r2, [fp, #-300]	; 0xfffffed4
   1295c:	e51b3020 	ldr	r3, [fp, #-32]	; 0xffffffe0
   12960:	e2833002 	add	r3, r3, #2
   12964:	e1a03103 	lsl	r3, r3, #2
   12968:	e0823003 	add	r3, r2, r3
   1296c:	e5933004 	ldr	r3, [r3, #4]
   12970:	e28d0044 	add	r0, sp, #68	; 0x44
   12974:	e1a01003 	mov	r1, r3
   12978:	e3a03054 	mov	r3, #84	; 0x54
   1297c:	e1a02003 	mov	r2, r3
   12980:	ebfff741 	bl	1068c <memcpy@plt>
   12984:	e1a0000d 	mov	r0, sp
   12988:	e2843010 	add	r3, r4, #16
   1298c:	e3a02044 	mov	r2, #68	; 0x44
   12990:	e1a01003 	mov	r1, r3
   12994:	ebfff73c 	bl	1068c <memcpy@plt>
   12998:	e894000f 	ldm	r4, {r0, r1, r2, r3}
   1299c:	eb00086c 	bl	14b54 <compute_theta>
   129a0:	eef07a40 	vmov.f32	s15, s0
   129a4:	ea000010 	b	129ec <get_setpoint+0xf8c>
   129a8:	e51b312c 	ldr	r3, [fp, #-300]	; 0xfffffed4
   129ac:	e593400c 	ldr	r4, [r3, #12]
   129b0:	e51b312c 	ldr	r3, [fp, #-300]	; 0xfffffed4
   129b4:	e5933010 	ldr	r3, [r3, #16]
   129b8:	e28d0044 	add	r0, sp, #68	; 0x44
   129bc:	e1a01003 	mov	r1, r3
   129c0:	e3a03054 	mov	r3, #84	; 0x54
   129c4:	e1a02003 	mov	r2, r3
   129c8:	ebfff72f 	bl	1068c <memcpy@plt>
   129cc:	e1a0000d 	mov	r0, sp
   129d0:	e2843010 	add	r3, r4, #16
   129d4:	e3a02044 	mov	r2, #68	; 0x44
   129d8:	e1a01003 	mov	r1, r3
   129dc:	ebfff72a 	bl	1068c <memcpy@plt>
   129e0:	e894000f 	ldm	r4, {r0, r1, r2, r3}
   129e4:	eb00085a 	bl	14b54 <compute_theta>
   129e8:	eef07a40 	vmov.f32	s15, s0
   129ec:	e51b3130 	ldr	r3, [fp, #-304]	; 0xfffffed0
   129f0:	edc37a02 	vstr	s15, [r3, #8]
   129f4:	e51f2814 	ldr	r2, [pc, #-2068]	; 121e8 <get_setpoint+0x788>
   129f8:	e51b3020 	ldr	r3, [fp, #-32]	; 0xffffffe0
   129fc:	e5823000 	str	r3, [r2]
   12a00:	e51f381c 	ldr	r3, [pc, #-2076]	; 121ec <get_setpoint+0x78c>
   12a04:	e3a02000 	mov	r2, #0
   12a08:	e5c32000 	strb	r2, [r3]
   12a0c:	e51f3824 	ldr	r3, [pc, #-2084]	; 121f0 <get_setpoint+0x790>
   12a10:	e51b2130 	ldr	r2, [fp, #-304]	; 0xfffffed0
   12a14:	e8920007 	ldm	r2, {r0, r1, r2}
   12a18:	e8830007 	stm	r3, {r0, r1, r2}
   12a1c:	e3a03004 	mov	r3, #4
   12a20:	ea000000 	b	12a28 <get_setpoint+0xfc8>
   12a24:	e3e03000 	mvn	r3, #0
   12a28:	e1a00003 	mov	r0, r3
   12a2c:	e24bd01c 	sub	sp, fp, #28
   12a30:	ecbd8b04 	vpop	{d8-d9}
   12a34:	e8bd8830 	pop	{r4, r5, fp, pc}

00012a38 <clamp_v_to_sp>:
   12a38:	e92d4800 	push	{fp, lr}
   12a3c:	e28db004 	add	fp, sp, #4
   12a40:	e24dd028 	sub	sp, sp, #40	; 0x28
   12a44:	eeb05a40 	vmov.f32	s10, s0
   12a48:	eef05a60 	vmov.f32	s11, s1
   12a4c:	eeb06a41 	vmov.f32	s12, s2
   12a50:	eef06a61 	vmov.f32	s13, s3
   12a54:	eeb07a42 	vmov.f32	s14, s4
   12a58:	eef07a62 	vmov.f32	s15, s5
   12a5c:	e50b0028 	str	r0, [fp, #-40]	; 0xffffffd8
   12a60:	ed0b5a06 	vstr	s10, [fp, #-24]	; 0xffffffe8
   12a64:	ed4b5a05 	vstr	s11, [fp, #-20]	; 0xffffffec
   12a68:	ed0b6a04 	vstr	s12, [fp, #-16]
   12a6c:	ed4b6a09 	vstr	s13, [fp, #-36]	; 0xffffffdc
   12a70:	ed0b7a08 	vstr	s14, [fp, #-32]	; 0xffffffe0
   12a74:	ed4b7a07 	vstr	s15, [fp, #-28]	; 0xffffffe4
   12a78:	ed1b7a06 	vldr	s14, [fp, #-24]	; 0xffffffe8
   12a7c:	ed5b7a09 	vldr	s15, [fp, #-36]	; 0xffffffdc
   12a80:	ee377a67 	vsub.f32	s14, s14, s15
   12a84:	ed5b6a06 	vldr	s13, [fp, #-24]	; 0xffffffe8
   12a88:	ed5b7a09 	vldr	s15, [fp, #-36]	; 0xffffffdc
   12a8c:	ee767ae7 	vsub.f32	s15, s13, s15
   12a90:	ee277a27 	vmul.f32	s14, s14, s15
   12a94:	ed5b6a05 	vldr	s13, [fp, #-20]	; 0xffffffec
   12a98:	ed5b7a08 	vldr	s15, [fp, #-32]	; 0xffffffe0
   12a9c:	ee766ae7 	vsub.f32	s13, s13, s15
   12aa0:	ed1b6a05 	vldr	s12, [fp, #-20]	; 0xffffffec
   12aa4:	ed5b7a08 	vldr	s15, [fp, #-32]	; 0xffffffe0
   12aa8:	ee767a67 	vsub.f32	s15, s12, s15
   12aac:	ee667aa7 	vmul.f32	s15, s13, s15
   12ab0:	ee777a27 	vadd.f32	s15, s14, s15
   12ab4:	eeb77ae7 	vcvt.f64.f32	d7, s15
   12ab8:	eeb00b47 	vmov.f64	d0, d7
   12abc:	ebfff713 	bl	10710 <sqrt@plt>
   12ac0:	eeb07b40 	vmov.f64	d7, d0
   12ac4:	eef77bc7 	vcvt.f32.f64	s15, d7
   12ac8:	ed4b7a02 	vstr	s15, [fp, #-8]
   12acc:	e51b3028 	ldr	r3, [fp, #-40]	; 0xffffffd8
   12ad0:	ed937a00 	vldr	s14, [r3]
   12ad4:	ed5b7a02 	vldr	s15, [fp, #-8]
   12ad8:	eddf6a10 	vldr	s13, [pc, #64]	; 12b20 <clamp_v_to_sp+0xe8>
   12adc:	ee676aa6 	vmul.f32	s13, s15, s13
   12ae0:	ed9f6a0f 	vldr	s12, [pc, #60]	; 12b24 <clamp_v_to_sp+0xec>
   12ae4:	eec67a86 	vdiv.f32	s15, s13, s12
   12ae8:	eeb47ae7 	vcmpe.f32	s14, s15
   12aec:	eef1fa10 	vmrs	APSR_nzcv, fpscr
   12af0:	ca000000 	bgt	12af8 <clamp_v_to_sp+0xc0>
   12af4:	ea000006 	b	12b14 <clamp_v_to_sp+0xdc>
   12af8:	ed5b7a02 	vldr	s15, [fp, #-8]
   12afc:	ed9f7a07 	vldr	s14, [pc, #28]	; 12b20 <clamp_v_to_sp+0xe8>
   12b00:	ee277a87 	vmul.f32	s14, s15, s14
   12b04:	eddf6a06 	vldr	s13, [pc, #24]	; 12b24 <clamp_v_to_sp+0xec>
   12b08:	eec77a26 	vdiv.f32	s15, s14, s13
   12b0c:	e51b3028 	ldr	r3, [fp, #-40]	; 0xffffffd8
   12b10:	edc37a00 	vstr	s15, [r3]
   12b14:	e1a00000 	nop			; (mov r0, r0)
   12b18:	e24bd004 	sub	sp, fp, #4
   12b1c:	e8bd8800 	pop	{fp, pc}
   12b20:	447a0000 	ldrbtmi	r0, [sl], #-0
   12b24:	42c80000 	sbcmi	r0, r8, #0

00012b28 <com_tracking>:
   12b28:	e92d4800 	push	{fp, lr}
   12b2c:	e28db004 	add	fp, sp, #4
   12b30:	e24dd030 	sub	sp, sp, #48	; 0x30
   12b34:	eeb05a40 	vmov.f32	s10, s0
   12b38:	eef05a60 	vmov.f32	s11, s1
   12b3c:	eeb06a41 	vmov.f32	s12, s2
   12b40:	eef06a61 	vmov.f32	s13, s3
   12b44:	eeb07a42 	vmov.f32	s14, s4
   12b48:	eef07a62 	vmov.f32	s15, s5
   12b4c:	e50b0030 	str	r0, [fp, #-48]	; 0xffffffd0
   12b50:	e50b1034 	str	r1, [fp, #-52]	; 0xffffffcc
   12b54:	ed0b5a08 	vstr	s10, [fp, #-32]	; 0xffffffe0
   12b58:	ed4b5a07 	vstr	s11, [fp, #-28]	; 0xffffffe4
   12b5c:	ed0b6a06 	vstr	s12, [fp, #-24]	; 0xffffffe8
   12b60:	ed4b6a0b 	vstr	s13, [fp, #-44]	; 0xffffffd4
   12b64:	ed0b7a0a 	vstr	s14, [fp, #-40]	; 0xffffffd8
   12b68:	ed4b7a09 	vstr	s15, [fp, #-36]	; 0xffffffdc
   12b6c:	e59f3144 	ldr	r3, [pc, #324]	; 12cb8 <com_tracking+0x190>
   12b70:	e1d330d0 	ldrsb	r3, [r3]
   12b74:	e3530000 	cmp	r3, #0
   12b78:	0a000007 	beq	12b9c <com_tracking+0x74>
   12b7c:	e59f3138 	ldr	r3, [pc, #312]	; 12cbc <com_tracking+0x194>
   12b80:	e1a0c003 	mov	ip, r3
   12b84:	e24b3020 	sub	r3, fp, #32
   12b88:	e8930007 	ldm	r3, {r0, r1, r2}
   12b8c:	e88c0007 	stm	ip, {r0, r1, r2}
   12b90:	e59f3120 	ldr	r3, [pc, #288]	; 12cb8 <com_tracking+0x190>
   12b94:	e3a02000 	mov	r2, #0
   12b98:	e5c32000 	strb	r2, [r3]
   12b9c:	e24b3010 	sub	r3, fp, #16
   12ba0:	ed1b5a0b 	vldr	s10, [fp, #-44]	; 0xffffffd4
   12ba4:	ed5b5a0a 	vldr	s11, [fp, #-40]	; 0xffffffd8
   12ba8:	ed1b6a09 	vldr	s12, [fp, #-36]	; 0xffffffdc
   12bac:	ed5b6a08 	vldr	s13, [fp, #-32]	; 0xffffffe0
   12bb0:	ed1b7a07 	vldr	s14, [fp, #-28]	; 0xffffffe4
   12bb4:	ed5b7a06 	vldr	s15, [fp, #-24]	; 0xffffffe8
   12bb8:	e1a00003 	mov	r0, r3
   12bbc:	eef01a45 	vmov.f32	s3, s10
   12bc0:	eeb02a65 	vmov.f32	s4, s11
   12bc4:	eef02a46 	vmov.f32	s5, s12
   12bc8:	eeb00a66 	vmov.f32	s0, s13
   12bcc:	eef00a47 	vmov.f32	s1, s14
   12bd0:	eeb01a67 	vmov.f32	s2, s15
   12bd4:	ebfff788 	bl	109fc <get_error_vector>
   12bd8:	e59f30dc 	ldr	r3, [pc, #220]	; 12cbc <com_tracking+0x194>
   12bdc:	ed935a00 	vldr	s10, [r3]
   12be0:	edd35a01 	vldr	s11, [r3, #4]
   12be4:	ed936a02 	vldr	s12, [r3, #8]
   12be8:	ed5b6a0b 	vldr	s13, [fp, #-44]	; 0xffffffd4
   12bec:	ed1b7a0a 	vldr	s14, [fp, #-40]	; 0xffffffd8
   12bf0:	ed5b7a09 	vldr	s15, [fp, #-36]	; 0xffffffdc
   12bf4:	e59f10c4 	ldr	r1, [pc, #196]	; 12cc0 <com_tracking+0x198>
   12bf8:	e59f00c4 	ldr	r0, [pc, #196]	; 12cc4 <com_tracking+0x19c>
   12bfc:	eef01a45 	vmov.f32	s3, s10
   12c00:	eeb02a65 	vmov.f32	s4, s11
   12c04:	eef02a46 	vmov.f32	s5, s12
   12c08:	eeb00a66 	vmov.f32	s0, s13
   12c0c:	eef00a47 	vmov.f32	s1, s14
   12c10:	eeb01a67 	vmov.f32	s2, s15
   12c14:	ebfff7c5 	bl	10b30 <get_ref_speed>
   12c18:	ed1b5a0b 	vldr	s10, [fp, #-44]	; 0xffffffd4
   12c1c:	ed5b5a0a 	vldr	s11, [fp, #-40]	; 0xffffffd8
   12c20:	ed1b6a09 	vldr	s12, [fp, #-36]	; 0xffffffdc
   12c24:	ed5b6a08 	vldr	s13, [fp, #-32]	; 0xffffffe0
   12c28:	ed1b7a07 	vldr	s14, [fp, #-28]	; 0xffffffe4
   12c2c:	ed5b7a06 	vldr	s15, [fp, #-24]	; 0xffffffe8
   12c30:	e59f008c 	ldr	r0, [pc, #140]	; 12cc4 <com_tracking+0x19c>
   12c34:	eef01a45 	vmov.f32	s3, s10
   12c38:	eeb02a65 	vmov.f32	s4, s11
   12c3c:	eef02a46 	vmov.f32	s5, s12
   12c40:	eeb00a66 	vmov.f32	s0, s13
   12c44:	eef00a47 	vmov.f32	s1, s14
   12c48:	eeb01a67 	vmov.f32	s2, s15
   12c4c:	ebffff79 	bl	12a38 <clamp_v_to_sp>
   12c50:	e59f306c 	ldr	r3, [pc, #108]	; 12cc4 <com_tracking+0x19c>
   12c54:	edd37a00 	vldr	s15, [r3]
   12c58:	e59f3060 	ldr	r3, [pc, #96]	; 12cc0 <com_tracking+0x198>
   12c5c:	ed937a00 	vldr	s14, [r3]
   12c60:	e51b2034 	ldr	r2, [fp, #-52]	; 0xffffffcc
   12c64:	e51b3034 	ldr	r3, [fp, #-52]	; 0xffffffcc
   12c68:	e2833004 	add	r3, r3, #4
   12c6c:	ed5b5a04 	vldr	s11, [fp, #-16]
   12c70:	ed1b6a03 	vldr	s12, [fp, #-12]
   12c74:	ed5b6a02 	vldr	s13, [fp, #-8]
   12c78:	e1a01003 	mov	r1, r3
   12c7c:	e1a00002 	mov	r0, r2
   12c80:	eeb01a65 	vmov.f32	s2, s11
   12c84:	eef01a46 	vmov.f32	s3, s12
   12c88:	eeb02a66 	vmov.f32	s4, s13
   12c8c:	eef00a47 	vmov.f32	s1, s14
   12c90:	eeb00a67 	vmov.f32	s0, s15
   12c94:	ebfff813 	bl	10ce8 <kanayama>
   12c98:	e59f301c 	ldr	r3, [pc, #28]	; 12cbc <com_tracking+0x194>
   12c9c:	e1a0c003 	mov	ip, r3
   12ca0:	e24b302c 	sub	r3, fp, #44	; 0x2c
   12ca4:	e8930007 	ldm	r3, {r0, r1, r2}
   12ca8:	e88c0007 	stm	ip, {r0, r1, r2}
   12cac:	e1a00000 	nop			; (mov r0, r0)
   12cb0:	e24bd004 	sub	sp, fp, #4
   12cb4:	e8bd8800 	pop	{fp, pc}
   12cb8:	0002706d 	andeq	r7, r2, sp, rrx
   12cbc:	0002af20 	andeq	sl, r2, r0, lsr #30
   12cc0:	0002af30 	andeq	sl, r2, r0, lsr pc
   12cc4:	0002af2c 	andeq	sl, r2, ip, lsr #30

00012cc8 <com_generation>:
   12cc8:	e92d4800 	push	{fp, lr}
   12ccc:	e28db004 	add	fp, sp, #4
   12cd0:	e24dd018 	sub	sp, sp, #24
   12cd4:	eef06a40 	vmov.f32	s13, s0
   12cd8:	eeb07a60 	vmov.f32	s14, s1
   12cdc:	eef07a41 	vmov.f32	s15, s2
   12ce0:	e50b0014 	str	r0, [fp, #-20]	; 0xffffffec
   12ce4:	e50b1018 	str	r1, [fp, #-24]	; 0xffffffe8
   12ce8:	ed4b6a04 	vstr	s13, [fp, #-16]
   12cec:	ed0b7a03 	vstr	s14, [fp, #-12]
   12cf0:	ed4b7a02 	vstr	s15, [fp, #-8]
   12cf4:	ed5b6a04 	vldr	s13, [fp, #-16]
   12cf8:	ed1b7a03 	vldr	s14, [fp, #-12]
   12cfc:	ed5b7a02 	vldr	s15, [fp, #-8]
   12d00:	e51b1018 	ldr	r1, [fp, #-24]	; 0xffffffe8
   12d04:	e51b0014 	ldr	r0, [fp, #-20]	; 0xffffffec
   12d08:	eeb00a66 	vmov.f32	s0, s13
   12d0c:	eef00a47 	vmov.f32	s1, s14
   12d10:	eeb01a67 	vmov.f32	s2, s15
   12d14:	ebfffb51 	bl	11a60 <get_setpoint>
   12d18:	e1a00000 	nop			; (mov r0, r0)
   12d1c:	e24bd004 	sub	sp, fp, #4
   12d20:	e8bd8800 	pop	{fp, pc}
   12d24:	00000000 	andeq	r0, r0, r0

00012d28 <sendMsg_CPU2>:
   12d28:	e92d4800 	push	{fp, lr}
   12d2c:	e28db004 	add	fp, sp, #4
   12d30:	e24dd008 	sub	sp, sp, #8
   12d34:	e50b0008 	str	r0, [fp, #-8]
   12d38:	e51b1008 	ldr	r1, [fp, #-8]
   12d3c:	e59f000c 	ldr	r0, [pc, #12]	; 12d50 <sendMsg_CPU2+0x28>
   12d40:	ebfff64b 	bl	10674 <printf@plt>
   12d44:	e1a00000 	nop			; (mov r0, r0)
   12d48:	e24bd004 	sub	sp, fp, #4
   12d4c:	e8bd8800 	pop	{fp, pc}
   12d50:	000165a8 	andeq	r6, r1, r8, lsr #11

00012d54 <init_random>:
   12d54:	e92d4800 	push	{fp, lr}
   12d58:	e28db004 	add	fp, sp, #4
   12d5c:	e3a00000 	mov	r0, #0
   12d60:	ebfff64c 	bl	10698 <time@plt>
   12d64:	e1a03000 	mov	r3, r0
   12d68:	e1a00003 	mov	r0, r3
   12d6c:	ebfff664 	bl	10704 <srand@plt>
   12d70:	e1a00000 	nop			; (mov r0, r0)
   12d74:	e8bd8800 	pop	{fp, pc}

00012d78 <random_int>:
   12d78:	e92d4800 	push	{fp, lr}
   12d7c:	e28db004 	add	fp, sp, #4
   12d80:	e24dd018 	sub	sp, sp, #24
   12d84:	e50b0018 	str	r0, [fp, #-24]	; 0xffffffe8
   12d88:	e50b101c 	str	r1, [fp, #-28]	; 0xffffffe4
   12d8c:	e51b201c 	ldr	r2, [fp, #-28]	; 0xffffffe4
   12d90:	e51b3018 	ldr	r3, [fp, #-24]	; 0xffffffe8
   12d94:	e0423003 	sub	r3, r2, r3
   12d98:	e2833001 	add	r3, r3, #1
   12d9c:	e50b3008 	str	r3, [fp, #-8]
   12da0:	e3e03102 	mvn	r3, #-2147483648	; 0x80000000
   12da4:	e51b1008 	ldr	r1, [fp, #-8]
   12da8:	e1a00003 	mov	r0, r3
   12dac:	eb000dc1 	bl	164b8 <__aeabi_idivmod>
   12db0:	e1a03001 	mov	r3, r1
   12db4:	e50b300c 	str	r3, [fp, #-12]
   12db8:	ebfff65a 	bl	10728 <rand@plt>
   12dbc:	e50b0010 	str	r0, [fp, #-16]
   12dc0:	e51b200c 	ldr	r2, [fp, #-12]
   12dc4:	e3e03102 	mvn	r3, #-2147483648	; 0x80000000
   12dc8:	e0433002 	sub	r3, r3, r2
   12dcc:	e51b2010 	ldr	r2, [fp, #-16]
   12dd0:	e1530002 	cmp	r3, r2
   12dd4:	dafffff7 	ble	12db8 <random_int+0x40>
   12dd8:	e51b3010 	ldr	r3, [fp, #-16]
   12ddc:	e51b1008 	ldr	r1, [fp, #-8]
   12de0:	e1a00003 	mov	r0, r3
   12de4:	eb000db3 	bl	164b8 <__aeabi_idivmod>
   12de8:	e1a03001 	mov	r3, r1
   12dec:	e1a02003 	mov	r2, r3
   12df0:	e51b3018 	ldr	r3, [fp, #-24]	; 0xffffffe8
   12df4:	e0823003 	add	r3, r2, r3
   12df8:	e1a00003 	mov	r0, r3
   12dfc:	e24bd004 	sub	sp, fp, #4
   12e00:	e8bd8800 	pop	{fp, pc}

00012e04 <random_gps>:
   12e04:	e92d4800 	push	{fp, lr}
   12e08:	ed2d8b02 	vpush	{d8}
   12e0c:	e28db00c 	add	fp, sp, #12
   12e10:	e24dd020 	sub	sp, sp, #32
   12e14:	e50b0020 	str	r0, [fp, #-32]	; 0xffffffe0
   12e18:	ed0b0a09 	vstr	s0, [fp, #-36]	; 0xffffffdc
   12e1c:	ed4b0a0a 	vstr	s1, [fp, #-40]	; 0xffffffd8
   12e20:	ed0b1a0b 	vstr	s2, [fp, #-44]	; 0xffffffd4
   12e24:	ed5b7a09 	vldr	s15, [fp, #-36]	; 0xffffffdc
   12e28:	ed9f7a82 	vldr	s14, [pc, #520]	; 13038 <random_gps+0x234>
   12e2c:	eef47ac7 	vcmpe.f32	s15, s14
   12e30:	eef1fa10 	vmrs	APSR_nzcv, fpscr
   12e34:	ca000003 	bgt	12e48 <random_gps+0x44>
   12e38:	ed5b7a09 	vldr	s15, [fp, #-36]	; 0xffffffdc
   12e3c:	eef57ac0 	vcmpe.f32	s15, #0.0
   12e40:	eef1fa10 	vmrs	APSR_nzcv, fpscr
   12e44:	5a000002 	bpl	12e54 <random_gps+0x50>
   12e48:	e59f01f4 	ldr	r0, [pc, #500]	; 13044 <random_gps+0x240>
   12e4c:	ebffffb5 	bl	12d28 <sendMsg_CPU2>
   12e50:	ea000071 	b	1301c <random_gps+0x218>
   12e54:	ed5b7a09 	vldr	s15, [fp, #-36]	; 0xffffffdc
   12e58:	ed9f7a77 	vldr	s14, [pc, #476]	; 1303c <random_gps+0x238>
   12e5c:	ee677a87 	vmul.f32	s15, s15, s14
   12e60:	eeb77ae7 	vcvt.f64.f32	d7, s15
   12e64:	ed9f6b6f 	vldr	d6, [pc, #444]	; 13028 <random_gps+0x224>
   12e68:	ee377b06 	vadd.f64	d7, d7, d6
   12e6c:	eefd7bc7 	vcvt.s32.f64	s15, d7
   12e70:	ee173a90 	vmov	r3, s15
   12e74:	e50b3010 	str	r3, [fp, #-16]
   12e78:	e3a0100a 	mov	r1, #10
   12e7c:	e3a00000 	mov	r0, #0
   12e80:	ebffffbc 	bl	12d78 <random_int>
   12e84:	e50b0014 	str	r0, [fp, #-20]	; 0xffffffec
   12e88:	e51b1014 	ldr	r1, [fp, #-20]	; 0xffffffec
   12e8c:	e59f31b4 	ldr	r3, [pc, #436]	; 13048 <random_gps+0x244>
   12e90:	e0c32193 	smull	r2, r3, r3, r1
   12e94:	e1a02143 	asr	r2, r3, #2
   12e98:	e1a03fc1 	asr	r3, r1, #31
   12e9c:	e0422003 	sub	r2, r2, r3
   12ea0:	e1a03002 	mov	r3, r2
   12ea4:	e1a03103 	lsl	r3, r3, #2
   12ea8:	e0833002 	add	r3, r3, r2
   12eac:	e1a03083 	lsl	r3, r3, #1
   12eb0:	e0412003 	sub	r2, r1, r3
   12eb4:	e51b3010 	ldr	r3, [fp, #-16]
   12eb8:	e1520003 	cmp	r2, r3
   12ebc:	aa000003 	bge	12ed0 <random_gps+0xcc>
   12ec0:	e51b3020 	ldr	r3, [fp, #-32]	; 0xffffffe0
   12ec4:	e3a02000 	mov	r2, #0
   12ec8:	e5c32010 	strb	r2, [r3, #16]
   12ecc:	ea000002 	b	12edc <random_gps+0xd8>
   12ed0:	e51b3020 	ldr	r3, [fp, #-32]	; 0xffffffe0
   12ed4:	e3a02001 	mov	r2, #1
   12ed8:	e5c32010 	strb	r2, [r3, #16]
   12edc:	ed5b7a0b 	vldr	s15, [fp, #-44]	; 0xffffffd4
   12ee0:	ed9f7a54 	vldr	s14, [pc, #336]	; 13038 <random_gps+0x234>
   12ee4:	eef47ac7 	vcmpe.f32	s15, s14
   12ee8:	eef1fa10 	vmrs	APSR_nzcv, fpscr
   12eec:	ca000007 	bgt	12f10 <random_gps+0x10c>
   12ef0:	ed5b7a0b 	vldr	s15, [fp, #-44]	; 0xffffffd4
   12ef4:	eef57ac0 	vcmpe.f32	s15, #0.0
   12ef8:	eef1fa10 	vmrs	APSR_nzcv, fpscr
   12efc:	4a000003 	bmi	12f10 <random_gps+0x10c>
   12f00:	ed5b7a0a 	vldr	s15, [fp, #-40]	; 0xffffffd8
   12f04:	eef57ac0 	vcmpe.f32	s15, #0.0
   12f08:	eef1fa10 	vmrs	APSR_nzcv, fpscr
   12f0c:	5a000002 	bpl	12f1c <random_gps+0x118>
   12f10:	e59f0134 	ldr	r0, [pc, #308]	; 1304c <random_gps+0x248>
   12f14:	ebffff83 	bl	12d28 <sendMsg_CPU2>
   12f18:	ea00003f 	b	1301c <random_gps+0x218>
   12f1c:	ed5b7a0b 	vldr	s15, [fp, #-44]	; 0xffffffd4
   12f20:	ed9f7a45 	vldr	s14, [pc, #276]	; 1303c <random_gps+0x238>
   12f24:	ee677a87 	vmul.f32	s15, s15, s14
   12f28:	eeb77ae7 	vcvt.f64.f32	d7, s15
   12f2c:	ed9f6b3d 	vldr	d6, [pc, #244]	; 13028 <random_gps+0x224>
   12f30:	ee377b06 	vadd.f64	d7, d7, d6
   12f34:	eefd7bc7 	vcvt.s32.f64	s15, d7
   12f38:	ee173a90 	vmov	r3, s15
   12f3c:	e50b3018 	str	r3, [fp, #-24]	; 0xffffffe8
   12f40:	ed5b7a0a 	vldr	s15, [fp, #-40]	; 0xffffffd8
   12f44:	ed9f7a3d 	vldr	s14, [pc, #244]	; 13040 <random_gps+0x23c>
   12f48:	ee677a87 	vmul.f32	s15, s15, s14
   12f4c:	eeb77ae7 	vcvt.f64.f32	d7, s15
   12f50:	ed9f6b34 	vldr	d6, [pc, #208]	; 13028 <random_gps+0x224>
   12f54:	ee377b06 	vadd.f64	d7, d7, d6
   12f58:	eefd7bc7 	vcvt.s32.f64	s15, d7
   12f5c:	ee173a90 	vmov	r3, s15
   12f60:	e50b301c 	str	r3, [fp, #-28]	; 0xffffffe4
   12f64:	e3a0100a 	mov	r1, #10
   12f68:	e3a00000 	mov	r0, #0
   12f6c:	ebffff81 	bl	12d78 <random_int>
   12f70:	e50b0014 	str	r0, [fp, #-20]	; 0xffffffec
   12f74:	e51b1014 	ldr	r1, [fp, #-20]	; 0xffffffec
   12f78:	e59f30c8 	ldr	r3, [pc, #200]	; 13048 <random_gps+0x244>
   12f7c:	e0c32193 	smull	r2, r3, r3, r1
   12f80:	e1a02143 	asr	r2, r3, #2
   12f84:	e1a03fc1 	asr	r3, r1, #31
   12f88:	e0422003 	sub	r2, r2, r3
   12f8c:	e1a03002 	mov	r3, r2
   12f90:	e1a03103 	lsl	r3, r3, #2
   12f94:	e0833002 	add	r3, r3, r2
   12f98:	e1a03083 	lsl	r3, r3, #1
   12f9c:	e0412003 	sub	r2, r1, r3
   12fa0:	e51b3018 	ldr	r3, [fp, #-24]	; 0xffffffe8
   12fa4:	e1520003 	cmp	r2, r3
   12fa8:	aa00001b 	bge	1301c <random_gps+0x218>
   12fac:	e51b3020 	ldr	r3, [fp, #-32]	; 0xffffffe0
   12fb0:	ed938b00 	vldr	d8, [r3]
   12fb4:	e51b301c 	ldr	r3, [fp, #-28]	; 0xffffffe4
   12fb8:	e2633000 	rsb	r3, r3, #0
   12fbc:	e51b101c 	ldr	r1, [fp, #-28]	; 0xffffffe4
   12fc0:	e1a00003 	mov	r0, r3
   12fc4:	ebffff6b 	bl	12d78 <random_int>
   12fc8:	ee070a90 	vmov	s15, r0
   12fcc:	eeb86be7 	vcvt.f64.s32	d6, s15
   12fd0:	ed9f5b16 	vldr	d5, [pc, #88]	; 13030 <random_gps+0x22c>
   12fd4:	ee867b05 	vdiv.f64	d7, d6, d5
   12fd8:	ee387b07 	vadd.f64	d7, d8, d7
   12fdc:	e51b3020 	ldr	r3, [fp, #-32]	; 0xffffffe0
   12fe0:	ed837b00 	vstr	d7, [r3]
   12fe4:	e51b3020 	ldr	r3, [fp, #-32]	; 0xffffffe0
   12fe8:	ed938b02 	vldr	d8, [r3, #8]
   12fec:	e51b301c 	ldr	r3, [fp, #-28]	; 0xffffffe4
   12ff0:	e2633000 	rsb	r3, r3, #0
   12ff4:	e51b101c 	ldr	r1, [fp, #-28]	; 0xffffffe4
   12ff8:	e1a00003 	mov	r0, r3
   12ffc:	ebffff5d 	bl	12d78 <random_int>
   13000:	ee070a90 	vmov	s15, r0
   13004:	eeb86be7 	vcvt.f64.s32	d6, s15
   13008:	ed9f5b08 	vldr	d5, [pc, #32]	; 13030 <random_gps+0x22c>
   1300c:	ee867b05 	vdiv.f64	d7, d6, d5
   13010:	ee387b07 	vadd.f64	d7, d8, d7
   13014:	e51b3020 	ldr	r3, [fp, #-32]	; 0xffffffe0
   13018:	ed837b02 	vstr	d7, [r3, #8]
   1301c:	e24bd00c 	sub	sp, fp, #12
   13020:	ecbd8b02 	vpop	{d8}
   13024:	e8bd8800 	pop	{fp, pc}
   13028:	00000000 	andeq	r0, r0, r0
   1302c:	3fe00000 	svccc	0x00e00000
   13030:	00000000 	andeq	r0, r0, r0
   13034:	40590000 	subsmi	r0, r9, r0
   13038:	3f800000 	svccc	0x00800000
   1303c:	41200000 			; <UNDEFINED> instruction: 0x41200000
   13040:	42c80000 	sbcmi	r0, r8, #0
   13044:	000165ac 	andeq	r6, r1, ip, lsr #11
   13048:	66666667 	strbtvs	r6, [r6], -r7, ror #12
   1304c:	000165e8 	andeq	r6, r1, r8, ror #11

00013050 <random_compass>:
   13050:	e92d4800 	push	{fp, lr}
   13054:	ed2d8b02 	vpush	{d8}
   13058:	e28db00c 	add	fp, sp, #12
   1305c:	e24dd028 	sub	sp, sp, #40	; 0x28
   13060:	e50b0028 	str	r0, [fp, #-40]	; 0xffffffd8
   13064:	ed0b0a0b 	vstr	s0, [fp, #-44]	; 0xffffffd4
   13068:	ed4b0a0c 	vstr	s1, [fp, #-48]	; 0xffffffd0
   1306c:	ed0b1a0d 	vstr	s2, [fp, #-52]	; 0xffffffcc
   13070:	ed5b7a0b 	vldr	s15, [fp, #-44]	; 0xffffffd4
   13074:	ed9f7a7f 	vldr	s14, [pc, #508]	; 13278 <random_compass+0x228>
   13078:	eef47ac7 	vcmpe.f32	s15, s14
   1307c:	eef1fa10 	vmrs	APSR_nzcv, fpscr
   13080:	ca000003 	bgt	13094 <random_compass+0x44>
   13084:	ed5b7a0b 	vldr	s15, [fp, #-44]	; 0xffffffd4
   13088:	eef57ac0 	vcmpe.f32	s15, #0.0
   1308c:	eef1fa10 	vmrs	APSR_nzcv, fpscr
   13090:	5a000002 	bpl	130a0 <random_compass+0x50>
   13094:	e59f01f4 	ldr	r0, [pc, #500]	; 13290 <random_compass+0x240>
   13098:	ebffff22 	bl	12d28 <sendMsg_CPU2>
   1309c:	ea00006e 	b	1325c <random_compass+0x20c>
   130a0:	ed5b7a0b 	vldr	s15, [fp, #-44]	; 0xffffffd4
   130a4:	ed9f7a74 	vldr	s14, [pc, #464]	; 1327c <random_compass+0x22c>
   130a8:	ee677a87 	vmul.f32	s15, s15, s14
   130ac:	eeb77ae7 	vcvt.f64.f32	d7, s15
   130b0:	ed9f6b6c 	vldr	d6, [pc, #432]	; 13268 <random_compass+0x218>
   130b4:	ee377b06 	vadd.f64	d7, d7, d6
   130b8:	eefd7bc7 	vcvt.s32.f64	s15, d7
   130bc:	ee173a90 	vmov	r3, s15
   130c0:	e50b3010 	str	r3, [fp, #-16]
   130c4:	e3a0100a 	mov	r1, #10
   130c8:	e3a00000 	mov	r0, #0
   130cc:	ebffff29 	bl	12d78 <random_int>
   130d0:	e50b0014 	str	r0, [fp, #-20]	; 0xffffffec
   130d4:	e51b1014 	ldr	r1, [fp, #-20]	; 0xffffffec
   130d8:	e59f31b4 	ldr	r3, [pc, #436]	; 13294 <random_compass+0x244>
   130dc:	e0c32193 	smull	r2, r3, r3, r1
   130e0:	e1a02143 	asr	r2, r3, #2
   130e4:	e1a03fc1 	asr	r3, r1, #31
   130e8:	e0422003 	sub	r2, r2, r3
   130ec:	e1a03002 	mov	r3, r2
   130f0:	e1a03103 	lsl	r3, r3, #2
   130f4:	e0833002 	add	r3, r3, r2
   130f8:	e1a03083 	lsl	r3, r3, #1
   130fc:	e0412003 	sub	r2, r1, r3
   13100:	e51b3010 	ldr	r3, [fp, #-16]
   13104:	e1520003 	cmp	r2, r3
   13108:	aa000003 	bge	1311c <random_compass+0xcc>
   1310c:	e51b3028 	ldr	r3, [fp, #-40]	; 0xffffffd8
   13110:	e3a02000 	mov	r2, #0
   13114:	e5c32008 	strb	r2, [r3, #8]
   13118:	ea000002 	b	13128 <random_compass+0xd8>
   1311c:	e51b3028 	ldr	r3, [fp, #-40]	; 0xffffffd8
   13120:	e3a02001 	mov	r2, #1
   13124:	e5c32008 	strb	r2, [r3, #8]
   13128:	ed5b7a0d 	vldr	s15, [fp, #-52]	; 0xffffffcc
   1312c:	ed9f7a51 	vldr	s14, [pc, #324]	; 13278 <random_compass+0x228>
   13130:	eef47ac7 	vcmpe.f32	s15, s14
   13134:	eef1fa10 	vmrs	APSR_nzcv, fpscr
   13138:	ca00000c 	bgt	13170 <random_compass+0x120>
   1313c:	ed5b7a0d 	vldr	s15, [fp, #-52]	; 0xffffffcc
   13140:	eef57ac0 	vcmpe.f32	s15, #0.0
   13144:	eef1fa10 	vmrs	APSR_nzcv, fpscr
   13148:	4a000008 	bmi	13170 <random_compass+0x120>
   1314c:	ed5b7a0c 	vldr	s15, [fp, #-48]	; 0xffffffd0
   13150:	eef57ac0 	vcmpe.f32	s15, #0.0
   13154:	eef1fa10 	vmrs	APSR_nzcv, fpscr
   13158:	4a000004 	bmi	13170 <random_compass+0x120>
   1315c:	ed5b7a0c 	vldr	s15, [fp, #-48]	; 0xffffffd0
   13160:	ed9f7a46 	vldr	s14, [pc, #280]	; 13280 <random_compass+0x230>
   13164:	eef47ac7 	vcmpe.f32	s15, s14
   13168:	eef1fa10 	vmrs	APSR_nzcv, fpscr
   1316c:	ba000002 	blt	1317c <random_compass+0x12c>
   13170:	e59f0120 	ldr	r0, [pc, #288]	; 13298 <random_compass+0x248>
   13174:	ebfffeeb 	bl	12d28 <sendMsg_CPU2>
   13178:	ea000037 	b	1325c <random_compass+0x20c>
   1317c:	ed5b7a0c 	vldr	s15, [fp, #-48]	; 0xffffffd0
   13180:	ed9f7a3f 	vldr	s14, [pc, #252]	; 13284 <random_compass+0x234>
   13184:	ee277a87 	vmul.f32	s14, s15, s14
   13188:	eddf6a3e 	vldr	s13, [pc, #248]	; 13288 <random_compass+0x238>
   1318c:	eec77a26 	vdiv.f32	s15, s14, s13
   13190:	ed4b7a06 	vstr	s15, [fp, #-24]	; 0xffffffe8
   13194:	ed5b7a0d 	vldr	s15, [fp, #-52]	; 0xffffffcc
   13198:	ed9f7a37 	vldr	s14, [pc, #220]	; 1327c <random_compass+0x22c>
   1319c:	ee677a87 	vmul.f32	s15, s15, s14
   131a0:	eeb77ae7 	vcvt.f64.f32	d7, s15
   131a4:	ed9f6b2f 	vldr	d6, [pc, #188]	; 13268 <random_compass+0x218>
   131a8:	ee377b06 	vadd.f64	d7, d7, d6
   131ac:	eefd7bc7 	vcvt.s32.f64	s15, d7
   131b0:	ee173a90 	vmov	r3, s15
   131b4:	e50b301c 	str	r3, [fp, #-28]	; 0xffffffe4
   131b8:	ed5b7a06 	vldr	s15, [fp, #-24]	; 0xffffffe8
   131bc:	ed9f7a32 	vldr	s14, [pc, #200]	; 1328c <random_compass+0x23c>
   131c0:	ee677a87 	vmul.f32	s15, s15, s14
   131c4:	eeb77ae7 	vcvt.f64.f32	d7, s15
   131c8:	ed9f6b26 	vldr	d6, [pc, #152]	; 13268 <random_compass+0x218>
   131cc:	ee377b06 	vadd.f64	d7, d7, d6
   131d0:	eefd7bc7 	vcvt.s32.f64	s15, d7
   131d4:	ee173a90 	vmov	r3, s15
   131d8:	e50b3020 	str	r3, [fp, #-32]	; 0xffffffe0
   131dc:	e3a0100a 	mov	r1, #10
   131e0:	e3a00000 	mov	r0, #0
   131e4:	ebfffee3 	bl	12d78 <random_int>
   131e8:	e50b0014 	str	r0, [fp, #-20]	; 0xffffffec
   131ec:	e51b1014 	ldr	r1, [fp, #-20]	; 0xffffffec
   131f0:	e59f309c 	ldr	r3, [pc, #156]	; 13294 <random_compass+0x244>
   131f4:	e0c32193 	smull	r2, r3, r3, r1
   131f8:	e1a02143 	asr	r2, r3, #2
   131fc:	e1a03fc1 	asr	r3, r1, #31
   13200:	e0422003 	sub	r2, r2, r3
   13204:	e1a03002 	mov	r3, r2
   13208:	e1a03103 	lsl	r3, r3, #2
   1320c:	e0833002 	add	r3, r3, r2
   13210:	e1a03083 	lsl	r3, r3, #1
   13214:	e0412003 	sub	r2, r1, r3
   13218:	e51b301c 	ldr	r3, [fp, #-28]	; 0xffffffe4
   1321c:	e1520003 	cmp	r2, r3
   13220:	aa00000d 	bge	1325c <random_compass+0x20c>
   13224:	e51b3028 	ldr	r3, [fp, #-40]	; 0xffffffd8
   13228:	ed938b00 	vldr	d8, [r3]
   1322c:	e51b3020 	ldr	r3, [fp, #-32]	; 0xffffffe0
   13230:	e2633000 	rsb	r3, r3, #0
   13234:	e51b1020 	ldr	r1, [fp, #-32]	; 0xffffffe0
   13238:	e1a00003 	mov	r0, r3
   1323c:	ebfffecd 	bl	12d78 <random_int>
   13240:	ee070a90 	vmov	s15, r0
   13244:	eeb86be7 	vcvt.f64.s32	d6, s15
   13248:	ed9f5b08 	vldr	d5, [pc, #32]	; 13270 <random_compass+0x220>
   1324c:	ee867b05 	vdiv.f64	d7, d6, d5
   13250:	ee387b07 	vadd.f64	d7, d8, d7
   13254:	e51b3028 	ldr	r3, [fp, #-40]	; 0xffffffd8
   13258:	ed837b00 	vstr	d7, [r3]
   1325c:	e24bd00c 	sub	sp, fp, #12
   13260:	ecbd8b02 	vpop	{d8}
   13264:	e8bd8800 	pop	{fp, pc}
   13268:	00000000 	andeq	r0, r0, r0
   1326c:	3fe00000 	svccc	0x00e00000
   13270:	00000000 	andeq	r0, r0, r0
   13274:	40590000 	subsmi	r0, r9, r0
   13278:	3f800000 	svccc	0x00800000
   1327c:	41200000 			; <UNDEFINED> instruction: 0x41200000
   13280:	43b40000 			; <UNDEFINED> instruction: 0x43b40000
   13284:	40490fdb 	ldrdmi	r0, [r9], #-251	; 0xffffff05
   13288:	43340000 	teqmi	r4, #0
   1328c:	42c80000 	sbcmi	r0, r8, #0
   13290:	00016640 	andeq	r6, r1, r0, asr #12
   13294:	66666667 	strbtvs	r6, [r6], -r7, ror #12
   13298:	00016680 	andeq	r6, r1, r0, lsl #13

0001329c <random_odometry>:
   1329c:	e92d4800 	push	{fp, lr}
   132a0:	ed2d8b02 	vpush	{d8}
   132a4:	e28db00c 	add	fp, sp, #12
   132a8:	e24dd020 	sub	sp, sp, #32
   132ac:	e50b0020 	str	r0, [fp, #-32]	; 0xffffffe0
   132b0:	ed0b0a09 	vstr	s0, [fp, #-36]	; 0xffffffdc
   132b4:	ed4b0a0a 	vstr	s1, [fp, #-40]	; 0xffffffd8
   132b8:	ed0b1a0b 	vstr	s2, [fp, #-44]	; 0xffffffd4
   132bc:	ed5b7a09 	vldr	s15, [fp, #-36]	; 0xffffffdc
   132c0:	ed9f7a82 	vldr	s14, [pc, #520]	; 134d0 <random_odometry+0x234>
   132c4:	eef47ac7 	vcmpe.f32	s15, s14
   132c8:	eef1fa10 	vmrs	APSR_nzcv, fpscr
   132cc:	ca000003 	bgt	132e0 <random_odometry+0x44>
   132d0:	ed5b7a09 	vldr	s15, [fp, #-36]	; 0xffffffdc
   132d4:	eef57ac0 	vcmpe.f32	s15, #0.0
   132d8:	eef1fa10 	vmrs	APSR_nzcv, fpscr
   132dc:	5a000002 	bpl	132ec <random_odometry+0x50>
   132e0:	e59f01f4 	ldr	r0, [pc, #500]	; 134dc <random_odometry+0x240>
   132e4:	ebfffe8f 	bl	12d28 <sendMsg_CPU2>
   132e8:	ea000071 	b	134b4 <random_odometry+0x218>
   132ec:	ed5b7a09 	vldr	s15, [fp, #-36]	; 0xffffffdc
   132f0:	ed9f7a77 	vldr	s14, [pc, #476]	; 134d4 <random_odometry+0x238>
   132f4:	ee677a87 	vmul.f32	s15, s15, s14
   132f8:	eeb77ae7 	vcvt.f64.f32	d7, s15
   132fc:	ed9f6b6f 	vldr	d6, [pc, #444]	; 134c0 <random_odometry+0x224>
   13300:	ee377b06 	vadd.f64	d7, d7, d6
   13304:	eefd7bc7 	vcvt.s32.f64	s15, d7
   13308:	ee173a90 	vmov	r3, s15
   1330c:	e50b3010 	str	r3, [fp, #-16]
   13310:	e3a0100a 	mov	r1, #10
   13314:	e3a00000 	mov	r0, #0
   13318:	ebfffe96 	bl	12d78 <random_int>
   1331c:	e50b0014 	str	r0, [fp, #-20]	; 0xffffffec
   13320:	e51b1014 	ldr	r1, [fp, #-20]	; 0xffffffec
   13324:	e59f31b4 	ldr	r3, [pc, #436]	; 134e0 <random_odometry+0x244>
   13328:	e0c32193 	smull	r2, r3, r3, r1
   1332c:	e1a02143 	asr	r2, r3, #2
   13330:	e1a03fc1 	asr	r3, r1, #31
   13334:	e0422003 	sub	r2, r2, r3
   13338:	e1a03002 	mov	r3, r2
   1333c:	e1a03103 	lsl	r3, r3, #2
   13340:	e0833002 	add	r3, r3, r2
   13344:	e1a03083 	lsl	r3, r3, #1
   13348:	e0412003 	sub	r2, r1, r3
   1334c:	e51b3010 	ldr	r3, [fp, #-16]
   13350:	e1520003 	cmp	r2, r3
   13354:	aa000003 	bge	13368 <random_odometry+0xcc>
   13358:	e51b3020 	ldr	r3, [fp, #-32]	; 0xffffffe0
   1335c:	e3a02000 	mov	r2, #0
   13360:	e5c32020 	strb	r2, [r3, #32]
   13364:	ea000002 	b	13374 <random_odometry+0xd8>
   13368:	e51b3020 	ldr	r3, [fp, #-32]	; 0xffffffe0
   1336c:	e3a02001 	mov	r2, #1
   13370:	e5c32020 	strb	r2, [r3, #32]
   13374:	ed5b7a0b 	vldr	s15, [fp, #-44]	; 0xffffffd4
   13378:	ed9f7a54 	vldr	s14, [pc, #336]	; 134d0 <random_odometry+0x234>
   1337c:	eef47ac7 	vcmpe.f32	s15, s14
   13380:	eef1fa10 	vmrs	APSR_nzcv, fpscr
   13384:	ca000007 	bgt	133a8 <random_odometry+0x10c>
   13388:	ed5b7a0b 	vldr	s15, [fp, #-44]	; 0xffffffd4
   1338c:	eef57ac0 	vcmpe.f32	s15, #0.0
   13390:	eef1fa10 	vmrs	APSR_nzcv, fpscr
   13394:	4a000003 	bmi	133a8 <random_odometry+0x10c>
   13398:	ed5b7a0a 	vldr	s15, [fp, #-40]	; 0xffffffd8
   1339c:	eef57ac0 	vcmpe.f32	s15, #0.0
   133a0:	eef1fa10 	vmrs	APSR_nzcv, fpscr
   133a4:	5a000002 	bpl	133b4 <random_odometry+0x118>
   133a8:	e59f0134 	ldr	r0, [pc, #308]	; 134e4 <random_odometry+0x248>
   133ac:	ebfffe5d 	bl	12d28 <sendMsg_CPU2>
   133b0:	ea00003f 	b	134b4 <random_odometry+0x218>
   133b4:	ed5b7a0b 	vldr	s15, [fp, #-44]	; 0xffffffd4
   133b8:	ed9f7a45 	vldr	s14, [pc, #276]	; 134d4 <random_odometry+0x238>
   133bc:	ee677a87 	vmul.f32	s15, s15, s14
   133c0:	eeb77ae7 	vcvt.f64.f32	d7, s15
   133c4:	ed9f6b3d 	vldr	d6, [pc, #244]	; 134c0 <random_odometry+0x224>
   133c8:	ee377b06 	vadd.f64	d7, d7, d6
   133cc:	eefd7bc7 	vcvt.s32.f64	s15, d7
   133d0:	ee173a90 	vmov	r3, s15
   133d4:	e50b3018 	str	r3, [fp, #-24]	; 0xffffffe8
   133d8:	ed5b7a0a 	vldr	s15, [fp, #-40]	; 0xffffffd8
   133dc:	ed9f7a3d 	vldr	s14, [pc, #244]	; 134d8 <random_odometry+0x23c>
   133e0:	ee677a87 	vmul.f32	s15, s15, s14
   133e4:	eeb77ae7 	vcvt.f64.f32	d7, s15
   133e8:	ed9f6b34 	vldr	d6, [pc, #208]	; 134c0 <random_odometry+0x224>
   133ec:	ee377b06 	vadd.f64	d7, d7, d6
   133f0:	eefd7bc7 	vcvt.s32.f64	s15, d7
   133f4:	ee173a90 	vmov	r3, s15
   133f8:	e50b301c 	str	r3, [fp, #-28]	; 0xffffffe4
   133fc:	e3a0100a 	mov	r1, #10
   13400:	e3a00000 	mov	r0, #0
   13404:	ebfffe5b 	bl	12d78 <random_int>
   13408:	e50b0014 	str	r0, [fp, #-20]	; 0xffffffec
   1340c:	e51b1014 	ldr	r1, [fp, #-20]	; 0xffffffec
   13410:	e59f30c8 	ldr	r3, [pc, #200]	; 134e0 <random_odometry+0x244>
   13414:	e0c32193 	smull	r2, r3, r3, r1
   13418:	e1a02143 	asr	r2, r3, #2
   1341c:	e1a03fc1 	asr	r3, r1, #31
   13420:	e0422003 	sub	r2, r2, r3
   13424:	e1a03002 	mov	r3, r2
   13428:	e1a03103 	lsl	r3, r3, #2
   1342c:	e0833002 	add	r3, r3, r2
   13430:	e1a03083 	lsl	r3, r3, #1
   13434:	e0412003 	sub	r2, r1, r3
   13438:	e51b3018 	ldr	r3, [fp, #-24]	; 0xffffffe8
   1343c:	e1520003 	cmp	r2, r3
   13440:	aa00001b 	bge	134b4 <random_odometry+0x218>
   13444:	e51b3020 	ldr	r3, [fp, #-32]	; 0xffffffe0
   13448:	ed938b00 	vldr	d8, [r3]
   1344c:	e51b301c 	ldr	r3, [fp, #-28]	; 0xffffffe4
   13450:	e2633000 	rsb	r3, r3, #0
   13454:	e51b101c 	ldr	r1, [fp, #-28]	; 0xffffffe4
   13458:	e1a00003 	mov	r0, r3
   1345c:	ebfffe45 	bl	12d78 <random_int>
   13460:	ee070a90 	vmov	s15, r0
   13464:	eeb86be7 	vcvt.f64.s32	d6, s15
   13468:	ed9f5b16 	vldr	d5, [pc, #88]	; 134c8 <random_odometry+0x22c>
   1346c:	ee867b05 	vdiv.f64	d7, d6, d5
   13470:	ee387b07 	vadd.f64	d7, d8, d7
   13474:	e51b3020 	ldr	r3, [fp, #-32]	; 0xffffffe0
   13478:	ed837b00 	vstr	d7, [r3]
   1347c:	e51b3020 	ldr	r3, [fp, #-32]	; 0xffffffe0
   13480:	ed938b02 	vldr	d8, [r3, #8]
   13484:	e51b301c 	ldr	r3, [fp, #-28]	; 0xffffffe4
   13488:	e2633000 	rsb	r3, r3, #0
   1348c:	e51b101c 	ldr	r1, [fp, #-28]	; 0xffffffe4
   13490:	e1a00003 	mov	r0, r3
   13494:	ebfffe37 	bl	12d78 <random_int>
   13498:	ee070a90 	vmov	s15, r0
   1349c:	eeb86be7 	vcvt.f64.s32	d6, s15
   134a0:	ed9f5b08 	vldr	d5, [pc, #32]	; 134c8 <random_odometry+0x22c>
   134a4:	ee867b05 	vdiv.f64	d7, d6, d5
   134a8:	ee387b07 	vadd.f64	d7, d8, d7
   134ac:	e51b3020 	ldr	r3, [fp, #-32]	; 0xffffffe0
   134b0:	ed837b02 	vstr	d7, [r3, #8]
   134b4:	e24bd00c 	sub	sp, fp, #12
   134b8:	ecbd8b02 	vpop	{d8}
   134bc:	e8bd8800 	pop	{fp, pc}
   134c0:	00000000 	andeq	r0, r0, r0
   134c4:	3fe00000 	svccc	0x00e00000
   134c8:	00000000 	andeq	r0, r0, r0
   134cc:	40590000 	subsmi	r0, r9, r0
   134d0:	3f800000 	svccc	0x00800000
   134d4:	41200000 			; <UNDEFINED> instruction: 0x41200000
   134d8:	42c80000 	sbcmi	r0, r8, #0
   134dc:	000166ec 	andeq	r6, r1, ip, ror #13
   134e0:	66666667 	strbtvs	r6, [r6], -r7, ror #12
   134e4:	0001672c 	andeq	r6, r1, ip, lsr #14

000134e8 <sensor_data_randomize>:
   134e8:	e92d4800 	push	{fp, lr}
   134ec:	e28db004 	add	fp, sp, #4
   134f0:	e24dd010 	sub	sp, sp, #16
   134f4:	e50b0008 	str	r0, [fp, #-8]
   134f8:	e50b100c 	str	r1, [fp, #-12]
   134fc:	e50b2010 	str	r2, [fp, #-16]
   13500:	e54b3011 	strb	r3, [fp, #-17]	; 0xffffffef
   13504:	e59f30b4 	ldr	r3, [pc, #180]	; 135c0 <sensor_data_randomize+0xd8>
   13508:	e1d330d0 	ldrsb	r3, [r3]
   1350c:	e3530000 	cmp	r3, #0
   13510:	0a000003 	beq	13524 <sensor_data_randomize+0x3c>
   13514:	ebfffe0e 	bl	12d54 <init_random>
   13518:	e59f30a0 	ldr	r3, [pc, #160]	; 135c0 <sensor_data_randomize+0xd8>
   1351c:	e3a02000 	mov	r2, #0
   13520:	e5c32000 	strb	r2, [r3]
   13524:	e15b31d1 	ldrsb	r3, [fp, #-17]	; 0xffffffef
   13528:	e3530000 	cmp	r3, #0
   1352c:	0a000020 	beq	135b4 <sensor_data_randomize+0xcc>
   13530:	e59f308c 	ldr	r3, [pc, #140]	; 135c4 <sensor_data_randomize+0xdc>
   13534:	edd37a03 	vldr	s15, [r3, #12]
   13538:	e59f3084 	ldr	r3, [pc, #132]	; 135c4 <sensor_data_randomize+0xdc>
   1353c:	ed937a05 	vldr	s14, [r3, #20]
   13540:	e59f307c 	ldr	r3, [pc, #124]	; 135c4 <sensor_data_randomize+0xdc>
   13544:	edd36a04 	vldr	s13, [r3, #16]
   13548:	eeb01a66 	vmov.f32	s2, s13
   1354c:	eef00a47 	vmov.f32	s1, s14
   13550:	eeb00a67 	vmov.f32	s0, s15
   13554:	e51b000c 	ldr	r0, [fp, #-12]
   13558:	ebfffebc 	bl	13050 <random_compass>
   1355c:	e59f3060 	ldr	r3, [pc, #96]	; 135c4 <sensor_data_randomize+0xdc>
   13560:	edd37a00 	vldr	s15, [r3]
   13564:	e59f3058 	ldr	r3, [pc, #88]	; 135c4 <sensor_data_randomize+0xdc>
   13568:	ed937a02 	vldr	s14, [r3, #8]
   1356c:	e59f3050 	ldr	r3, [pc, #80]	; 135c4 <sensor_data_randomize+0xdc>
   13570:	edd36a01 	vldr	s13, [r3, #4]
   13574:	eeb01a66 	vmov.f32	s2, s13
   13578:	eef00a47 	vmov.f32	s1, s14
   1357c:	eeb00a67 	vmov.f32	s0, s15
   13580:	e51b0008 	ldr	r0, [fp, #-8]
   13584:	ebfffe1e 	bl	12e04 <random_gps>
   13588:	e59f3034 	ldr	r3, [pc, #52]	; 135c4 <sensor_data_randomize+0xdc>
   1358c:	edd37a06 	vldr	s15, [r3, #24]
   13590:	e59f302c 	ldr	r3, [pc, #44]	; 135c4 <sensor_data_randomize+0xdc>
   13594:	ed937a08 	vldr	s14, [r3, #32]
   13598:	e59f3024 	ldr	r3, [pc, #36]	; 135c4 <sensor_data_randomize+0xdc>
   1359c:	edd36a07 	vldr	s13, [r3, #28]
   135a0:	eeb01a66 	vmov.f32	s2, s13
   135a4:	eef00a47 	vmov.f32	s1, s14
   135a8:	eeb00a67 	vmov.f32	s0, s15
   135ac:	e51b0010 	ldr	r0, [fp, #-16]
   135b0:	ebffff39 	bl	1329c <random_odometry>
   135b4:	e1a00000 	nop			; (mov r0, r0)
   135b8:	e24bd004 	sub	sp, fp, #4
   135bc:	e8bd8800 	pop	{fp, pc}
   135c0:	0002706e 	andeq	r7, r2, lr, rrx
   135c4:	0002af48 	andeq	sl, r2, r8, asr #30

000135c8 <segment>:
   135c8:	e52db004 	push	{fp}		; (str fp, [sp, #-4]!)
   135cc:	e28db000 	add	fp, sp, #0
   135d0:	e24dd044 	sub	sp, sp, #68	; 0x44
   135d4:	eeb06a40 	vmov.f32	s12, s0
   135d8:	eef06a60 	vmov.f32	s13, s1
   135dc:	eeb07a41 	vmov.f32	s14, s2
   135e0:	eef07a61 	vmov.f32	s15, s3
   135e4:	ed0b6a0b 	vstr	s12, [fp, #-44]	; 0xffffffd4
   135e8:	ed4b6a0a 	vstr	s13, [fp, #-40]	; 0xffffffd8
   135ec:	ed0b7a0d 	vstr	s14, [fp, #-52]	; 0xffffffcc
   135f0:	ed4b7a0c 	vstr	s15, [fp, #-48]	; 0xffffffd0
   135f4:	e24b3024 	sub	r3, fp, #36	; 0x24
   135f8:	e24b202c 	sub	r2, fp, #44	; 0x2c
   135fc:	e8920003 	ldm	r2, {r0, r1}
   13600:	e8830003 	stm	r3, {r0, r1}
   13604:	e24b301c 	sub	r3, fp, #28
   13608:	e24b2034 	sub	r2, fp, #52	; 0x34
   1360c:	e8920003 	ldm	r2, {r0, r1}
   13610:	e8830003 	stm	r3, {r0, r1}
   13614:	e24bc014 	sub	ip, fp, #20
   13618:	e24b3024 	sub	r3, fp, #36	; 0x24
   1361c:	e893000f 	ldm	r3, {r0, r1, r2, r3}
   13620:	e88c000f 	stm	ip, {r0, r1, r2, r3}
   13624:	e51b0014 	ldr	r0, [fp, #-20]	; 0xffffffec
   13628:	e51b1010 	ldr	r1, [fp, #-16]
   1362c:	e51b200c 	ldr	r2, [fp, #-12]
   13630:	e51b3008 	ldr	r3, [fp, #-8]
   13634:	ee060a10 	vmov	s12, r0
   13638:	ee061a90 	vmov	s13, r1
   1363c:	ee072a10 	vmov	s14, r2
   13640:	ee073a90 	vmov	s15, r3
   13644:	eeb00a46 	vmov.f32	s0, s12
   13648:	eef00a66 	vmov.f32	s1, s13
   1364c:	eeb01a47 	vmov.f32	s2, s14
   13650:	eef01a67 	vmov.f32	s3, s15
   13654:	e28bd000 	add	sp, fp, #0
   13658:	e49db004 	pop	{fp}		; (ldr fp, [sp], #4)
   1365c:	e12fff1e 	bx	lr

00013660 <inInterval>:
   13660:	e52db004 	push	{fp}		; (str fp, [sp, #-4]!)
   13664:	e28db000 	add	fp, sp, #0
   13668:	e24dd014 	sub	sp, sp, #20
   1366c:	ed0b0a02 	vstr	s0, [fp, #-8]
   13670:	ed4b0a03 	vstr	s1, [fp, #-12]
   13674:	ed0b1a04 	vstr	s2, [fp, #-16]
   13678:	ed4b1a05 	vstr	s3, [fp, #-20]	; 0xffffffec
   1367c:	ed1b7a03 	vldr	s14, [fp, #-12]
   13680:	ed5b7a04 	vldr	s15, [fp, #-16]
   13684:	eeb47ae7 	vcmpe.f32	s14, s15
   13688:	eef1fa10 	vmrs	APSR_nzcv, fpscr
   1368c:	8a000012 	bhi	136dc <inInterval+0x7c>
   13690:	ed1b7a03 	vldr	s14, [fp, #-12]
   13694:	ed5b7a05 	vldr	s15, [fp, #-20]	; 0xffffffec
   13698:	ee377a67 	vsub.f32	s14, s14, s15
   1369c:	ed5b7a02 	vldr	s15, [fp, #-8]
   136a0:	eeb47ae7 	vcmpe.f32	s14, s15
   136a4:	eef1fa10 	vmrs	APSR_nzcv, fpscr
   136a8:	8a000008 	bhi	136d0 <inInterval+0x70>
   136ac:	ed1b7a04 	vldr	s14, [fp, #-16]
   136b0:	ed5b7a05 	vldr	s15, [fp, #-20]	; 0xffffffec
   136b4:	ee377a27 	vadd.f32	s14, s14, s15
   136b8:	ed5b7a02 	vldr	s15, [fp, #-8]
   136bc:	eeb47ae7 	vcmpe.f32	s14, s15
   136c0:	eef1fa10 	vmrs	APSR_nzcv, fpscr
   136c4:	ba000001 	blt	136d0 <inInterval+0x70>
   136c8:	e3a03001 	mov	r3, #1
   136cc:	ea000000 	b	136d4 <inInterval+0x74>
   136d0:	e3a03000 	mov	r3, #0
   136d4:	e6af3073 	sxtb	r3, r3
   136d8:	ea000011 	b	13724 <inInterval+0xc4>
   136dc:	ed1b7a04 	vldr	s14, [fp, #-16]
   136e0:	ed5b7a05 	vldr	s15, [fp, #-20]	; 0xffffffec
   136e4:	ee377a67 	vsub.f32	s14, s14, s15
   136e8:	ed5b7a02 	vldr	s15, [fp, #-8]
   136ec:	eeb47ae7 	vcmpe.f32	s14, s15
   136f0:	eef1fa10 	vmrs	APSR_nzcv, fpscr
   136f4:	8a000008 	bhi	1371c <inInterval+0xbc>
   136f8:	ed1b7a03 	vldr	s14, [fp, #-12]
   136fc:	ed5b7a05 	vldr	s15, [fp, #-20]	; 0xffffffec
   13700:	ee377a27 	vadd.f32	s14, s14, s15
   13704:	ed5b7a02 	vldr	s15, [fp, #-8]
   13708:	eeb47ae7 	vcmpe.f32	s14, s15
   1370c:	eef1fa10 	vmrs	APSR_nzcv, fpscr
   13710:	ba000001 	blt	1371c <inInterval+0xbc>
   13714:	e3a03001 	mov	r3, #1
   13718:	ea000000 	b	13720 <inInterval+0xc0>
   1371c:	e3a03000 	mov	r3, #0
   13720:	e6af3073 	sxtb	r3, r3
   13724:	e1a00003 	mov	r0, r3
   13728:	e28bd000 	add	sp, fp, #0
   1372c:	e49db004 	pop	{fp}		; (ldr fp, [sp], #4)
   13730:	e12fff1e 	bx	lr

00013734 <intersects>:
   13734:	e92d4800 	push	{fp, lr}
   13738:	e28db004 	add	fp, sp, #4
   1373c:	e24dd058 	sub	sp, sp, #88	; 0x58
   13740:	eeb04a40 	vmov.f32	s8, s0
   13744:	eef04a60 	vmov.f32	s9, s1
   13748:	eeb05a41 	vmov.f32	s10, s2
   1374c:	eef05a61 	vmov.f32	s11, s3
   13750:	eeb06a42 	vmov.f32	s12, s4
   13754:	eef06a62 	vmov.f32	s13, s5
   13758:	eeb07a43 	vmov.f32	s14, s6
   1375c:	eef07a63 	vmov.f32	s15, s7
   13760:	ed0b4a13 	vstr	s8, [fp, #-76]	; 0xffffffb4
   13764:	ed4b4a12 	vstr	s9, [fp, #-72]	; 0xffffffb8
   13768:	ed0b5a11 	vstr	s10, [fp, #-68]	; 0xffffffbc
   1376c:	ed4b5a10 	vstr	s11, [fp, #-64]	; 0xffffffc0
   13770:	ed0b6a17 	vstr	s12, [fp, #-92]	; 0xffffffa4
   13774:	ed4b6a16 	vstr	s13, [fp, #-88]	; 0xffffffa8
   13778:	ed0b7a15 	vstr	s14, [fp, #-84]	; 0xffffffac
   1377c:	ed4b7a14 	vstr	s15, [fp, #-80]	; 0xffffffb0
   13780:	e24b3020 	sub	r3, fp, #32
   13784:	e24b204c 	sub	r2, fp, #76	; 0x4c
   13788:	e8920003 	ldm	r2, {r0, r1}
   1378c:	e8830003 	stm	r3, {r0, r1}
   13790:	e24b3028 	sub	r3, fp, #40	; 0x28
   13794:	e24b2044 	sub	r2, fp, #68	; 0x44
   13798:	e8920003 	ldm	r2, {r0, r1}
   1379c:	e8830003 	stm	r3, {r0, r1}
   137a0:	e24b3030 	sub	r3, fp, #48	; 0x30
   137a4:	e24b205c 	sub	r2, fp, #92	; 0x5c
   137a8:	e8920003 	ldm	r2, {r0, r1}
   137ac:	e8830003 	stm	r3, {r0, r1}
   137b0:	e24b3038 	sub	r3, fp, #56	; 0x38
   137b4:	e24b2054 	sub	r2, fp, #84	; 0x54
   137b8:	e8920003 	ldm	r2, {r0, r1}
   137bc:	e8830003 	stm	r3, {r0, r1}
   137c0:	ed1b7a0a 	vldr	s14, [fp, #-40]	; 0xffffffd8
   137c4:	ed5b7a08 	vldr	s15, [fp, #-32]	; 0xffffffe0
   137c8:	ee777a67 	vsub.f32	s15, s14, s15
   137cc:	eef57a40 	vcmp.f32	s15, #0.0
   137d0:	eef1fa10 	vmrs	APSR_nzcv, fpscr
   137d4:	1a000005 	bne	137f0 <intersects+0xbc>
   137d8:	ed1b7a09 	vldr	s14, [fp, #-36]	; 0xffffffdc
   137dc:	ed5b7a07 	vldr	s15, [fp, #-28]	; 0xffffffe4
   137e0:	ee777a67 	vsub.f32	s15, s14, s15
   137e4:	eef57a40 	vcmp.f32	s15, #0.0
   137e8:	eef1fa10 	vmrs	APSR_nzcv, fpscr
   137ec:	0a00000b 	beq	13820 <intersects+0xec>
   137f0:	ed1b7a0e 	vldr	s14, [fp, #-56]	; 0xffffffc8
   137f4:	ed5b7a0c 	vldr	s15, [fp, #-48]	; 0xffffffd0
   137f8:	ee777a67 	vsub.f32	s15, s14, s15
   137fc:	eef57a40 	vcmp.f32	s15, #0.0
   13800:	eef1fa10 	vmrs	APSR_nzcv, fpscr
   13804:	1a000007 	bne	13828 <intersects+0xf4>
   13808:	ed1b7a0d 	vldr	s14, [fp, #-52]	; 0xffffffcc
   1380c:	ed5b7a0b 	vldr	s15, [fp, #-44]	; 0xffffffd4
   13810:	ee777a67 	vsub.f32	s15, s14, s15
   13814:	eef57a40 	vcmp.f32	s15, #0.0
   13818:	eef1fa10 	vmrs	APSR_nzcv, fpscr
   1381c:	1a000001 	bne	13828 <intersects+0xf4>
   13820:	e3a03001 	mov	r3, #1
   13824:	ea000000 	b	1382c <intersects+0xf8>
   13828:	e3a03000 	mov	r3, #0
   1382c:	e6af3073 	sxtb	r3, r3
   13830:	e54b3015 	strb	r3, [fp, #-21]	; 0xffffffeb
   13834:	ed1b7a07 	vldr	s14, [fp, #-28]	; 0xffffffe4
   13838:	ed5b7a0b 	vldr	s15, [fp, #-44]	; 0xffffffd4
   1383c:	ee377a67 	vsub.f32	s14, s14, s15
   13840:	ed5b6a0e 	vldr	s13, [fp, #-56]	; 0xffffffc8
   13844:	ed5b7a0c 	vldr	s15, [fp, #-48]	; 0xffffffd0
   13848:	ee767ae7 	vsub.f32	s15, s13, s15
   1384c:	ee277a27 	vmul.f32	s14, s14, s15
   13850:	ed5b6a08 	vldr	s13, [fp, #-32]	; 0xffffffe0
   13854:	ed5b7a0c 	vldr	s15, [fp, #-48]	; 0xffffffd0
   13858:	ee766ae7 	vsub.f32	s13, s13, s15
   1385c:	ed1b6a0d 	vldr	s12, [fp, #-52]	; 0xffffffcc
   13860:	ed5b7a0b 	vldr	s15, [fp, #-44]	; 0xffffffd4
   13864:	ee767a67 	vsub.f32	s15, s12, s15
   13868:	ee667aa7 	vmul.f32	s15, s13, s15
   1386c:	ee777a67 	vsub.f32	s15, s14, s15
   13870:	ed4b7a02 	vstr	s15, [fp, #-8]
   13874:	ed1b7a0a 	vldr	s14, [fp, #-40]	; 0xffffffd8
   13878:	ed5b7a08 	vldr	s15, [fp, #-32]	; 0xffffffe0
   1387c:	ee377a67 	vsub.f32	s14, s14, s15
   13880:	ed5b6a0d 	vldr	s13, [fp, #-52]	; 0xffffffcc
   13884:	ed5b7a0b 	vldr	s15, [fp, #-44]	; 0xffffffd4
   13888:	ee767ae7 	vsub.f32	s15, s13, s15
   1388c:	ee277a27 	vmul.f32	s14, s14, s15
   13890:	ed5b6a09 	vldr	s13, [fp, #-36]	; 0xffffffdc
   13894:	ed5b7a07 	vldr	s15, [fp, #-28]	; 0xffffffe4
   13898:	ee766ae7 	vsub.f32	s13, s13, s15
   1389c:	ed1b6a0e 	vldr	s12, [fp, #-56]	; 0xffffffc8
   138a0:	ed5b7a0c 	vldr	s15, [fp, #-48]	; 0xffffffd0
   138a4:	ee767a67 	vsub.f32	s15, s12, s15
   138a8:	ee667aa7 	vmul.f32	s15, s13, s15
   138ac:	ee777a67 	vsub.f32	s15, s14, s15
   138b0:	ed4b7a03 	vstr	s15, [fp, #-12]
   138b4:	ed5b7a03 	vldr	s15, [fp, #-12]
   138b8:	eef57a40 	vcmp.f32	s15, #0.0
   138bc:	eef1fa10 	vmrs	APSR_nzcv, fpscr
   138c0:	1a000052 	bne	13a10 <intersects+0x2dc>
   138c4:	e3a03001 	mov	r3, #1
   138c8:	e54b3017 	strb	r3, [fp, #-23]	; 0xffffffe9
   138cc:	ed5b7a02 	vldr	s15, [fp, #-8]
   138d0:	eef57a40 	vcmp.f32	s15, #0.0
   138d4:	eef1fa10 	vmrs	APSR_nzcv, fpscr
   138d8:	1a000048 	bne	13a00 <intersects+0x2cc>
   138dc:	e3a03001 	mov	r3, #1
   138e0:	e54b3016 	strb	r3, [fp, #-22]	; 0xffffffea
   138e4:	ed5b7a0c 	vldr	s15, [fp, #-48]	; 0xffffffd0
   138e8:	ed1b7a08 	vldr	s14, [fp, #-32]	; 0xffffffe0
   138ec:	ed5b6a0a 	vldr	s13, [fp, #-40]	; 0xffffffd8
   138f0:	eddf1a7b 	vldr	s3, [pc, #492]	; 13ae4 <intersects+0x3b0>
   138f4:	eeb01a66 	vmov.f32	s2, s13
   138f8:	eef00a47 	vmov.f32	s1, s14
   138fc:	eeb00a67 	vmov.f32	s0, s15
   13900:	ebffff56 	bl	13660 <inInterval>
   13904:	e1a03000 	mov	r3, r0
   13908:	e3530000 	cmp	r3, #0
   1390c:	0a00000a 	beq	1393c <intersects+0x208>
   13910:	ed5b7a0b 	vldr	s15, [fp, #-44]	; 0xffffffd4
   13914:	ed1b7a07 	vldr	s14, [fp, #-28]	; 0xffffffe4
   13918:	ed5b6a09 	vldr	s13, [fp, #-36]	; 0xffffffdc
   1391c:	eddf1a70 	vldr	s3, [pc, #448]	; 13ae4 <intersects+0x3b0>
   13920:	eeb01a66 	vmov.f32	s2, s13
   13924:	eef00a47 	vmov.f32	s1, s14
   13928:	eeb00a67 	vmov.f32	s0, s15
   1392c:	ebffff4b 	bl	13660 <inInterval>
   13930:	e1a03000 	mov	r3, r0
   13934:	e3530000 	cmp	r3, #0
   13938:	1a00002b 	bne	139ec <intersects+0x2b8>
   1393c:	ed5b7a0e 	vldr	s15, [fp, #-56]	; 0xffffffc8
   13940:	ed1b7a08 	vldr	s14, [fp, #-32]	; 0xffffffe0
   13944:	ed5b6a0a 	vldr	s13, [fp, #-40]	; 0xffffffd8
   13948:	eddf1a65 	vldr	s3, [pc, #404]	; 13ae4 <intersects+0x3b0>
   1394c:	eeb01a66 	vmov.f32	s2, s13
   13950:	eef00a47 	vmov.f32	s1, s14
   13954:	eeb00a67 	vmov.f32	s0, s15
   13958:	ebffff40 	bl	13660 <inInterval>
   1395c:	e1a03000 	mov	r3, r0
   13960:	e3530000 	cmp	r3, #0
   13964:	0a00000a 	beq	13994 <intersects+0x260>
   13968:	ed5b7a0d 	vldr	s15, [fp, #-52]	; 0xffffffcc
   1396c:	ed1b7a07 	vldr	s14, [fp, #-28]	; 0xffffffe4
   13970:	ed5b6a09 	vldr	s13, [fp, #-36]	; 0xffffffdc
   13974:	eddf1a5a 	vldr	s3, [pc, #360]	; 13ae4 <intersects+0x3b0>
   13978:	eeb01a66 	vmov.f32	s2, s13
   1397c:	eef00a47 	vmov.f32	s1, s14
   13980:	eeb00a67 	vmov.f32	s0, s15
   13984:	ebffff35 	bl	13660 <inInterval>
   13988:	e1a03000 	mov	r3, r0
   1398c:	e3530000 	cmp	r3, #0
   13990:	1a000015 	bne	139ec <intersects+0x2b8>
   13994:	ed5b7a08 	vldr	s15, [fp, #-32]	; 0xffffffe0
   13998:	ed1b7a0c 	vldr	s14, [fp, #-48]	; 0xffffffd0
   1399c:	ed5b6a0e 	vldr	s13, [fp, #-56]	; 0xffffffc8
   139a0:	eddf1a4f 	vldr	s3, [pc, #316]	; 13ae4 <intersects+0x3b0>
   139a4:	eeb01a66 	vmov.f32	s2, s13
   139a8:	eef00a47 	vmov.f32	s1, s14
   139ac:	eeb00a67 	vmov.f32	s0, s15
   139b0:	ebffff2a 	bl	13660 <inInterval>
   139b4:	e1a03000 	mov	r3, r0
   139b8:	e3530000 	cmp	r3, #0
   139bc:	0a00000c 	beq	139f4 <intersects+0x2c0>
   139c0:	ed5b7a07 	vldr	s15, [fp, #-28]	; 0xffffffe4
   139c4:	ed1b7a0b 	vldr	s14, [fp, #-44]	; 0xffffffd4
   139c8:	ed5b6a0d 	vldr	s13, [fp, #-52]	; 0xffffffcc
   139cc:	eddf1a44 	vldr	s3, [pc, #272]	; 13ae4 <intersects+0x3b0>
   139d0:	eeb01a66 	vmov.f32	s2, s13
   139d4:	eef00a47 	vmov.f32	s1, s14
   139d8:	eeb00a67 	vmov.f32	s0, s15
   139dc:	ebffff1f 	bl	13660 <inInterval>
   139e0:	e1a03000 	mov	r3, r0
   139e4:	e3530000 	cmp	r3, #0
   139e8:	0a000001 	beq	139f4 <intersects+0x2c0>
   139ec:	e3a03001 	mov	r3, #1
   139f0:	ea000000 	b	139f8 <intersects+0x2c4>
   139f4:	e3a03000 	mov	r3, #0
   139f8:	e6af3073 	sxtb	r3, r3
   139fc:	ea000035 	b	13ad8 <intersects+0x3a4>
   13a00:	e3a03000 	mov	r3, #0
   13a04:	e54b3016 	strb	r3, [fp, #-22]	; 0xffffffea
   13a08:	e3a03000 	mov	r3, #0
   13a0c:	ea000031 	b	13ad8 <intersects+0x3a4>
   13a10:	e3a03000 	mov	r3, #0
   13a14:	e54b3017 	strb	r3, [fp, #-23]	; 0xffffffe9
   13a18:	e3a03000 	mov	r3, #0
   13a1c:	e54b3016 	strb	r3, [fp, #-22]	; 0xffffffea
   13a20:	ed5b6a02 	vldr	s13, [fp, #-8]
   13a24:	ed1b7a03 	vldr	s14, [fp, #-12]
   13a28:	eec67a87 	vdiv.f32	s15, s13, s14
   13a2c:	ed4b7a04 	vstr	s15, [fp, #-16]
   13a30:	ed1b7a07 	vldr	s14, [fp, #-28]	; 0xffffffe4
   13a34:	ed5b7a0b 	vldr	s15, [fp, #-44]	; 0xffffffd4
   13a38:	ee377a67 	vsub.f32	s14, s14, s15
   13a3c:	ed5b6a0a 	vldr	s13, [fp, #-40]	; 0xffffffd8
   13a40:	ed5b7a08 	vldr	s15, [fp, #-32]	; 0xffffffe0
   13a44:	ee767ae7 	vsub.f32	s15, s13, s15
   13a48:	ee277a27 	vmul.f32	s14, s14, s15
   13a4c:	ed5b6a08 	vldr	s13, [fp, #-32]	; 0xffffffe0
   13a50:	ed5b7a0c 	vldr	s15, [fp, #-48]	; 0xffffffd0
   13a54:	ee766ae7 	vsub.f32	s13, s13, s15
   13a58:	ed1b6a09 	vldr	s12, [fp, #-36]	; 0xffffffdc
   13a5c:	ed5b7a07 	vldr	s15, [fp, #-28]	; 0xffffffe4
   13a60:	ee767a67 	vsub.f32	s15, s12, s15
   13a64:	ee667aa7 	vmul.f32	s15, s13, s15
   13a68:	ee777a67 	vsub.f32	s15, s14, s15
   13a6c:	ed4b7a02 	vstr	s15, [fp, #-8]
   13a70:	ed5b6a02 	vldr	s13, [fp, #-8]
   13a74:	ed1b7a03 	vldr	s14, [fp, #-12]
   13a78:	eec67a87 	vdiv.f32	s15, s13, s14
   13a7c:	ed4b7a05 	vstr	s15, [fp, #-20]	; 0xffffffec
   13a80:	ed5b7a04 	vldr	s15, [fp, #-16]
   13a84:	eef57ac0 	vcmpe.f32	s15, #0.0
   13a88:	eef1fa10 	vmrs	APSR_nzcv, fpscr
   13a8c:	ba00000f 	blt	13ad0 <intersects+0x39c>
   13a90:	ed5b7a04 	vldr	s15, [fp, #-16]
   13a94:	ed9f7a13 	vldr	s14, [pc, #76]	; 13ae8 <intersects+0x3b4>
   13a98:	eef47ac7 	vcmpe.f32	s15, s14
   13a9c:	eef1fa10 	vmrs	APSR_nzcv, fpscr
   13aa0:	8a00000a 	bhi	13ad0 <intersects+0x39c>
   13aa4:	ed5b7a05 	vldr	s15, [fp, #-20]	; 0xffffffec
   13aa8:	eef57ac0 	vcmpe.f32	s15, #0.0
   13aac:	eef1fa10 	vmrs	APSR_nzcv, fpscr
   13ab0:	ba000006 	blt	13ad0 <intersects+0x39c>
   13ab4:	ed5b7a05 	vldr	s15, [fp, #-20]	; 0xffffffec
   13ab8:	ed9f7a0a 	vldr	s14, [pc, #40]	; 13ae8 <intersects+0x3b4>
   13abc:	eef47ac7 	vcmpe.f32	s15, s14
   13ac0:	eef1fa10 	vmrs	APSR_nzcv, fpscr
   13ac4:	8a000001 	bhi	13ad0 <intersects+0x39c>
   13ac8:	e3a03001 	mov	r3, #1
   13acc:	ea000000 	b	13ad4 <intersects+0x3a0>
   13ad0:	e3a03000 	mov	r3, #0
   13ad4:	e6af3073 	sxtb	r3, r3
   13ad8:	e1a00003 	mov	r0, r3
   13adc:	e24bd004 	sub	sp, fp, #4
   13ae0:	e8bd8800 	pop	{fp, pc}
   13ae4:	3727c5ac 	strcc	ip, [r7, -ip, lsr #11]!
   13ae8:	3f800000 	svccc	0x00800000

00013aec <get_intersection>:
   13aec:	e92d4800 	push	{fp, lr}
   13af0:	e28db004 	add	fp, sp, #4
   13af4:	e24dd058 	sub	sp, sp, #88	; 0x58
   13af8:	eeb04a40 	vmov.f32	s8, s0
   13afc:	eef04a60 	vmov.f32	s9, s1
   13b00:	eeb05a41 	vmov.f32	s10, s2
   13b04:	eef05a61 	vmov.f32	s11, s3
   13b08:	eeb06a42 	vmov.f32	s12, s4
   13b0c:	eef06a62 	vmov.f32	s13, s5
   13b10:	eeb07a43 	vmov.f32	s14, s6
   13b14:	eef07a63 	vmov.f32	s15, s7
   13b18:	e50b0058 	str	r0, [fp, #-88]	; 0xffffffa8
   13b1c:	e50b105c 	str	r1, [fp, #-92]	; 0xffffffa4
   13b20:	ed0b4a11 	vstr	s8, [fp, #-68]	; 0xffffffbc
   13b24:	ed4b4a10 	vstr	s9, [fp, #-64]	; 0xffffffc0
   13b28:	ed0b5a0f 	vstr	s10, [fp, #-60]	; 0xffffffc4
   13b2c:	ed4b5a0e 	vstr	s11, [fp, #-56]	; 0xffffffc8
   13b30:	ed0b6a15 	vstr	s12, [fp, #-84]	; 0xffffffac
   13b34:	ed4b6a14 	vstr	s13, [fp, #-80]	; 0xffffffb0
   13b38:	ed0b7a13 	vstr	s14, [fp, #-76]	; 0xffffffb4
   13b3c:	ed4b7a12 	vstr	s15, [fp, #-72]	; 0xffffffb8
   13b40:	e24b301c 	sub	r3, fp, #28
   13b44:	e24b2044 	sub	r2, fp, #68	; 0x44
   13b48:	e8920003 	ldm	r2, {r0, r1}
   13b4c:	e8830003 	stm	r3, {r0, r1}
   13b50:	e24b3024 	sub	r3, fp, #36	; 0x24
   13b54:	e24b203c 	sub	r2, fp, #60	; 0x3c
   13b58:	e8920003 	ldm	r2, {r0, r1}
   13b5c:	e8830003 	stm	r3, {r0, r1}
   13b60:	e24b302c 	sub	r3, fp, #44	; 0x2c
   13b64:	e24b2054 	sub	r2, fp, #84	; 0x54
   13b68:	e8920003 	ldm	r2, {r0, r1}
   13b6c:	e8830003 	stm	r3, {r0, r1}
   13b70:	e24b3034 	sub	r3, fp, #52	; 0x34
   13b74:	e24b204c 	sub	r2, fp, #76	; 0x4c
   13b78:	e8920003 	ldm	r2, {r0, r1}
   13b7c:	e8830003 	stm	r3, {r0, r1}
   13b80:	ed1b7a09 	vldr	s14, [fp, #-36]	; 0xffffffdc
   13b84:	ed5b7a07 	vldr	s15, [fp, #-28]	; 0xffffffe4
   13b88:	ee777a67 	vsub.f32	s15, s14, s15
   13b8c:	eef57a40 	vcmp.f32	s15, #0.0
   13b90:	eef1fa10 	vmrs	APSR_nzcv, fpscr
   13b94:	1a000005 	bne	13bb0 <get_intersection+0xc4>
   13b98:	ed1b7a08 	vldr	s14, [fp, #-32]	; 0xffffffe0
   13b9c:	ed5b7a06 	vldr	s15, [fp, #-24]	; 0xffffffe8
   13ba0:	ee777a67 	vsub.f32	s15, s14, s15
   13ba4:	eef57a40 	vcmp.f32	s15, #0.0
   13ba8:	eef1fa10 	vmrs	APSR_nzcv, fpscr
   13bac:	0a00000b 	beq	13be0 <get_intersection+0xf4>
   13bb0:	ed1b7a0d 	vldr	s14, [fp, #-52]	; 0xffffffcc
   13bb4:	ed5b7a0b 	vldr	s15, [fp, #-44]	; 0xffffffd4
   13bb8:	ee777a67 	vsub.f32	s15, s14, s15
   13bbc:	eef57a40 	vcmp.f32	s15, #0.0
   13bc0:	eef1fa10 	vmrs	APSR_nzcv, fpscr
   13bc4:	1a000007 	bne	13be8 <get_intersection+0xfc>
   13bc8:	ed1b7a0c 	vldr	s14, [fp, #-48]	; 0xffffffd0
   13bcc:	ed5b7a0a 	vldr	s15, [fp, #-40]	; 0xffffffd8
   13bd0:	ee777a67 	vsub.f32	s15, s14, s15
   13bd4:	eef57a40 	vcmp.f32	s15, #0.0
   13bd8:	eef1fa10 	vmrs	APSR_nzcv, fpscr
   13bdc:	1a000001 	bne	13be8 <get_intersection+0xfc>
   13be0:	e3a03001 	mov	r3, #1
   13be4:	ea000000 	b	13bec <get_intersection+0x100>
   13be8:	e3a03000 	mov	r3, #0
   13bec:	e6af2073 	sxtb	r2, r3
   13bf0:	e51b305c 	ldr	r3, [fp, #-92]	; 0xffffffa4
   13bf4:	e5c32003 	strb	r2, [r3, #3]
   13bf8:	e51b305c 	ldr	r3, [fp, #-92]	; 0xffffffa4
   13bfc:	e1d330d3 	ldrsb	r3, [r3, #3]
   13c00:	e3530000 	cmp	r3, #0
   13c04:	0a00001a 	beq	13c74 <get_intersection+0x188>
   13c08:	ed1b7a07 	vldr	s14, [fp, #-28]	; 0xffffffe4
   13c0c:	ed5b7a0b 	vldr	s15, [fp, #-44]	; 0xffffffd4
   13c10:	eeb47a67 	vcmp.f32	s14, s15
   13c14:	eef1fa10 	vmrs	APSR_nzcv, fpscr
   13c18:	1a000006 	bne	13c38 <get_intersection+0x14c>
   13c1c:	ed1b7a06 	vldr	s14, [fp, #-24]	; 0xffffffe8
   13c20:	ed5b7a0a 	vldr	s15, [fp, #-40]	; 0xffffffd8
   13c24:	eeb47a67 	vcmp.f32	s14, s15
   13c28:	eef1fa10 	vmrs	APSR_nzcv, fpscr
   13c2c:	1a000001 	bne	13c38 <get_intersection+0x14c>
   13c30:	e3a03001 	mov	r3, #1
   13c34:	ea000000 	b	13c3c <get_intersection+0x150>
   13c38:	e3a03000 	mov	r3, #0
   13c3c:	e6af2073 	sxtb	r2, r3
   13c40:	e51b305c 	ldr	r3, [fp, #-92]	; 0xffffffa4
   13c44:	e5c32000 	strb	r2, [r3]
   13c48:	e51b305c 	ldr	r3, [fp, #-92]	; 0xffffffa4
   13c4c:	e1d330d0 	ldrsb	r3, [r3]
   13c50:	e3530000 	cmp	r3, #0
   13c54:	0a0000e8 	beq	13ffc <get_intersection+0x510>
   13c58:	e51b201c 	ldr	r2, [fp, #-28]	; 0xffffffe4
   13c5c:	e51b3058 	ldr	r3, [fp, #-88]	; 0xffffffa8
   13c60:	e5832000 	str	r2, [r3]
   13c64:	e51b2018 	ldr	r2, [fp, #-24]	; 0xffffffe8
   13c68:	e51b3058 	ldr	r3, [fp, #-88]	; 0xffffffa8
   13c6c:	e5832004 	str	r2, [r3, #4]
   13c70:	ea0000e1 	b	13ffc <get_intersection+0x510>
   13c74:	ed1b7a06 	vldr	s14, [fp, #-24]	; 0xffffffe8
   13c78:	ed5b7a0a 	vldr	s15, [fp, #-40]	; 0xffffffd8
   13c7c:	ee377a67 	vsub.f32	s14, s14, s15
   13c80:	ed5b6a0d 	vldr	s13, [fp, #-52]	; 0xffffffcc
   13c84:	ed5b7a0b 	vldr	s15, [fp, #-44]	; 0xffffffd4
   13c88:	ee767ae7 	vsub.f32	s15, s13, s15
   13c8c:	ee277a27 	vmul.f32	s14, s14, s15
   13c90:	ed5b6a07 	vldr	s13, [fp, #-28]	; 0xffffffe4
   13c94:	ed5b7a0b 	vldr	s15, [fp, #-44]	; 0xffffffd4
   13c98:	ee766ae7 	vsub.f32	s13, s13, s15
   13c9c:	ed1b6a0c 	vldr	s12, [fp, #-48]	; 0xffffffd0
   13ca0:	ed5b7a0a 	vldr	s15, [fp, #-40]	; 0xffffffd8
   13ca4:	ee767a67 	vsub.f32	s15, s12, s15
   13ca8:	ee667aa7 	vmul.f32	s15, s13, s15
   13cac:	ee777a67 	vsub.f32	s15, s14, s15
   13cb0:	ed4b7a02 	vstr	s15, [fp, #-8]
   13cb4:	ed1b7a09 	vldr	s14, [fp, #-36]	; 0xffffffdc
   13cb8:	ed5b7a07 	vldr	s15, [fp, #-28]	; 0xffffffe4
   13cbc:	ee377a67 	vsub.f32	s14, s14, s15
   13cc0:	ed5b6a0c 	vldr	s13, [fp, #-48]	; 0xffffffd0
   13cc4:	ed5b7a0a 	vldr	s15, [fp, #-40]	; 0xffffffd8
   13cc8:	ee767ae7 	vsub.f32	s15, s13, s15
   13ccc:	ee277a27 	vmul.f32	s14, s14, s15
   13cd0:	ed5b6a08 	vldr	s13, [fp, #-32]	; 0xffffffe0
   13cd4:	ed5b7a06 	vldr	s15, [fp, #-24]	; 0xffffffe8
   13cd8:	ee766ae7 	vsub.f32	s13, s13, s15
   13cdc:	ed1b6a0d 	vldr	s12, [fp, #-52]	; 0xffffffcc
   13ce0:	ed5b7a0b 	vldr	s15, [fp, #-44]	; 0xffffffd4
   13ce4:	ee767a67 	vsub.f32	s15, s12, s15
   13ce8:	ee667aa7 	vmul.f32	s15, s13, s15
   13cec:	ee777a67 	vsub.f32	s15, s14, s15
   13cf0:	ed4b7a03 	vstr	s15, [fp, #-12]
   13cf4:	ed5b7a03 	vldr	s15, [fp, #-12]
   13cf8:	eef57a40 	vcmp.f32	s15, #0.0
   13cfc:	eef1fa10 	vmrs	APSR_nzcv, fpscr
   13d00:	1a000074 	bne	13ed8 <get_intersection+0x3ec>
   13d04:	e51b305c 	ldr	r3, [fp, #-92]	; 0xffffffa4
   13d08:	e3a02001 	mov	r2, #1
   13d0c:	e5c32001 	strb	r2, [r3, #1]
   13d10:	ed5b7a02 	vldr	s15, [fp, #-8]
   13d14:	eef57a40 	vcmp.f32	s15, #0.0
   13d18:	eef1fa10 	vmrs	APSR_nzcv, fpscr
   13d1c:	1a000066 	bne	13ebc <get_intersection+0x3d0>
   13d20:	e51b305c 	ldr	r3, [fp, #-92]	; 0xffffffa4
   13d24:	e3a02001 	mov	r2, #1
   13d28:	e5c32002 	strb	r2, [r3, #2]
   13d2c:	ed5b7a0b 	vldr	s15, [fp, #-44]	; 0xffffffd4
   13d30:	ed1b7a07 	vldr	s14, [fp, #-28]	; 0xffffffe4
   13d34:	ed5b6a09 	vldr	s13, [fp, #-36]	; 0xffffffdc
   13d38:	eddf1ab2 	vldr	s3, [pc, #712]	; 14008 <get_intersection+0x51c>
   13d3c:	eeb01a66 	vmov.f32	s2, s13
   13d40:	eef00a47 	vmov.f32	s1, s14
   13d44:	eeb00a67 	vmov.f32	s0, s15
   13d48:	ebfffe44 	bl	13660 <inInterval>
   13d4c:	e1a03000 	mov	r3, r0
   13d50:	e3530000 	cmp	r3, #0
   13d54:	0a000014 	beq	13dac <get_intersection+0x2c0>
   13d58:	ed5b7a0a 	vldr	s15, [fp, #-40]	; 0xffffffd8
   13d5c:	ed1b7a06 	vldr	s14, [fp, #-24]	; 0xffffffe8
   13d60:	ed5b6a08 	vldr	s13, [fp, #-32]	; 0xffffffe0
   13d64:	eddf1aa7 	vldr	s3, [pc, #668]	; 14008 <get_intersection+0x51c>
   13d68:	eeb01a66 	vmov.f32	s2, s13
   13d6c:	eef00a47 	vmov.f32	s1, s14
   13d70:	eeb00a67 	vmov.f32	s0, s15
   13d74:	ebfffe39 	bl	13660 <inInterval>
   13d78:	e1a03000 	mov	r3, r0
   13d7c:	e3530000 	cmp	r3, #0
   13d80:	0a000009 	beq	13dac <get_intersection+0x2c0>
   13d84:	e51b305c 	ldr	r3, [fp, #-92]	; 0xffffffa4
   13d88:	e3a02001 	mov	r2, #1
   13d8c:	e5c32000 	strb	r2, [r3]
   13d90:	e51b202c 	ldr	r2, [fp, #-44]	; 0xffffffd4
   13d94:	e51b3058 	ldr	r3, [fp, #-88]	; 0xffffffa8
   13d98:	e5832000 	str	r2, [r3]
   13d9c:	e51b2028 	ldr	r2, [fp, #-40]	; 0xffffffd8
   13da0:	e51b3058 	ldr	r3, [fp, #-88]	; 0xffffffa8
   13da4:	e5832004 	str	r2, [r3, #4]
   13da8:	ea000093 	b	13ffc <get_intersection+0x510>
   13dac:	ed5b7a0d 	vldr	s15, [fp, #-52]	; 0xffffffcc
   13db0:	ed1b7a07 	vldr	s14, [fp, #-28]	; 0xffffffe4
   13db4:	ed5b6a09 	vldr	s13, [fp, #-36]	; 0xffffffdc
   13db8:	eddf1a92 	vldr	s3, [pc, #584]	; 14008 <get_intersection+0x51c>
   13dbc:	eeb01a66 	vmov.f32	s2, s13
   13dc0:	eef00a47 	vmov.f32	s1, s14
   13dc4:	eeb00a67 	vmov.f32	s0, s15
   13dc8:	ebfffe24 	bl	13660 <inInterval>
   13dcc:	e1a03000 	mov	r3, r0
   13dd0:	e3530000 	cmp	r3, #0
   13dd4:	0a000014 	beq	13e2c <get_intersection+0x340>
   13dd8:	ed5b7a0c 	vldr	s15, [fp, #-48]	; 0xffffffd0
   13ddc:	ed1b7a06 	vldr	s14, [fp, #-24]	; 0xffffffe8
   13de0:	ed5b6a08 	vldr	s13, [fp, #-32]	; 0xffffffe0
   13de4:	eddf1a87 	vldr	s3, [pc, #540]	; 14008 <get_intersection+0x51c>
   13de8:	eeb01a66 	vmov.f32	s2, s13
   13dec:	eef00a47 	vmov.f32	s1, s14
   13df0:	eeb00a67 	vmov.f32	s0, s15
   13df4:	ebfffe19 	bl	13660 <inInterval>
   13df8:	e1a03000 	mov	r3, r0
   13dfc:	e3530000 	cmp	r3, #0
   13e00:	0a000009 	beq	13e2c <get_intersection+0x340>
   13e04:	e51b305c 	ldr	r3, [fp, #-92]	; 0xffffffa4
   13e08:	e3a02001 	mov	r2, #1
   13e0c:	e5c32000 	strb	r2, [r3]
   13e10:	e51b2034 	ldr	r2, [fp, #-52]	; 0xffffffcc
   13e14:	e51b3058 	ldr	r3, [fp, #-88]	; 0xffffffa8
   13e18:	e5832000 	str	r2, [r3]
   13e1c:	e51b2030 	ldr	r2, [fp, #-48]	; 0xffffffd0
   13e20:	e51b3058 	ldr	r3, [fp, #-88]	; 0xffffffa8
   13e24:	e5832004 	str	r2, [r3, #4]
   13e28:	ea000073 	b	13ffc <get_intersection+0x510>
   13e2c:	ed5b7a07 	vldr	s15, [fp, #-28]	; 0xffffffe4
   13e30:	ed1b7a0b 	vldr	s14, [fp, #-44]	; 0xffffffd4
   13e34:	ed5b6a0d 	vldr	s13, [fp, #-52]	; 0xffffffcc
   13e38:	eddf1a72 	vldr	s3, [pc, #456]	; 14008 <get_intersection+0x51c>
   13e3c:	eeb01a66 	vmov.f32	s2, s13
   13e40:	eef00a47 	vmov.f32	s1, s14
   13e44:	eeb00a67 	vmov.f32	s0, s15
   13e48:	ebfffe04 	bl	13660 <inInterval>
   13e4c:	e1a03000 	mov	r3, r0
   13e50:	e3530000 	cmp	r3, #0
   13e54:	0a000014 	beq	13eac <get_intersection+0x3c0>
   13e58:	ed5b7a06 	vldr	s15, [fp, #-24]	; 0xffffffe8
   13e5c:	ed1b7a0a 	vldr	s14, [fp, #-40]	; 0xffffffd8
   13e60:	ed5b6a0c 	vldr	s13, [fp, #-48]	; 0xffffffd0
   13e64:	eddf1a67 	vldr	s3, [pc, #412]	; 14008 <get_intersection+0x51c>
   13e68:	eeb01a66 	vmov.f32	s2, s13
   13e6c:	eef00a47 	vmov.f32	s1, s14
   13e70:	eeb00a67 	vmov.f32	s0, s15
   13e74:	ebfffdf9 	bl	13660 <inInterval>
   13e78:	e1a03000 	mov	r3, r0
   13e7c:	e3530000 	cmp	r3, #0
   13e80:	0a000009 	beq	13eac <get_intersection+0x3c0>
   13e84:	e51b305c 	ldr	r3, [fp, #-92]	; 0xffffffa4
   13e88:	e3a02001 	mov	r2, #1
   13e8c:	e5c32000 	strb	r2, [r3]
   13e90:	e51b201c 	ldr	r2, [fp, #-28]	; 0xffffffe4
   13e94:	e51b3058 	ldr	r3, [fp, #-88]	; 0xffffffa8
   13e98:	e5832000 	str	r2, [r3]
   13e9c:	e51b2018 	ldr	r2, [fp, #-24]	; 0xffffffe8
   13ea0:	e51b3058 	ldr	r3, [fp, #-88]	; 0xffffffa8
   13ea4:	e5832004 	str	r2, [r3, #4]
   13ea8:	ea000053 	b	13ffc <get_intersection+0x510>
   13eac:	e51b305c 	ldr	r3, [fp, #-92]	; 0xffffffa4
   13eb0:	e3a02000 	mov	r2, #0
   13eb4:	e5c32000 	strb	r2, [r3]
   13eb8:	ea00004f 	b	13ffc <get_intersection+0x510>
   13ebc:	e51b305c 	ldr	r3, [fp, #-92]	; 0xffffffa4
   13ec0:	e3a02000 	mov	r2, #0
   13ec4:	e5c32002 	strb	r2, [r3, #2]
   13ec8:	e51b305c 	ldr	r3, [fp, #-92]	; 0xffffffa4
   13ecc:	e3a02000 	mov	r2, #0
   13ed0:	e5c32000 	strb	r2, [r3]
   13ed4:	ea000048 	b	13ffc <get_intersection+0x510>
   13ed8:	e51b305c 	ldr	r3, [fp, #-92]	; 0xffffffa4
   13edc:	e3a02000 	mov	r2, #0
   13ee0:	e5c32001 	strb	r2, [r3, #1]
   13ee4:	e51b305c 	ldr	r3, [fp, #-92]	; 0xffffffa4
   13ee8:	e3a02000 	mov	r2, #0
   13eec:	e5c32002 	strb	r2, [r3, #2]
   13ef0:	ed5b6a02 	vldr	s13, [fp, #-8]
   13ef4:	ed1b7a03 	vldr	s14, [fp, #-12]
   13ef8:	eec67a87 	vdiv.f32	s15, s13, s14
   13efc:	ed4b7a04 	vstr	s15, [fp, #-16]
   13f00:	ed1b7a06 	vldr	s14, [fp, #-24]	; 0xffffffe8
   13f04:	ed5b7a0a 	vldr	s15, [fp, #-40]	; 0xffffffd8
   13f08:	ee377a67 	vsub.f32	s14, s14, s15
   13f0c:	ed5b6a09 	vldr	s13, [fp, #-36]	; 0xffffffdc
   13f10:	ed5b7a07 	vldr	s15, [fp, #-28]	; 0xffffffe4
   13f14:	ee767ae7 	vsub.f32	s15, s13, s15
   13f18:	ee277a27 	vmul.f32	s14, s14, s15
   13f1c:	ed5b6a07 	vldr	s13, [fp, #-28]	; 0xffffffe4
   13f20:	ed5b7a0b 	vldr	s15, [fp, #-44]	; 0xffffffd4
   13f24:	ee766ae7 	vsub.f32	s13, s13, s15
   13f28:	ed1b6a08 	vldr	s12, [fp, #-32]	; 0xffffffe0
   13f2c:	ed5b7a06 	vldr	s15, [fp, #-24]	; 0xffffffe8
   13f30:	ee767a67 	vsub.f32	s15, s12, s15
   13f34:	ee667aa7 	vmul.f32	s15, s13, s15
   13f38:	ee777a67 	vsub.f32	s15, s14, s15
   13f3c:	ed4b7a02 	vstr	s15, [fp, #-8]
   13f40:	ed5b6a02 	vldr	s13, [fp, #-8]
   13f44:	ed1b7a03 	vldr	s14, [fp, #-12]
   13f48:	eec67a87 	vdiv.f32	s15, s13, s14
   13f4c:	ed4b7a05 	vstr	s15, [fp, #-20]	; 0xffffffec
   13f50:	ed5b7a04 	vldr	s15, [fp, #-16]
   13f54:	eef57ac0 	vcmpe.f32	s15, #0.0
   13f58:	eef1fa10 	vmrs	APSR_nzcv, fpscr
   13f5c:	ba00000f 	blt	13fa0 <get_intersection+0x4b4>
   13f60:	ed5b7a04 	vldr	s15, [fp, #-16]
   13f64:	ed9f7a28 	vldr	s14, [pc, #160]	; 1400c <get_intersection+0x520>
   13f68:	eef47ac7 	vcmpe.f32	s15, s14
   13f6c:	eef1fa10 	vmrs	APSR_nzcv, fpscr
   13f70:	8a00000a 	bhi	13fa0 <get_intersection+0x4b4>
   13f74:	ed5b7a05 	vldr	s15, [fp, #-20]	; 0xffffffec
   13f78:	eef57ac0 	vcmpe.f32	s15, #0.0
   13f7c:	eef1fa10 	vmrs	APSR_nzcv, fpscr
   13f80:	ba000006 	blt	13fa0 <get_intersection+0x4b4>
   13f84:	ed5b7a05 	vldr	s15, [fp, #-20]	; 0xffffffec
   13f88:	ed9f7a1f 	vldr	s14, [pc, #124]	; 1400c <get_intersection+0x520>
   13f8c:	eef47ac7 	vcmpe.f32	s15, s14
   13f90:	eef1fa10 	vmrs	APSR_nzcv, fpscr
   13f94:	8a000001 	bhi	13fa0 <get_intersection+0x4b4>
   13f98:	e3a03001 	mov	r3, #1
   13f9c:	ea000000 	b	13fa4 <get_intersection+0x4b8>
   13fa0:	e3a03000 	mov	r3, #0
   13fa4:	e6af2073 	sxtb	r2, r3
   13fa8:	e51b305c 	ldr	r3, [fp, #-92]	; 0xffffffa4
   13fac:	e5c32000 	strb	r2, [r3]
   13fb0:	ed1b7a07 	vldr	s14, [fp, #-28]	; 0xffffffe4
   13fb4:	ed5b6a09 	vldr	s13, [fp, #-36]	; 0xffffffdc
   13fb8:	ed5b7a07 	vldr	s15, [fp, #-28]	; 0xffffffe4
   13fbc:	ee766ae7 	vsub.f32	s13, s13, s15
   13fc0:	ed5b7a04 	vldr	s15, [fp, #-16]
   13fc4:	ee667aa7 	vmul.f32	s15, s13, s15
   13fc8:	ee777a27 	vadd.f32	s15, s14, s15
   13fcc:	e51b3058 	ldr	r3, [fp, #-88]	; 0xffffffa8
   13fd0:	edc37a00 	vstr	s15, [r3]
   13fd4:	ed1b7a06 	vldr	s14, [fp, #-24]	; 0xffffffe8
   13fd8:	ed5b6a08 	vldr	s13, [fp, #-32]	; 0xffffffe0
   13fdc:	ed5b7a06 	vldr	s15, [fp, #-24]	; 0xffffffe8
   13fe0:	ee766ae7 	vsub.f32	s13, s13, s15
   13fe4:	ed5b7a04 	vldr	s15, [fp, #-16]
   13fe8:	ee667aa7 	vmul.f32	s15, s13, s15
   13fec:	ee777a27 	vadd.f32	s15, s14, s15
   13ff0:	e51b3058 	ldr	r3, [fp, #-88]	; 0xffffffa8
   13ff4:	edc37a01 	vstr	s15, [r3, #4]
   13ff8:	eaffffff 	b	13ffc <get_intersection+0x510>
   13ffc:	e1a00000 	nop			; (mov r0, r0)
   14000:	e24bd004 	sub	sp, fp, #4
   14004:	e8bd8800 	pop	{fp, pc}
   14008:	3727c5ac 	strcc	ip, [r7, -ip, lsr #11]!
   1400c:	3f800000 	svccc	0x00800000

00014010 <test_intersection_point>:
   14010:	e92d4800 	push	{fp, lr}
   14014:	e28db004 	add	fp, sp, #4
   14018:	e24dd048 	sub	sp, sp, #72	; 0x48
   1401c:	eeb06a40 	vmov.f32	s12, s0
   14020:	eef06a60 	vmov.f32	s13, s1
   14024:	eeb07a41 	vmov.f32	s14, s2
   14028:	eef07a61 	vmov.f32	s15, s3
   1402c:	e50b0040 	str	r0, [fp, #-64]	; 0xffffffc0
   14030:	e50b1044 	str	r1, [fp, #-68]	; 0xffffffbc
   14034:	e50b2048 	str	r2, [fp, #-72]	; 0xffffffb8
   14038:	e50b304c 	str	r3, [fp, #-76]	; 0xffffffb4
   1403c:	ed0b6a0d 	vstr	s12, [fp, #-52]	; 0xffffffcc
   14040:	ed4b6a0c 	vstr	s13, [fp, #-48]	; 0xffffffd0
   14044:	ed0b7a0f 	vstr	s14, [fp, #-60]	; 0xffffffc4
   14048:	ed4b7a0e 	vstr	s15, [fp, #-56]	; 0xffffffc8
   1404c:	ed1b6a0f 	vldr	s12, [fp, #-60]	; 0xffffffc4
   14050:	ed5b6a0e 	vldr	s13, [fp, #-56]	; 0xffffffc8
   14054:	ed1b7a0d 	vldr	s14, [fp, #-52]	; 0xffffffcc
   14058:	ed5b7a0c 	vldr	s15, [fp, #-48]	; 0xffffffd0
   1405c:	eeb01a46 	vmov.f32	s2, s12
   14060:	eef01a66 	vmov.f32	s3, s13
   14064:	eeb00a47 	vmov.f32	s0, s14
   14068:	eef00a67 	vmov.f32	s1, s15
   1406c:	ebfffd55 	bl	135c8 <segment>
   14070:	eeb06a40 	vmov.f32	s12, s0
   14074:	eef06a60 	vmov.f32	s13, s1
   14078:	eeb07a41 	vmov.f32	s14, s2
   1407c:	eef07a61 	vmov.f32	s15, s3
   14080:	ed0b6a06 	vstr	s12, [fp, #-24]	; 0xffffffe8
   14084:	ed4b6a05 	vstr	s13, [fp, #-20]	; 0xffffffec
   14088:	ed0b7a04 	vstr	s14, [fp, #-16]
   1408c:	ed4b7a03 	vstr	s15, [fp, #-12]
   14090:	e3a03000 	mov	r3, #0
   14094:	e50b3008 	str	r3, [fp, #-8]
   14098:	e51b3040 	ldr	r3, [fp, #-64]	; 0xffffffc0
   1409c:	e50b3008 	str	r3, [fp, #-8]
   140a0:	ea000062 	b	14230 <test_intersection_point+0x220>
   140a4:	e51b3008 	ldr	r3, [fp, #-8]
   140a8:	e1a03183 	lsl	r3, r3, #3
   140ac:	e51b2048 	ldr	r2, [fp, #-72]	; 0xffffffb8
   140b0:	e0823003 	add	r3, r2, r3
   140b4:	e51b2008 	ldr	r2, [fp, #-8]
   140b8:	e2822001 	add	r2, r2, #1
   140bc:	e1a02182 	lsl	r2, r2, #3
   140c0:	e51b1048 	ldr	r1, [fp, #-72]	; 0xffffffb8
   140c4:	e0812002 	add	r2, r1, r2
   140c8:	ed926a00 	vldr	s12, [r2]
   140cc:	edd26a01 	vldr	s13, [r2, #4]
   140d0:	ed937a00 	vldr	s14, [r3]
   140d4:	edd37a01 	vldr	s15, [r3, #4]
   140d8:	eeb01a46 	vmov.f32	s2, s12
   140dc:	eef01a66 	vmov.f32	s3, s13
   140e0:	eeb00a47 	vmov.f32	s0, s14
   140e4:	eef00a67 	vmov.f32	s1, s15
   140e8:	ebfffd36 	bl	135c8 <segment>
   140ec:	eeb06a40 	vmov.f32	s12, s0
   140f0:	eef06a60 	vmov.f32	s13, s1
   140f4:	eeb07a41 	vmov.f32	s14, s2
   140f8:	eef07a61 	vmov.f32	s15, s3
   140fc:	ed0b6a0a 	vstr	s12, [fp, #-40]	; 0xffffffd8
   14100:	ed4b6a09 	vstr	s13, [fp, #-36]	; 0xffffffdc
   14104:	ed0b7a08 	vstr	s14, [fp, #-32]	; 0xffffffe0
   14108:	ed4b7a07 	vstr	s15, [fp, #-28]	; 0xffffffe4
   1410c:	ed1b4a0a 	vldr	s8, [fp, #-40]	; 0xffffffd8
   14110:	ed5b4a09 	vldr	s9, [fp, #-36]	; 0xffffffdc
   14114:	ed1b5a08 	vldr	s10, [fp, #-32]	; 0xffffffe0
   14118:	ed5b5a07 	vldr	s11, [fp, #-28]	; 0xffffffe4
   1411c:	ed1b6a06 	vldr	s12, [fp, #-24]	; 0xffffffe8
   14120:	ed5b6a05 	vldr	s13, [fp, #-20]	; 0xffffffec
   14124:	ed1b7a04 	vldr	s14, [fp, #-16]
   14128:	ed5b7a03 	vldr	s15, [fp, #-12]
   1412c:	eeb02a44 	vmov.f32	s4, s8
   14130:	eef02a64 	vmov.f32	s5, s9
   14134:	eeb03a45 	vmov.f32	s6, s10
   14138:	eef03a65 	vmov.f32	s7, s11
   1413c:	eeb00a46 	vmov.f32	s0, s12
   14140:	eef00a66 	vmov.f32	s1, s13
   14144:	eeb01a47 	vmov.f32	s2, s14
   14148:	eef01a67 	vmov.f32	s3, s15
   1414c:	ebfffd78 	bl	13734 <intersects>
   14150:	e1a03000 	mov	r3, r0
   14154:	e3530000 	cmp	r3, #0
   14158:	0a000001 	beq	14164 <test_intersection_point+0x154>
   1415c:	e3a03001 	mov	r3, #1
   14160:	ea000038 	b	14248 <test_intersection_point+0x238>
   14164:	e51b3008 	ldr	r3, [fp, #-8]
   14168:	e1a03183 	lsl	r3, r3, #3
   1416c:	e51b204c 	ldr	r2, [fp, #-76]	; 0xffffffb4
   14170:	e0823003 	add	r3, r2, r3
   14174:	e51b2008 	ldr	r2, [fp, #-8]
   14178:	e2822001 	add	r2, r2, #1
   1417c:	e1a02182 	lsl	r2, r2, #3
   14180:	e51b104c 	ldr	r1, [fp, #-76]	; 0xffffffb4
   14184:	e0812002 	add	r2, r1, r2
   14188:	ed926a00 	vldr	s12, [r2]
   1418c:	edd26a01 	vldr	s13, [r2, #4]
   14190:	ed937a00 	vldr	s14, [r3]
   14194:	edd37a01 	vldr	s15, [r3, #4]
   14198:	eeb01a46 	vmov.f32	s2, s12
   1419c:	eef01a66 	vmov.f32	s3, s13
   141a0:	eeb00a47 	vmov.f32	s0, s14
   141a4:	eef00a67 	vmov.f32	s1, s15
   141a8:	ebfffd06 	bl	135c8 <segment>
   141ac:	eeb06a40 	vmov.f32	s12, s0
   141b0:	eef06a60 	vmov.f32	s13, s1
   141b4:	eeb07a41 	vmov.f32	s14, s2
   141b8:	eef07a61 	vmov.f32	s15, s3
   141bc:	ed0b6a0a 	vstr	s12, [fp, #-40]	; 0xffffffd8
   141c0:	ed4b6a09 	vstr	s13, [fp, #-36]	; 0xffffffdc
   141c4:	ed0b7a08 	vstr	s14, [fp, #-32]	; 0xffffffe0
   141c8:	ed4b7a07 	vstr	s15, [fp, #-28]	; 0xffffffe4
   141cc:	ed1b4a0a 	vldr	s8, [fp, #-40]	; 0xffffffd8
   141d0:	ed5b4a09 	vldr	s9, [fp, #-36]	; 0xffffffdc
   141d4:	ed1b5a08 	vldr	s10, [fp, #-32]	; 0xffffffe0
   141d8:	ed5b5a07 	vldr	s11, [fp, #-28]	; 0xffffffe4
   141dc:	ed1b6a06 	vldr	s12, [fp, #-24]	; 0xffffffe8
   141e0:	ed5b6a05 	vldr	s13, [fp, #-20]	; 0xffffffec
   141e4:	ed1b7a04 	vldr	s14, [fp, #-16]
   141e8:	ed5b7a03 	vldr	s15, [fp, #-12]
   141ec:	eeb02a44 	vmov.f32	s4, s8
   141f0:	eef02a64 	vmov.f32	s5, s9
   141f4:	eeb03a45 	vmov.f32	s6, s10
   141f8:	eef03a65 	vmov.f32	s7, s11
   141fc:	eeb00a46 	vmov.f32	s0, s12
   14200:	eef00a66 	vmov.f32	s1, s13
   14204:	eeb01a47 	vmov.f32	s2, s14
   14208:	eef01a67 	vmov.f32	s3, s15
   1420c:	ebfffd48 	bl	13734 <intersects>
   14210:	e1a03000 	mov	r3, r0
   14214:	e3530000 	cmp	r3, #0
   14218:	0a000001 	beq	14224 <test_intersection_point+0x214>
   1421c:	e3a03001 	mov	r3, #1
   14220:	ea000008 	b	14248 <test_intersection_point+0x238>
   14224:	e51b3008 	ldr	r3, [fp, #-8]
   14228:	e2833001 	add	r3, r3, #1
   1422c:	e50b3008 	str	r3, [fp, #-8]
   14230:	e51b3044 	ldr	r3, [fp, #-68]	; 0xffffffbc
   14234:	e2432002 	sub	r2, r3, #2
   14238:	e51b3008 	ldr	r3, [fp, #-8]
   1423c:	e1520003 	cmp	r2, r3
   14240:	aaffff97 	bge	140a4 <test_intersection_point+0x94>
   14244:	e3a03000 	mov	r3, #0
   14248:	e1a00003 	mov	r0, r3
   1424c:	e24bd004 	sub	sp, fp, #4
   14250:	e8bd8800 	pop	{fp, pc}

00014254 <test_intersection_pos>:
   14254:	e92d4800 	push	{fp, lr}
   14258:	e28db004 	add	fp, sp, #4
   1425c:	e24dd030 	sub	sp, sp, #48	; 0x30
   14260:	eef05a40 	vmov.f32	s11, s0
   14264:	eeb06a60 	vmov.f32	s12, s1
   14268:	eef06a41 	vmov.f32	s13, s2
   1426c:	eeb07a61 	vmov.f32	s14, s3
   14270:	eef07a42 	vmov.f32	s15, s4
   14274:	e50b0024 	str	r0, [fp, #-36]	; 0xffffffdc
   14278:	e50b1028 	str	r1, [fp, #-40]	; 0xffffffd8
   1427c:	e50b202c 	str	r2, [fp, #-44]	; 0xffffffd4
   14280:	e50b3030 	str	r3, [fp, #-48]	; 0xffffffd0
   14284:	ed4b5a05 	vstr	s11, [fp, #-20]	; 0xffffffec
   14288:	ed0b6a04 	vstr	s12, [fp, #-16]
   1428c:	ed4b6a08 	vstr	s13, [fp, #-32]	; 0xffffffe0
   14290:	ed0b7a07 	vstr	s14, [fp, #-28]	; 0xffffffe4
   14294:	ed4b7a06 	vstr	s15, [fp, #-24]	; 0xffffffe8
   14298:	e51b3020 	ldr	r3, [fp, #-32]	; 0xffffffe0
   1429c:	e50b300c 	str	r3, [fp, #-12]
   142a0:	e51b301c 	ldr	r3, [fp, #-28]	; 0xffffffe4
   142a4:	e50b3008 	str	r3, [fp, #-8]
   142a8:	ed1b6a03 	vldr	s12, [fp, #-12]
   142ac:	ed5b6a02 	vldr	s13, [fp, #-8]
   142b0:	ed1b7a05 	vldr	s14, [fp, #-20]	; 0xffffffec
   142b4:	ed5b7a04 	vldr	s15, [fp, #-16]
   142b8:	e51b3030 	ldr	r3, [fp, #-48]	; 0xffffffd0
   142bc:	e51b202c 	ldr	r2, [fp, #-44]	; 0xffffffd4
   142c0:	e51b1028 	ldr	r1, [fp, #-40]	; 0xffffffd8
   142c4:	e51b0024 	ldr	r0, [fp, #-36]	; 0xffffffdc
   142c8:	eeb01a46 	vmov.f32	s2, s12
   142cc:	eef01a66 	vmov.f32	s3, s13
   142d0:	eeb00a47 	vmov.f32	s0, s14
   142d4:	eef00a67 	vmov.f32	s1, s15
   142d8:	ebffff4c 	bl	14010 <test_intersection_point>
   142dc:	e1a03000 	mov	r3, r0
   142e0:	e1a00003 	mov	r0, r3
   142e4:	e24bd004 	sub	sp, fp, #4
   142e8:	e8bd8800 	pop	{fp, pc}

000142ec <side_lr_points>:
   142ec:	e24dd010 	sub	sp, sp, #16
   142f0:	e92d4800 	push	{fp, lr}
   142f4:	ed2d8b04 	vpush	{d8-d9}
   142f8:	e28db014 	add	fp, sp, #20
   142fc:	e24dd010 	sub	sp, sp, #16
   14300:	e28bc004 	add	ip, fp, #4
   14304:	e88c000f 	stm	ip, {r0, r1, r2, r3}
   14308:	ed0b0a08 	vstr	s0, [fp, #-32]	; 0xffffffe0
   1430c:	ed9b7a17 	vldr	s14, [fp, #92]	; 0x5c
   14310:	eddb7a02 	vldr	s15, [fp, #8]
   14314:	ee378a67 	vsub.f32	s16, s14, s15
   14318:	ed9b7a02 	vldr	s14, [fp, #8]
   1431c:	eddb7a17 	vldr	s15, [fp, #92]	; 0x5c
   14320:	ee377a67 	vsub.f32	s14, s14, s15
   14324:	eddb6a02 	vldr	s13, [fp, #8]
   14328:	eddb7a17 	vldr	s15, [fp, #92]	; 0x5c
   1432c:	ee767ae7 	vsub.f32	s15, s13, s15
   14330:	ee277a27 	vmul.f32	s14, s14, s15
   14334:	eddb6a03 	vldr	s13, [fp, #12]
   14338:	eddb7a18 	vldr	s15, [fp, #96]	; 0x60
   1433c:	ee766ae7 	vsub.f32	s13, s13, s15
   14340:	ed9b6a03 	vldr	s12, [fp, #12]
   14344:	eddb7a18 	vldr	s15, [fp, #96]	; 0x60
   14348:	ee767a67 	vsub.f32	s15, s12, s15
   1434c:	ee667aa7 	vmul.f32	s15, s13, s15
   14350:	ee777a27 	vadd.f32	s15, s14, s15
   14354:	eeb77ae7 	vcvt.f64.f32	d7, s15
   14358:	eeb00b47 	vmov.f64	d0, d7
   1435c:	ebfff0eb 	bl	10710 <sqrt@plt>
   14360:	eeb07b40 	vmov.f64	d7, d0
   14364:	eeb77bc7 	vcvt.f32.f64	s14, d7
   14368:	eec87a07 	vdiv.f32	s15, s16, s14
   1436c:	eeb77ae7 	vcvt.f64.f32	d7, s15
   14370:	eeb00b47 	vmov.f64	d0, d7
   14374:	ebfff0d0 	bl	106bc <acos@plt>
   14378:	eeb07b40 	vmov.f64	d7, d0
   1437c:	eef77bc7 	vcvt.f32.f64	s15, d7
   14380:	ed4b7a06 	vstr	s15, [fp, #-24]	; 0xffffffe8
   14384:	ed9b7a03 	vldr	s14, [fp, #12]
   14388:	eddb7a18 	vldr	s15, [fp, #96]	; 0x60
   1438c:	eeb47ae7 	vcmpe.f32	s14, s15
   14390:	eef1fa10 	vmrs	APSR_nzcv, fpscr
   14394:	da000002 	ble	143a4 <side_lr_points+0xb8>
   14398:	ed5b7a06 	vldr	s15, [fp, #-24]	; 0xffffffe8
   1439c:	eef17a67 	vneg.f32	s15, s15
   143a0:	ed4b7a06 	vstr	s15, [fp, #-24]	; 0xffffffe8
   143a4:	eddb7a02 	vldr	s15, [fp, #8]
   143a8:	eeb78ae7 	vcvt.f64.f32	d8, s15
   143ac:	ed5b7a08 	vldr	s15, [fp, #-32]	; 0xffffffe0
   143b0:	eeb79ae7 	vcvt.f64.f32	d9, s15
   143b4:	ed5b7a06 	vldr	s15, [fp, #-24]	; 0xffffffe8
   143b8:	eeb77ae7 	vcvt.f64.f32	d7, s15
   143bc:	ed9f6b3f 	vldr	d6, [pc, #252]	; 144c0 <side_lr_points+0x1d4>
   143c0:	ee377b06 	vadd.f64	d7, d7, d6
   143c4:	eeb00b47 	vmov.f64	d0, d7
   143c8:	ebfff0e2 	bl	10758 <cos@plt>
   143cc:	eeb07b40 	vmov.f64	d7, d0
   143d0:	ee297b07 	vmul.f64	d7, d9, d7
   143d4:	ee387b07 	vadd.f64	d7, d8, d7
   143d8:	eef77bc7 	vcvt.f32.f64	s15, d7
   143dc:	e59b30ac 	ldr	r3, [fp, #172]	; 0xac
   143e0:	edc37a00 	vstr	s15, [r3]
   143e4:	eddb7a02 	vldr	s15, [fp, #8]
   143e8:	eeb78ae7 	vcvt.f64.f32	d8, s15
   143ec:	ed5b7a08 	vldr	s15, [fp, #-32]	; 0xffffffe0
   143f0:	eeb79ae7 	vcvt.f64.f32	d9, s15
   143f4:	ed5b7a06 	vldr	s15, [fp, #-24]	; 0xffffffe8
   143f8:	eeb77ae7 	vcvt.f64.f32	d7, s15
   143fc:	ed9f6b2f 	vldr	d6, [pc, #188]	; 144c0 <side_lr_points+0x1d4>
   14400:	ee377b46 	vsub.f64	d7, d7, d6
   14404:	eeb00b47 	vmov.f64	d0, d7
   14408:	ebfff0d2 	bl	10758 <cos@plt>
   1440c:	eeb07b40 	vmov.f64	d7, d0
   14410:	ee297b07 	vmul.f64	d7, d9, d7
   14414:	ee387b07 	vadd.f64	d7, d8, d7
   14418:	eef77bc7 	vcvt.f32.f64	s15, d7
   1441c:	e59b30b0 	ldr	r3, [fp, #176]	; 0xb0
   14420:	edc37a00 	vstr	s15, [r3]
   14424:	eddb7a03 	vldr	s15, [fp, #12]
   14428:	eeb78ae7 	vcvt.f64.f32	d8, s15
   1442c:	ed5b7a08 	vldr	s15, [fp, #-32]	; 0xffffffe0
   14430:	eeb79ae7 	vcvt.f64.f32	d9, s15
   14434:	ed5b7a06 	vldr	s15, [fp, #-24]	; 0xffffffe8
   14438:	eeb77ae7 	vcvt.f64.f32	d7, s15
   1443c:	ed9f6b1f 	vldr	d6, [pc, #124]	; 144c0 <side_lr_points+0x1d4>
   14440:	ee377b06 	vadd.f64	d7, d7, d6
   14444:	eeb00b47 	vmov.f64	d0, d7
   14448:	ebfff0aa 	bl	106f8 <sin@plt>
   1444c:	eeb07b40 	vmov.f64	d7, d0
   14450:	ee297b07 	vmul.f64	d7, d9, d7
   14454:	ee387b07 	vadd.f64	d7, d8, d7
   14458:	eef77bc7 	vcvt.f32.f64	s15, d7
   1445c:	e59b30ac 	ldr	r3, [fp, #172]	; 0xac
   14460:	edc37a01 	vstr	s15, [r3, #4]
   14464:	eddb7a03 	vldr	s15, [fp, #12]
   14468:	eeb78ae7 	vcvt.f64.f32	d8, s15
   1446c:	ed5b7a08 	vldr	s15, [fp, #-32]	; 0xffffffe0
   14470:	eeb79ae7 	vcvt.f64.f32	d9, s15
   14474:	ed5b7a06 	vldr	s15, [fp, #-24]	; 0xffffffe8
   14478:	eeb77ae7 	vcvt.f64.f32	d7, s15
   1447c:	ed9f6b0f 	vldr	d6, [pc, #60]	; 144c0 <side_lr_points+0x1d4>
   14480:	ee377b46 	vsub.f64	d7, d7, d6
   14484:	eeb00b47 	vmov.f64	d0, d7
   14488:	ebfff09a 	bl	106f8 <sin@plt>
   1448c:	eeb07b40 	vmov.f64	d7, d0
   14490:	ee297b07 	vmul.f64	d7, d9, d7
   14494:	ee387b07 	vadd.f64	d7, d8, d7
   14498:	eef77bc7 	vcvt.f32.f64	s15, d7
   1449c:	e59b30b0 	ldr	r3, [fp, #176]	; 0xb0
   144a0:	edc37a01 	vstr	s15, [r3, #4]
   144a4:	e1a00000 	nop			; (mov r0, r0)
   144a8:	e24bd014 	sub	sp, fp, #20
   144ac:	ecbd8b04 	vpop	{d8-d9}
   144b0:	e8bd4800 	pop	{fp, lr}
   144b4:	e28dd010 	add	sp, sp, #16
   144b8:	e12fff1e 	bx	lr
   144bc:	e1a00000 	nop			; (mov r0, r0)
   144c0:	5443d6f4 	strbpl	sp, [r3], #-1780	; 0xfffff90c
   144c4:	3ff921fb 	svccc	0x00f921fb

000144c8 <lr_points>:
   144c8:	e24dd010 	sub	sp, sp, #16
   144cc:	e92d4800 	push	{fp, lr}
   144d0:	ed2d8b04 	vpush	{d8-d9}
   144d4:	e28db014 	add	fp, sp, #20
   144d8:	e24dd018 	sub	sp, sp, #24
   144dc:	e28bc004 	add	ip, fp, #4
   144e0:	e88c000f 	stm	ip, {r0, r1, r2, r3}
   144e4:	ed0b0a0a 	vstr	s0, [fp, #-40]	; 0xffffffd8
   144e8:	ed9b7a03 	vldr	s14, [fp, #12]
   144ec:	eddb7a18 	vldr	s15, [fp, #96]	; 0x60
   144f0:	eeb47ae7 	vcmpe.f32	s14, s15
   144f4:	eef1fa10 	vmrs	APSR_nzcv, fpscr
   144f8:	da00001d 	ble	14574 <lr_points+0xac>
   144fc:	ed9b7a17 	vldr	s14, [fp, #92]	; 0x5c
   14500:	eddb7a02 	vldr	s15, [fp, #8]
   14504:	ee378a67 	vsub.f32	s16, s14, s15
   14508:	ed9b7a02 	vldr	s14, [fp, #8]
   1450c:	eddb7a17 	vldr	s15, [fp, #92]	; 0x5c
   14510:	ee377a67 	vsub.f32	s14, s14, s15
   14514:	eddb6a02 	vldr	s13, [fp, #8]
   14518:	eddb7a17 	vldr	s15, [fp, #92]	; 0x5c
   1451c:	ee767ae7 	vsub.f32	s15, s13, s15
   14520:	ee277a27 	vmul.f32	s14, s14, s15
   14524:	eddb6a03 	vldr	s13, [fp, #12]
   14528:	eddb7a18 	vldr	s15, [fp, #96]	; 0x60
   1452c:	ee766ae7 	vsub.f32	s13, s13, s15
   14530:	ed9b6a03 	vldr	s12, [fp, #12]
   14534:	eddb7a18 	vldr	s15, [fp, #96]	; 0x60
   14538:	ee767a67 	vsub.f32	s15, s12, s15
   1453c:	ee667aa7 	vmul.f32	s15, s13, s15
   14540:	ee777a27 	vadd.f32	s15, s14, s15
   14544:	eeb77ae7 	vcvt.f64.f32	d7, s15
   14548:	eeb00b47 	vmov.f64	d0, d7
   1454c:	ebfff06f 	bl	10710 <sqrt@plt>
   14550:	eeb07b40 	vmov.f64	d7, d0
   14554:	eeb77bc7 	vcvt.f32.f64	s14, d7
   14558:	eec87a07 	vdiv.f32	s15, s16, s14
   1455c:	eeb77ae7 	vcvt.f64.f32	d7, s15
   14560:	eeb00b47 	vmov.f64	d0, d7
   14564:	ebfff054 	bl	106bc <acos@plt>
   14568:	eeb07b40 	vmov.f64	d7, d0
   1456c:	eeb17b47 	vneg.f64	d7, d7
   14570:	ea00001b 	b	145e4 <lr_points+0x11c>
   14574:	ed9b7a17 	vldr	s14, [fp, #92]	; 0x5c
   14578:	eddb7a02 	vldr	s15, [fp, #8]
   1457c:	ee378a67 	vsub.f32	s16, s14, s15
   14580:	ed9b7a02 	vldr	s14, [fp, #8]
   14584:	eddb7a17 	vldr	s15, [fp, #92]	; 0x5c
   14588:	ee377a67 	vsub.f32	s14, s14, s15
   1458c:	eddb6a02 	vldr	s13, [fp, #8]
   14590:	eddb7a17 	vldr	s15, [fp, #92]	; 0x5c
   14594:	ee767ae7 	vsub.f32	s15, s13, s15
   14598:	ee277a27 	vmul.f32	s14, s14, s15
   1459c:	eddb6a03 	vldr	s13, [fp, #12]
   145a0:	eddb7a18 	vldr	s15, [fp, #96]	; 0x60
   145a4:	ee766ae7 	vsub.f32	s13, s13, s15
   145a8:	ed9b6a03 	vldr	s12, [fp, #12]
   145ac:	eddb7a18 	vldr	s15, [fp, #96]	; 0x60
   145b0:	ee767a67 	vsub.f32	s15, s12, s15
   145b4:	ee667aa7 	vmul.f32	s15, s13, s15
   145b8:	ee777a27 	vadd.f32	s15, s14, s15
   145bc:	eeb77ae7 	vcvt.f64.f32	d7, s15
   145c0:	eeb00b47 	vmov.f64	d0, d7
   145c4:	ebfff051 	bl	10710 <sqrt@plt>
   145c8:	eeb07b40 	vmov.f64	d7, d0
   145cc:	eeb77bc7 	vcvt.f32.f64	s14, d7
   145d0:	eec87a07 	vdiv.f32	s15, s16, s14
   145d4:	eeb77ae7 	vcvt.f64.f32	d7, s15
   145d8:	eeb00b47 	vmov.f64	d0, d7
   145dc:	ebfff036 	bl	106bc <acos@plt>
   145e0:	eeb07b40 	vmov.f64	d7, d0
   145e4:	eef77bc7 	vcvt.f32.f64	s15, d7
   145e8:	ed4b7a06 	vstr	s15, [fp, #-24]	; 0xffffffe8
   145ec:	ed9b7a18 	vldr	s14, [fp, #96]	; 0x60
   145f0:	eddb7a2d 	vldr	s15, [fp, #180]	; 0xb4
   145f4:	eeb47ae7 	vcmpe.f32	s14, s15
   145f8:	eef1fa10 	vmrs	APSR_nzcv, fpscr
   145fc:	da00001d 	ble	14678 <lr_points+0x1b0>
   14600:	ed9b7a2c 	vldr	s14, [fp, #176]	; 0xb0
   14604:	eddb7a17 	vldr	s15, [fp, #92]	; 0x5c
   14608:	ee378a67 	vsub.f32	s16, s14, s15
   1460c:	ed9b7a17 	vldr	s14, [fp, #92]	; 0x5c
   14610:	eddb7a2c 	vldr	s15, [fp, #176]	; 0xb0
   14614:	ee377a67 	vsub.f32	s14, s14, s15
   14618:	eddb6a17 	vldr	s13, [fp, #92]	; 0x5c
   1461c:	eddb7a2c 	vldr	s15, [fp, #176]	; 0xb0
   14620:	ee767ae7 	vsub.f32	s15, s13, s15
   14624:	ee277a27 	vmul.f32	s14, s14, s15
   14628:	eddb6a18 	vldr	s13, [fp, #96]	; 0x60
   1462c:	eddb7a2d 	vldr	s15, [fp, #180]	; 0xb4
   14630:	ee766ae7 	vsub.f32	s13, s13, s15
   14634:	ed9b6a18 	vldr	s12, [fp, #96]	; 0x60
   14638:	eddb7a2d 	vldr	s15, [fp, #180]	; 0xb4
   1463c:	ee767a67 	vsub.f32	s15, s12, s15
   14640:	ee667aa7 	vmul.f32	s15, s13, s15
   14644:	ee777a27 	vadd.f32	s15, s14, s15
   14648:	eeb77ae7 	vcvt.f64.f32	d7, s15
   1464c:	eeb00b47 	vmov.f64	d0, d7
   14650:	ebfff02e 	bl	10710 <sqrt@plt>
   14654:	eeb07b40 	vmov.f64	d7, d0
   14658:	eeb77bc7 	vcvt.f32.f64	s14, d7
   1465c:	eec87a07 	vdiv.f32	s15, s16, s14
   14660:	eeb77ae7 	vcvt.f64.f32	d7, s15
   14664:	eeb00b47 	vmov.f64	d0, d7
   14668:	ebfff013 	bl	106bc <acos@plt>
   1466c:	eeb07b40 	vmov.f64	d7, d0
   14670:	eeb17b47 	vneg.f64	d7, d7
   14674:	ea00001b 	b	146e8 <lr_points+0x220>
   14678:	ed9b7a2c 	vldr	s14, [fp, #176]	; 0xb0
   1467c:	eddb7a17 	vldr	s15, [fp, #92]	; 0x5c
   14680:	ee378a67 	vsub.f32	s16, s14, s15
   14684:	ed9b7a17 	vldr	s14, [fp, #92]	; 0x5c
   14688:	eddb7a2c 	vldr	s15, [fp, #176]	; 0xb0
   1468c:	ee377a67 	vsub.f32	s14, s14, s15
   14690:	eddb6a17 	vldr	s13, [fp, #92]	; 0x5c
   14694:	eddb7a2c 	vldr	s15, [fp, #176]	; 0xb0
   14698:	ee767ae7 	vsub.f32	s15, s13, s15
   1469c:	ee277a27 	vmul.f32	s14, s14, s15
   146a0:	eddb6a18 	vldr	s13, [fp, #96]	; 0x60
   146a4:	eddb7a2d 	vldr	s15, [fp, #180]	; 0xb4
   146a8:	ee766ae7 	vsub.f32	s13, s13, s15
   146ac:	ed9b6a18 	vldr	s12, [fp, #96]	; 0x60
   146b0:	eddb7a2d 	vldr	s15, [fp, #180]	; 0xb4
   146b4:	ee767a67 	vsub.f32	s15, s12, s15
   146b8:	ee667aa7 	vmul.f32	s15, s13, s15
   146bc:	ee777a27 	vadd.f32	s15, s14, s15
   146c0:	eeb77ae7 	vcvt.f64.f32	d7, s15
   146c4:	eeb00b47 	vmov.f64	d0, d7
   146c8:	ebfff010 	bl	10710 <sqrt@plt>
   146cc:	eeb07b40 	vmov.f64	d7, d0
   146d0:	eeb77bc7 	vcvt.f32.f64	s14, d7
   146d4:	eec87a07 	vdiv.f32	s15, s16, s14
   146d8:	eeb77ae7 	vcvt.f64.f32	d7, s15
   146dc:	eeb00b47 	vmov.f64	d0, d7
   146e0:	ebffeff5 	bl	106bc <acos@plt>
   146e4:	eeb07b40 	vmov.f64	d7, d0
   146e8:	eef77bc7 	vcvt.f32.f64	s15, d7
   146ec:	ed4b7a07 	vstr	s15, [fp, #-28]	; 0xffffffe4
   146f0:	ed1b7a06 	vldr	s14, [fp, #-24]	; 0xffffffe8
   146f4:	ed5b7a07 	vldr	s15, [fp, #-28]	; 0xffffffe4
   146f8:	ee777a27 	vadd.f32	s15, s14, s15
   146fc:	ed9f7a49 	vldr	s14, [pc, #292]	; 14828 <lr_points+0x360>
   14700:	ee677a87 	vmul.f32	s15, s15, s14
   14704:	ed4b7a08 	vstr	s15, [fp, #-32]	; 0xffffffe0
   14708:	eddb7a17 	vldr	s15, [fp, #92]	; 0x5c
   1470c:	eeb78ae7 	vcvt.f64.f32	d8, s15
   14710:	ed5b7a0a 	vldr	s15, [fp, #-40]	; 0xffffffd8
   14714:	eeb79ae7 	vcvt.f64.f32	d9, s15
   14718:	ed5b7a08 	vldr	s15, [fp, #-32]	; 0xffffffe0
   1471c:	eeb77ae7 	vcvt.f64.f32	d7, s15
   14720:	ed9f6b3e 	vldr	d6, [pc, #248]	; 14820 <lr_points+0x358>
   14724:	ee377b06 	vadd.f64	d7, d7, d6
   14728:	eeb00b47 	vmov.f64	d0, d7
   1472c:	ebfff009 	bl	10758 <cos@plt>
   14730:	eeb07b40 	vmov.f64	d7, d0
   14734:	ee297b07 	vmul.f64	d7, d9, d7
   14738:	ee387b07 	vadd.f64	d7, d8, d7
   1473c:	eef77bc7 	vcvt.f32.f64	s15, d7
   14740:	e59b3100 	ldr	r3, [fp, #256]	; 0x100
   14744:	edc37a00 	vstr	s15, [r3]
   14748:	eddb7a17 	vldr	s15, [fp, #92]	; 0x5c
   1474c:	eeb78ae7 	vcvt.f64.f32	d8, s15
   14750:	ed5b7a0a 	vldr	s15, [fp, #-40]	; 0xffffffd8
   14754:	eeb79ae7 	vcvt.f64.f32	d9, s15
   14758:	ed5b7a08 	vldr	s15, [fp, #-32]	; 0xffffffe0
   1475c:	eeb77ae7 	vcvt.f64.f32	d7, s15
   14760:	ed9f6b2e 	vldr	d6, [pc, #184]	; 14820 <lr_points+0x358>
   14764:	ee377b46 	vsub.f64	d7, d7, d6
   14768:	eeb00b47 	vmov.f64	d0, d7
   1476c:	ebffeff9 	bl	10758 <cos@plt>
   14770:	eeb07b40 	vmov.f64	d7, d0
   14774:	ee297b07 	vmul.f64	d7, d9, d7
   14778:	ee387b07 	vadd.f64	d7, d8, d7
   1477c:	eef77bc7 	vcvt.f32.f64	s15, d7
   14780:	e59b3104 	ldr	r3, [fp, #260]	; 0x104
   14784:	edc37a00 	vstr	s15, [r3]
   14788:	eddb7a18 	vldr	s15, [fp, #96]	; 0x60
   1478c:	eeb78ae7 	vcvt.f64.f32	d8, s15
   14790:	ed5b7a0a 	vldr	s15, [fp, #-40]	; 0xffffffd8
   14794:	eeb79ae7 	vcvt.f64.f32	d9, s15
   14798:	ed5b7a08 	vldr	s15, [fp, #-32]	; 0xffffffe0
   1479c:	eeb77ae7 	vcvt.f64.f32	d7, s15
   147a0:	ed9f6b1e 	vldr	d6, [pc, #120]	; 14820 <lr_points+0x358>
   147a4:	ee377b06 	vadd.f64	d7, d7, d6
   147a8:	eeb00b47 	vmov.f64	d0, d7
   147ac:	ebffefd1 	bl	106f8 <sin@plt>
   147b0:	eeb07b40 	vmov.f64	d7, d0
   147b4:	ee297b07 	vmul.f64	d7, d9, d7
   147b8:	ee387b07 	vadd.f64	d7, d8, d7
   147bc:	eef77bc7 	vcvt.f32.f64	s15, d7
   147c0:	e59b3100 	ldr	r3, [fp, #256]	; 0x100
   147c4:	edc37a01 	vstr	s15, [r3, #4]
   147c8:	eddb7a18 	vldr	s15, [fp, #96]	; 0x60
   147cc:	eeb78ae7 	vcvt.f64.f32	d8, s15
   147d0:	ed5b7a0a 	vldr	s15, [fp, #-40]	; 0xffffffd8
   147d4:	eeb79ae7 	vcvt.f64.f32	d9, s15
   147d8:	ed5b7a08 	vldr	s15, [fp, #-32]	; 0xffffffe0
   147dc:	eeb77ae7 	vcvt.f64.f32	d7, s15
   147e0:	ed9f6b0e 	vldr	d6, [pc, #56]	; 14820 <lr_points+0x358>
   147e4:	ee377b46 	vsub.f64	d7, d7, d6
   147e8:	eeb00b47 	vmov.f64	d0, d7
   147ec:	ebffefc1 	bl	106f8 <sin@plt>
   147f0:	eeb07b40 	vmov.f64	d7, d0
   147f4:	ee297b07 	vmul.f64	d7, d9, d7
   147f8:	ee387b07 	vadd.f64	d7, d8, d7
   147fc:	eef77bc7 	vcvt.f32.f64	s15, d7
   14800:	e59b3104 	ldr	r3, [fp, #260]	; 0x104
   14804:	edc37a01 	vstr	s15, [r3, #4]
   14808:	e1a00000 	nop			; (mov r0, r0)
   1480c:	e24bd014 	sub	sp, fp, #20
   14810:	ecbd8b04 	vpop	{d8-d9}
   14814:	e8bd4800 	pop	{fp, lr}
   14818:	e28dd010 	add	sp, sp, #16
   1481c:	e12fff1e 	bx	lr
   14820:	5443d6f4 	strbpl	sp, [r3], #-1780	; 0xfffff90c
   14824:	3ff921fb 	svccc	0x00f921fb
   14828:	3f000000 	svccc	0x00000000

0001482c <segPoint_point_node>:
   1482c:	e24dd010 	sub	sp, sp, #16
   14830:	e92d4800 	push	{fp, lr}
   14834:	ed2d8b04 	vpush	{d8-d9}
   14838:	e28db014 	add	fp, sp, #20
   1483c:	e24dd040 	sub	sp, sp, #64	; 0x40
   14840:	eeb07a40 	vmov.f32	s14, s0
   14844:	eef07a60 	vmov.f32	s15, s1
   14848:	e28bc004 	add	ip, fp, #4
   1484c:	e88c000f 	stm	ip, {r0, r1, r2, r3}
   14850:	ed0b1a10 	vstr	s2, [fp, #-64]	; 0xffffffc0
   14854:	ed0b7a0f 	vstr	s14, [fp, #-60]	; 0xffffffc4
   14858:	ed4b7a0e 	vstr	s15, [fp, #-56]	; 0xffffffc8
   1485c:	ed1b7a0f 	vldr	s14, [fp, #-60]	; 0xffffffc4
   14860:	eddb7a02 	vldr	s15, [fp, #8]
   14864:	ee377a67 	vsub.f32	s14, s14, s15
   14868:	ed5b6a0f 	vldr	s13, [fp, #-60]	; 0xffffffc4
   1486c:	eddb7a02 	vldr	s15, [fp, #8]
   14870:	ee767ae7 	vsub.f32	s15, s13, s15
   14874:	ee277a27 	vmul.f32	s14, s14, s15
   14878:	ed5b6a0e 	vldr	s13, [fp, #-56]	; 0xffffffc8
   1487c:	eddb7a03 	vldr	s15, [fp, #12]
   14880:	ee766ae7 	vsub.f32	s13, s13, s15
   14884:	ed1b6a0e 	vldr	s12, [fp, #-56]	; 0xffffffc8
   14888:	eddb7a03 	vldr	s15, [fp, #12]
   1488c:	ee767a67 	vsub.f32	s15, s12, s15
   14890:	ee667aa7 	vmul.f32	s15, s13, s15
   14894:	ee777a27 	vadd.f32	s15, s14, s15
   14898:	eeb77ae7 	vcvt.f64.f32	d7, s15
   1489c:	eeb00b47 	vmov.f64	d0, d7
   148a0:	ebffef9a 	bl	10710 <sqrt@plt>
   148a4:	eeb07b40 	vmov.f64	d7, d0
   148a8:	eef77bc7 	vcvt.f32.f64	s15, d7
   148ac:	ed4b7a06 	vstr	s15, [fp, #-24]	; 0xffffffe8
   148b0:	ed1b7a0e 	vldr	s14, [fp, #-56]	; 0xffffffc8
   148b4:	eddb7a03 	vldr	s15, [fp, #12]
   148b8:	eeb47ae7 	vcmpe.f32	s14, s15
   148bc:	eef1fa10 	vmrs	APSR_nzcv, fpscr
   148c0:	da00000a 	ble	148f0 <segPoint_point_node+0xc4>
   148c4:	ed9b7a02 	vldr	s14, [fp, #8]
   148c8:	ed5b7a0f 	vldr	s15, [fp, #-60]	; 0xffffffc4
   148cc:	ee776a67 	vsub.f32	s13, s14, s15
   148d0:	ed1b7a06 	vldr	s14, [fp, #-24]	; 0xffffffe8
   148d4:	eec67a87 	vdiv.f32	s15, s13, s14
   148d8:	eeb77ae7 	vcvt.f64.f32	d7, s15
   148dc:	eeb00b47 	vmov.f64	d0, d7
   148e0:	ebffef75 	bl	106bc <acos@plt>
   148e4:	eeb07b40 	vmov.f64	d7, d0
   148e8:	eeb17b47 	vneg.f64	d7, d7
   148ec:	ea000008 	b	14914 <segPoint_point_node+0xe8>
   148f0:	ed9b7a02 	vldr	s14, [fp, #8]
   148f4:	ed5b7a0f 	vldr	s15, [fp, #-60]	; 0xffffffc4
   148f8:	ee776a67 	vsub.f32	s13, s14, s15
   148fc:	ed1b7a06 	vldr	s14, [fp, #-24]	; 0xffffffe8
   14900:	eec67a87 	vdiv.f32	s15, s13, s14
   14904:	eeb77ae7 	vcvt.f64.f32	d7, s15
   14908:	eeb00b47 	vmov.f64	d0, d7
   1490c:	ebffef6a 	bl	106bc <acos@plt>
   14910:	eeb07b40 	vmov.f64	d7, d0
   14914:	eef77bc7 	vcvt.f32.f64	s15, d7
   14918:	ed4b7a07 	vstr	s15, [fp, #-28]	; 0xffffffe4
   1491c:	ed5b7a0f 	vldr	s15, [fp, #-60]	; 0xffffffc4
   14920:	eeb78ae7 	vcvt.f64.f32	d8, s15
   14924:	ed5b7a10 	vldr	s15, [fp, #-64]	; 0xffffffc0
   14928:	eeb79ae7 	vcvt.f64.f32	d9, s15
   1492c:	ed5b7a07 	vldr	s15, [fp, #-28]	; 0xffffffe4
   14930:	eeb77ae7 	vcvt.f64.f32	d7, s15
   14934:	eeb00b47 	vmov.f64	d0, d7
   14938:	ebffef86 	bl	10758 <cos@plt>
   1493c:	eeb07b40 	vmov.f64	d7, d0
   14940:	ee297b07 	vmul.f64	d7, d9, d7
   14944:	ee387b07 	vadd.f64	d7, d8, d7
   14948:	eef77bc7 	vcvt.f32.f64	s15, d7
   1494c:	ed4b7a0d 	vstr	s15, [fp, #-52]	; 0xffffffcc
   14950:	ed5b7a0e 	vldr	s15, [fp, #-56]	; 0xffffffc8
   14954:	eeb78ae7 	vcvt.f64.f32	d8, s15
   14958:	ed5b7a10 	vldr	s15, [fp, #-64]	; 0xffffffc0
   1495c:	eeb79ae7 	vcvt.f64.f32	d9, s15
   14960:	ed5b7a07 	vldr	s15, [fp, #-28]	; 0xffffffe4
   14964:	eeb77ae7 	vcvt.f64.f32	d7, s15
   14968:	eeb00b47 	vmov.f64	d0, d7
   1496c:	ebffef61 	bl	106f8 <sin@plt>
   14970:	eeb07b40 	vmov.f64	d7, d0
   14974:	ee297b07 	vmul.f64	d7, d9, d7
   14978:	ee387b07 	vadd.f64	d7, d8, d7
   1497c:	eef77bc7 	vcvt.f32.f64	s15, d7
   14980:	ed4b7a0c 	vstr	s15, [fp, #-48]	; 0xffffffd0
   14984:	e51b301c 	ldr	r3, [fp, #-28]	; 0xffffffe4
   14988:	e50b302c 	str	r3, [fp, #-44]	; 0xffffffd4
   1498c:	e24b3028 	sub	r3, fp, #40	; 0x28
   14990:	e24b2034 	sub	r2, fp, #52	; 0x34
   14994:	e8920007 	ldm	r2, {r0, r1, r2}
   14998:	e8830007 	stm	r3, {r0, r1, r2}
   1499c:	e51b1028 	ldr	r1, [fp, #-40]	; 0xffffffd8
   149a0:	e51b2024 	ldr	r2, [fp, #-36]	; 0xffffffdc
   149a4:	e51b3020 	ldr	r3, [fp, #-32]	; 0xffffffe0
   149a8:	ee061a90 	vmov	s13, r1
   149ac:	ee072a10 	vmov	s14, r2
   149b0:	ee073a90 	vmov	s15, r3
   149b4:	eeb00a66 	vmov.f32	s0, s13
   149b8:	eef00a47 	vmov.f32	s1, s14
   149bc:	eeb01a67 	vmov.f32	s2, s15
   149c0:	e24bd014 	sub	sp, fp, #20
   149c4:	ecbd8b04 	vpop	{d8-d9}
   149c8:	e8bd4800 	pop	{fp, lr}
   149cc:	e28dd010 	add	sp, sp, #16
   149d0:	e12fff1e 	bx	lr

000149d4 <is_collision_right>:
   149d4:	e24dd010 	sub	sp, sp, #16
   149d8:	e92d4800 	push	{fp, lr}
   149dc:	ed2d8b02 	vpush	{d8}
   149e0:	e28db00c 	add	fp, sp, #12
   149e4:	e24dd018 	sub	sp, sp, #24
   149e8:	eef06a40 	vmov.f32	s13, s0
   149ec:	eeb07a60 	vmov.f32	s14, s1
   149f0:	eef07a41 	vmov.f32	s15, s2
   149f4:	e28bc004 	add	ip, fp, #4
   149f8:	e88c000f 	stm	ip, {r0, r1, r2, r3}
   149fc:	ed4b6a08 	vstr	s13, [fp, #-32]	; 0xffffffe0
   14a00:	ed0b7a07 	vstr	s14, [fp, #-28]	; 0xffffffe4
   14a04:	ed4b7a06 	vstr	s15, [fp, #-24]	; 0xffffffe8
   14a08:	ed9b7a02 	vldr	s14, [fp, #8]
   14a0c:	ed5b7a08 	vldr	s15, [fp, #-32]	; 0xffffffe0
   14a10:	ee378a67 	vsub.f32	s16, s14, s15
   14a14:	ed1b7a08 	vldr	s14, [fp, #-32]	; 0xffffffe0
   14a18:	eddb7a02 	vldr	s15, [fp, #8]
   14a1c:	ee377a67 	vsub.f32	s14, s14, s15
   14a20:	ed5b6a08 	vldr	s13, [fp, #-32]	; 0xffffffe0
   14a24:	eddb7a02 	vldr	s15, [fp, #8]
   14a28:	ee767ae7 	vsub.f32	s15, s13, s15
   14a2c:	ee277a27 	vmul.f32	s14, s14, s15
   14a30:	ed5b6a07 	vldr	s13, [fp, #-28]	; 0xffffffe4
   14a34:	eddb7a03 	vldr	s15, [fp, #12]
   14a38:	ee766ae7 	vsub.f32	s13, s13, s15
   14a3c:	ed1b6a07 	vldr	s12, [fp, #-28]	; 0xffffffe4
   14a40:	eddb7a03 	vldr	s15, [fp, #12]
   14a44:	ee767a67 	vsub.f32	s15, s12, s15
   14a48:	ee667aa7 	vmul.f32	s15, s13, s15
   14a4c:	ee777a27 	vadd.f32	s15, s14, s15
   14a50:	eeb77ae7 	vcvt.f64.f32	d7, s15
   14a54:	eeb00b47 	vmov.f64	d0, d7
   14a58:	ebffef2c 	bl	10710 <sqrt@plt>
   14a5c:	eeb07b40 	vmov.f64	d7, d0
   14a60:	eeb77bc7 	vcvt.f32.f64	s14, d7
   14a64:	eec87a07 	vdiv.f32	s15, s16, s14
   14a68:	eeb77ae7 	vcvt.f64.f32	d7, s15
   14a6c:	eeb00b47 	vmov.f64	d0, d7
   14a70:	ebffef11 	bl	106bc <acos@plt>
   14a74:	eeb07b40 	vmov.f64	d7, d0
   14a78:	eef77bc7 	vcvt.f32.f64	s15, d7
   14a7c:	ed4b7a04 	vstr	s15, [fp, #-16]
   14a80:	ed1b7a07 	vldr	s14, [fp, #-28]	; 0xffffffe4
   14a84:	eddb7a03 	vldr	s15, [fp, #12]
   14a88:	eeb47ae7 	vcmpe.f32	s14, s15
   14a8c:	eef1fa10 	vmrs	APSR_nzcv, fpscr
   14a90:	da000002 	ble	14aa0 <is_collision_right+0xcc>
   14a94:	ed5b7a04 	vldr	s15, [fp, #-16]
   14a98:	eef17a67 	vneg.f32	s15, s15
   14a9c:	ed4b7a04 	vstr	s15, [fp, #-16]
   14aa0:	ed5b7a06 	vldr	s15, [fp, #-24]	; 0xffffffe8
   14aa4:	ed1b7a04 	vldr	s14, [fp, #-16]
   14aa8:	ee777a27 	vadd.f32	s15, s14, s15
   14aac:	ed4b7a04 	vstr	s15, [fp, #-16]
   14ab0:	ed5b7a04 	vldr	s15, [fp, #-16]
   14ab4:	eeb77ae7 	vcvt.f64.f32	d7, s15
   14ab8:	eeb00b47 	vmov.f64	d0, d7
   14abc:	ebffef25 	bl	10758 <cos@plt>
   14ac0:	eeb07b40 	vmov.f64	d7, d0
   14ac4:	eeb57bc0 	vcmpe.f64	d7, #0.0
   14ac8:	eef1fa10 	vmrs	APSR_nzcv, fpscr
   14acc:	c3a03001 	movgt	r3, #1
   14ad0:	d3a03000 	movle	r3, #0
   14ad4:	e6ef3073 	uxtb	r3, r3
   14ad8:	e6af3073 	sxtb	r3, r3
   14adc:	e1a00003 	mov	r0, r3
   14ae0:	e24bd00c 	sub	sp, fp, #12
   14ae4:	ecbd8b02 	vpop	{d8}
   14ae8:	e8bd4800 	pop	{fp, lr}
   14aec:	e28dd010 	add	sp, sp, #16
   14af0:	e12fff1e 	bx	lr

00014af4 <node_to_point>:
   14af4:	e24dd010 	sub	sp, sp, #16
   14af8:	e52db004 	push	{fp}		; (str fp, [sp, #-4]!)
   14afc:	e28db000 	add	fp, sp, #0
   14b00:	e24dd01c 	sub	sp, sp, #28
   14b04:	e28bc004 	add	ip, fp, #4
   14b08:	e88c000f 	stm	ip, {r0, r1, r2, r3}
   14b0c:	e59b3008 	ldr	r3, [fp, #8]
   14b10:	e50b3014 	str	r3, [fp, #-20]	; 0xffffffec
   14b14:	e59b300c 	ldr	r3, [fp, #12]
   14b18:	e50b3010 	str	r3, [fp, #-16]
   14b1c:	e24b300c 	sub	r3, fp, #12
   14b20:	e24b2014 	sub	r2, fp, #20
   14b24:	e8920003 	ldm	r2, {r0, r1}
   14b28:	e8830003 	stm	r3, {r0, r1}
   14b2c:	e51b200c 	ldr	r2, [fp, #-12]
   14b30:	e51b3008 	ldr	r3, [fp, #-8]
   14b34:	ee072a10 	vmov	s14, r2
   14b38:	ee073a90 	vmov	s15, r3
   14b3c:	eeb00a47 	vmov.f32	s0, s14
   14b40:	eef00a67 	vmov.f32	s1, s15
   14b44:	e28bd000 	add	sp, fp, #0
   14b48:	e49db004 	pop	{fp}		; (ldr fp, [sp], #4)
   14b4c:	e28dd010 	add	sp, sp, #16
   14b50:	e12fff1e 	bx	lr

00014b54 <compute_theta>:
   14b54:	e24dd010 	sub	sp, sp, #16
   14b58:	e92d4800 	push	{fp, lr}
   14b5c:	ed2d8b02 	vpush	{d8}
   14b60:	e28db00c 	add	fp, sp, #12
   14b64:	e28bc004 	add	ip, fp, #4
   14b68:	e88c000f 	stm	ip, {r0, r1, r2, r3}
   14b6c:	ed9b7a03 	vldr	s14, [fp, #12]
   14b70:	eddb7a18 	vldr	s15, [fp, #96]	; 0x60
   14b74:	eeb47ae7 	vcmpe.f32	s14, s15
   14b78:	eef1fa10 	vmrs	APSR_nzcv, fpscr
   14b7c:	da00001d 	ble	14bf8 <compute_theta+0xa4>
   14b80:	ed9b7a17 	vldr	s14, [fp, #92]	; 0x5c
   14b84:	eddb7a02 	vldr	s15, [fp, #8]
   14b88:	ee378a67 	vsub.f32	s16, s14, s15
   14b8c:	ed9b7a02 	vldr	s14, [fp, #8]
   14b90:	eddb7a17 	vldr	s15, [fp, #92]	; 0x5c
   14b94:	ee377a67 	vsub.f32	s14, s14, s15
   14b98:	eddb6a02 	vldr	s13, [fp, #8]
   14b9c:	eddb7a17 	vldr	s15, [fp, #92]	; 0x5c
   14ba0:	ee767ae7 	vsub.f32	s15, s13, s15
   14ba4:	ee277a27 	vmul.f32	s14, s14, s15
   14ba8:	eddb6a03 	vldr	s13, [fp, #12]
   14bac:	eddb7a18 	vldr	s15, [fp, #96]	; 0x60
   14bb0:	ee766ae7 	vsub.f32	s13, s13, s15
   14bb4:	ed9b6a03 	vldr	s12, [fp, #12]
   14bb8:	eddb7a18 	vldr	s15, [fp, #96]	; 0x60
   14bbc:	ee767a67 	vsub.f32	s15, s12, s15
   14bc0:	ee667aa7 	vmul.f32	s15, s13, s15
   14bc4:	ee777a27 	vadd.f32	s15, s14, s15
   14bc8:	eeb77ae7 	vcvt.f64.f32	d7, s15
   14bcc:	eeb00b47 	vmov.f64	d0, d7
   14bd0:	ebffeece 	bl	10710 <sqrt@plt>
   14bd4:	eeb07b40 	vmov.f64	d7, d0
   14bd8:	eeb77bc7 	vcvt.f32.f64	s14, d7
   14bdc:	eec87a07 	vdiv.f32	s15, s16, s14
   14be0:	eeb77ae7 	vcvt.f64.f32	d7, s15
   14be4:	eeb00b47 	vmov.f64	d0, d7
   14be8:	ebffeeb3 	bl	106bc <acos@plt>
   14bec:	eeb07b40 	vmov.f64	d7, d0
   14bf0:	eeb17b47 	vneg.f64	d7, d7
   14bf4:	ea00001b 	b	14c68 <compute_theta+0x114>
   14bf8:	ed9b7a17 	vldr	s14, [fp, #92]	; 0x5c
   14bfc:	eddb7a02 	vldr	s15, [fp, #8]
   14c00:	ee378a67 	vsub.f32	s16, s14, s15
   14c04:	ed9b7a02 	vldr	s14, [fp, #8]
   14c08:	eddb7a17 	vldr	s15, [fp, #92]	; 0x5c
   14c0c:	ee377a67 	vsub.f32	s14, s14, s15
   14c10:	eddb6a02 	vldr	s13, [fp, #8]
   14c14:	eddb7a17 	vldr	s15, [fp, #92]	; 0x5c
   14c18:	ee767ae7 	vsub.f32	s15, s13, s15
   14c1c:	ee277a27 	vmul.f32	s14, s14, s15
   14c20:	eddb6a03 	vldr	s13, [fp, #12]
   14c24:	eddb7a18 	vldr	s15, [fp, #96]	; 0x60
   14c28:	ee766ae7 	vsub.f32	s13, s13, s15
   14c2c:	ed9b6a03 	vldr	s12, [fp, #12]
   14c30:	eddb7a18 	vldr	s15, [fp, #96]	; 0x60
   14c34:	ee767a67 	vsub.f32	s15, s12, s15
   14c38:	ee667aa7 	vmul.f32	s15, s13, s15
   14c3c:	ee777a27 	vadd.f32	s15, s14, s15
   14c40:	eeb77ae7 	vcvt.f64.f32	d7, s15
   14c44:	eeb00b47 	vmov.f64	d0, d7
   14c48:	ebffeeb0 	bl	10710 <sqrt@plt>
   14c4c:	eeb07b40 	vmov.f64	d7, d0
   14c50:	eeb77bc7 	vcvt.f32.f64	s14, d7
   14c54:	eec87a07 	vdiv.f32	s15, s16, s14
   14c58:	eeb77ae7 	vcvt.f64.f32	d7, s15
   14c5c:	eeb00b47 	vmov.f64	d0, d7
   14c60:	ebffee95 	bl	106bc <acos@plt>
   14c64:	eeb07b40 	vmov.f64	d7, d0
   14c68:	eef77bc7 	vcvt.f32.f64	s15, d7
   14c6c:	eeb00a67 	vmov.f32	s0, s15
   14c70:	e24bd00c 	sub	sp, fp, #12
   14c74:	ecbd8b02 	vpop	{d8}
   14c78:	e8bd4800 	pop	{fp, lr}
   14c7c:	e28dd010 	add	sp, sp, #16
   14c80:	e12fff1e 	bx	lr
   14c84:	00000000 	andeq	r0, r0, r0

00014c88 <update_simulation>:
   14c88:	e92d4810 	push	{r4, fp, lr}
   14c8c:	ed2d8b04 	vpush	{d8-d9}
   14c90:	e28db018 	add	fp, sp, #24
   14c94:	e24dd014 	sub	sp, sp, #20
   14c98:	e50b0028 	str	r0, [fp, #-40]	; 0xffffffd8
   14c9c:	e51b3028 	ldr	r3, [fp, #-40]	; 0xffffffd8
   14ca0:	e50b3020 	str	r3, [fp, #-32]	; 0xffffffe0
   14ca4:	e51b3020 	ldr	r3, [fp, #-32]	; 0xffffffe0
   14ca8:	e1d330d0 	ldrsb	r3, [r3]
   14cac:	e3530000 	cmp	r3, #0
   14cb0:	1a00009d 	bne	14f2c <update_simulation+0x2a4>
   14cb4:	e51b3020 	ldr	r3, [fp, #-32]	; 0xffffffe0
   14cb8:	edd37a01 	vldr	s15, [r3, #4]
   14cbc:	eef57ac0 	vcmpe.f32	s15, #0.0
   14cc0:	eef1fa10 	vmrs	APSR_nzcv, fpscr
   14cc4:	ba000003 	blt	14cd8 <update_simulation+0x50>
   14cc8:	e51b3020 	ldr	r3, [fp, #-32]	; 0xffffffe0
   14ccc:	edd37a01 	vldr	s15, [r3, #4]
   14cd0:	eeb77ae7 	vcvt.f64.f32	d7, s15
   14cd4:	ea000000 	b	14cdc <update_simulation+0x54>
   14cd8:	ed9f7b98 	vldr	d7, [pc, #608]	; 14f40 <update_simulation+0x2b8>
   14cdc:	e59f327c 	ldr	r3, [pc, #636]	; 14f60 <update_simulation+0x2d8>
   14ce0:	ed837b00 	vstr	d7, [r3]
   14ce4:	e51b3020 	ldr	r3, [fp, #-32]	; 0xffffffe0
   14ce8:	edd37a02 	vldr	s15, [r3, #8]
   14cec:	eeb77ae7 	vcvt.f64.f32	d7, s15
   14cf0:	ed9f1b94 	vldr	d1, [pc, #592]	; 14f48 <update_simulation+0x2c0>
   14cf4:	eeb00b47 	vmov.f64	d0, d7
   14cf8:	ebffee90 	bl	10740 <fmod@plt>
   14cfc:	eeb07b40 	vmov.f64	d7, d0
   14d00:	e59f325c 	ldr	r3, [pc, #604]	; 14f64 <update_simulation+0x2dc>
   14d04:	ed837b00 	vstr	d7, [r3]
   14d08:	e51b3020 	ldr	r3, [fp, #-32]	; 0xffffffe0
   14d0c:	e5934028 	ldr	r4, [r3, #40]	; 0x28
   14d10:	e51b3020 	ldr	r3, [fp, #-32]	; 0xffffffe0
   14d14:	e5933028 	ldr	r3, [r3, #40]	; 0x28
   14d18:	edd37a00 	vldr	s15, [r3]
   14d1c:	eeb78ae7 	vcvt.f64.f32	d8, s15
   14d20:	e59f3238 	ldr	r3, [pc, #568]	; 14f60 <update_simulation+0x2d8>
   14d24:	ed937b00 	vldr	d7, [r3]
   14d28:	ed9f6b88 	vldr	d6, [pc, #544]	; 14f50 <update_simulation+0x2c8>
   14d2c:	ee279b06 	vmul.f64	d9, d7, d6
   14d30:	e51b3020 	ldr	r3, [fp, #-32]	; 0xffffffe0
   14d34:	e5933028 	ldr	r3, [r3, #40]	; 0x28
   14d38:	edd37a02 	vldr	s15, [r3, #8]
   14d3c:	eeb76ae7 	vcvt.f64.f32	d6, s15
   14d40:	e59f321c 	ldr	r3, [pc, #540]	; 14f64 <update_simulation+0x2dc>
   14d44:	ed937b00 	vldr	d7, [r3]
   14d48:	ed9f5b80 	vldr	d5, [pc, #512]	; 14f50 <update_simulation+0x2c8>
   14d4c:	ee277b05 	vmul.f64	d7, d7, d5
   14d50:	ee367b07 	vadd.f64	d7, d6, d7
   14d54:	eeb00b47 	vmov.f64	d0, d7
   14d58:	ebffee7e 	bl	10758 <cos@plt>
   14d5c:	eeb07b40 	vmov.f64	d7, d0
   14d60:	ee297b07 	vmul.f64	d7, d9, d7
   14d64:	ee387b07 	vadd.f64	d7, d8, d7
   14d68:	eef77bc7 	vcvt.f32.f64	s15, d7
   14d6c:	edc47a00 	vstr	s15, [r4]
   14d70:	e51b3020 	ldr	r3, [fp, #-32]	; 0xffffffe0
   14d74:	e5934028 	ldr	r4, [r3, #40]	; 0x28
   14d78:	e51b3020 	ldr	r3, [fp, #-32]	; 0xffffffe0
   14d7c:	e5933028 	ldr	r3, [r3, #40]	; 0x28
   14d80:	edd37a01 	vldr	s15, [r3, #4]
   14d84:	eeb78ae7 	vcvt.f64.f32	d8, s15
   14d88:	e59f31d0 	ldr	r3, [pc, #464]	; 14f60 <update_simulation+0x2d8>
   14d8c:	ed937b00 	vldr	d7, [r3]
   14d90:	ed9f6b6e 	vldr	d6, [pc, #440]	; 14f50 <update_simulation+0x2c8>
   14d94:	ee279b06 	vmul.f64	d9, d7, d6
   14d98:	e51b3020 	ldr	r3, [fp, #-32]	; 0xffffffe0
   14d9c:	e5933028 	ldr	r3, [r3, #40]	; 0x28
   14da0:	edd37a02 	vldr	s15, [r3, #8]
   14da4:	eeb76ae7 	vcvt.f64.f32	d6, s15
   14da8:	e59f31b4 	ldr	r3, [pc, #436]	; 14f64 <update_simulation+0x2dc>
   14dac:	ed937b00 	vldr	d7, [r3]
   14db0:	ed9f5b66 	vldr	d5, [pc, #408]	; 14f50 <update_simulation+0x2c8>
   14db4:	ee277b05 	vmul.f64	d7, d7, d5
   14db8:	ee367b07 	vadd.f64	d7, d6, d7
   14dbc:	eeb00b47 	vmov.f64	d0, d7
   14dc0:	ebffee4c 	bl	106f8 <sin@plt>
   14dc4:	eeb07b40 	vmov.f64	d7, d0
   14dc8:	ee297b07 	vmul.f64	d7, d9, d7
   14dcc:	ee387b07 	vadd.f64	d7, d8, d7
   14dd0:	eef77bc7 	vcvt.f32.f64	s15, d7
   14dd4:	edc47a01 	vstr	s15, [r4, #4]
   14dd8:	e51b3020 	ldr	r3, [fp, #-32]	; 0xffffffe0
   14ddc:	e5933028 	ldr	r3, [r3, #40]	; 0x28
   14de0:	e51b2020 	ldr	r2, [fp, #-32]	; 0xffffffe0
   14de4:	e5922028 	ldr	r2, [r2, #40]	; 0x28
   14de8:	edd27a02 	vldr	s15, [r2, #8]
   14dec:	eeb76ae7 	vcvt.f64.f32	d6, s15
   14df0:	e59f216c 	ldr	r2, [pc, #364]	; 14f64 <update_simulation+0x2dc>
   14df4:	ed927b00 	vldr	d7, [r2]
   14df8:	ed9f5b54 	vldr	d5, [pc, #336]	; 14f50 <update_simulation+0x2c8>
   14dfc:	ee277b05 	vmul.f64	d7, d7, d5
   14e00:	ee367b07 	vadd.f64	d7, d6, d7
   14e04:	eef77bc7 	vcvt.f32.f64	s15, d7
   14e08:	edc37a02 	vstr	s15, [r3, #8]
   14e0c:	e51b3020 	ldr	r3, [fp, #-32]	; 0xffffffe0
   14e10:	e593302c 	ldr	r3, [r3, #44]	; 0x2c
   14e14:	e51b2020 	ldr	r2, [fp, #-32]	; 0xffffffe0
   14e18:	e5922028 	ldr	r2, [r2, #40]	; 0x28
   14e1c:	edd27a02 	vldr	s15, [r2, #8]
   14e20:	eeb77ae7 	vcvt.f64.f32	d7, s15
   14e24:	ed837b00 	vstr	d7, [r3]
   14e28:	e51b3020 	ldr	r3, [fp, #-32]	; 0xffffffe0
   14e2c:	e593302c 	ldr	r3, [r3, #44]	; 0x2c
   14e30:	e3a02001 	mov	r2, #1
   14e34:	e5c32008 	strb	r2, [r3, #8]
   14e38:	e51b3020 	ldr	r3, [fp, #-32]	; 0xffffffe0
   14e3c:	e5933030 	ldr	r3, [r3, #48]	; 0x30
   14e40:	e51b2020 	ldr	r2, [fp, #-32]	; 0xffffffe0
   14e44:	e5922028 	ldr	r2, [r2, #40]	; 0x28
   14e48:	edd27a00 	vldr	s15, [r2]
   14e4c:	eeb77ae7 	vcvt.f64.f32	d7, s15
   14e50:	ed837b00 	vstr	d7, [r3]
   14e54:	e51b3020 	ldr	r3, [fp, #-32]	; 0xffffffe0
   14e58:	e5933030 	ldr	r3, [r3, #48]	; 0x30
   14e5c:	e51b2020 	ldr	r2, [fp, #-32]	; 0xffffffe0
   14e60:	e5922028 	ldr	r2, [r2, #40]	; 0x28
   14e64:	edd27a01 	vldr	s15, [r2, #4]
   14e68:	eeb77ae7 	vcvt.f64.f32	d7, s15
   14e6c:	ed837b02 	vstr	d7, [r3, #8]
   14e70:	e51b3020 	ldr	r3, [fp, #-32]	; 0xffffffe0
   14e74:	e5933030 	ldr	r3, [r3, #48]	; 0x30
   14e78:	e3a02001 	mov	r2, #1
   14e7c:	e5c32010 	strb	r2, [r3, #16]
   14e80:	e51b3020 	ldr	r3, [fp, #-32]	; 0xffffffe0
   14e84:	e5933034 	ldr	r3, [r3, #52]	; 0x34
   14e88:	e59f20d8 	ldr	r2, [pc, #216]	; 14f68 <update_simulation+0x2e0>
   14e8c:	ed927b04 	vldr	d7, [r2, #16]
   14e90:	ed9f5b30 	vldr	d5, [pc, #192]	; 14f58 <update_simulation+0x2d0>
   14e94:	ee876b05 	vdiv.f64	d6, d7, d5
   14e98:	e59f20c4 	ldr	r2, [pc, #196]	; 14f64 <update_simulation+0x2dc>
   14e9c:	ed927b00 	vldr	d7, [r2]
   14ea0:	ee266b07 	vmul.f64	d6, d6, d7
   14ea4:	e59f20b4 	ldr	r2, [pc, #180]	; 14f60 <update_simulation+0x2d8>
   14ea8:	ed927b00 	vldr	d7, [r2]
   14eac:	ee367b47 	vsub.f64	d7, d6, d7
   14eb0:	ee375b07 	vadd.f64	d5, d7, d7
   14eb4:	e59f20ac 	ldr	r2, [pc, #172]	; 14f68 <update_simulation+0x2e0>
   14eb8:	ed926b02 	vldr	d6, [r2, #8]
   14ebc:	ee857b06 	vdiv.f64	d7, d5, d6
   14ec0:	ed837b00 	vstr	d7, [r3]
   14ec4:	e51b3020 	ldr	r3, [fp, #-32]	; 0xffffffe0
   14ec8:	e5933034 	ldr	r3, [r3, #52]	; 0x34
   14ecc:	e59f208c 	ldr	r2, [pc, #140]	; 14f60 <update_simulation+0x2d8>
   14ed0:	ed927b00 	vldr	d7, [r2]
   14ed4:	eeb16b47 	vneg.f64	d6, d7
   14ed8:	e59f2088 	ldr	r2, [pc, #136]	; 14f68 <update_simulation+0x2e0>
   14edc:	ed927b04 	vldr	d7, [r2, #16]
   14ee0:	ed9f4b1c 	vldr	d4, [pc, #112]	; 14f58 <update_simulation+0x2d0>
   14ee4:	ee875b04 	vdiv.f64	d5, d7, d4
   14ee8:	e59f2074 	ldr	r2, [pc, #116]	; 14f64 <update_simulation+0x2dc>
   14eec:	ed927b00 	vldr	d7, [r2]
   14ef0:	ee257b07 	vmul.f64	d7, d5, d7
   14ef4:	ee367b47 	vsub.f64	d7, d6, d7
   14ef8:	ee375b07 	vadd.f64	d5, d7, d7
   14efc:	e59f2064 	ldr	r2, [pc, #100]	; 14f68 <update_simulation+0x2e0>
   14f00:	ed926b00 	vldr	d6, [r2]
   14f04:	ee857b06 	vdiv.f64	d7, d5, d6
   14f08:	ed837b02 	vstr	d7, [r3, #8]
   14f0c:	e51b3020 	ldr	r3, [fp, #-32]	; 0xffffffe0
   14f10:	e5930030 	ldr	r0, [r3, #48]	; 0x30
   14f14:	e51b3020 	ldr	r3, [fp, #-32]	; 0xffffffe0
   14f18:	e593102c 	ldr	r1, [r3, #44]	; 0x2c
   14f1c:	e51b3020 	ldr	r3, [fp, #-32]	; 0xffffffe0
   14f20:	e5932034 	ldr	r2, [r3, #52]	; 0x34
   14f24:	e3a03001 	mov	r3, #1
   14f28:	ebfff96e 	bl	134e8 <sensor_data_randomize>
   14f2c:	e1a00000 	nop			; (mov r0, r0)
   14f30:	e1a00003 	mov	r0, r3
   14f34:	e24bd018 	sub	sp, fp, #24
   14f38:	ecbd8b04 	vpop	{d8-d9}
   14f3c:	e8bd8810 	pop	{r4, fp, pc}
	...
   14f48:	2955385e 	ldmdbcs	r5, {r1, r2, r3, r4, r6, fp, ip, sp}^
   14f4c:	404f6a7a 	submi	r6, pc, sl, ror sl	; <UNPREDICTABLE>
   14f50:	9999999a 	ldmibls	r9, {r1, r3, r4, r7, r8, fp, ip, pc}
   14f54:	3fb99999 	svccc	0x00b99999
   14f58:	00000000 	andeq	r0, r0, r0
   14f5c:	40000000 	andmi	r0, r0, r0
   14f60:	0002af38 	andeq	sl, r2, r8, lsr pc
   14f64:	0002af40 	andeq	sl, r2, r0, asr #30
   14f68:	00016788 	andeq	r6, r1, r8, lsl #15
   14f6c:	00000000 	andeq	r0, r0, r0

00014f70 <mat_mul_scal>:
   14f70:	e52db004 	push	{fp}		; (str fp, [sp, #-4]!)
   14f74:	e28db000 	add	fp, sp, #0
   14f78:	e24dd01c 	sub	sp, sp, #28
   14f7c:	e50b0010 	str	r0, [fp, #-16]
   14f80:	ed0b0b07 	vstr	d0, [fp, #-28]	; 0xffffffe4
   14f84:	e3a03000 	mov	r3, #0
   14f88:	e50b3008 	str	r3, [fp, #-8]
   14f8c:	ea000025 	b	15028 <mat_mul_scal+0xb8>
   14f90:	e3a03000 	mov	r3, #0
   14f94:	e50b300c 	str	r3, [fp, #-12]
   14f98:	ea00001a 	b	15008 <mat_mul_scal+0x98>
   14f9c:	e51b3010 	ldr	r3, [fp, #-16]
   14fa0:	e5932008 	ldr	r2, [r3, #8]
   14fa4:	e51b3010 	ldr	r3, [fp, #-16]
   14fa8:	e5933004 	ldr	r3, [r3, #4]
   14fac:	e51b100c 	ldr	r1, [fp, #-12]
   14fb0:	e0010391 	mul	r1, r1, r3
   14fb4:	e51b3008 	ldr	r3, [fp, #-8]
   14fb8:	e0813003 	add	r3, r1, r3
   14fbc:	e51b1010 	ldr	r1, [fp, #-16]
   14fc0:	e5910008 	ldr	r0, [r1, #8]
   14fc4:	e51b1010 	ldr	r1, [fp, #-16]
   14fc8:	e5911004 	ldr	r1, [r1, #4]
   14fcc:	e51bc00c 	ldr	ip, [fp, #-12]
   14fd0:	e00c019c 	mul	ip, ip, r1
   14fd4:	e51b1008 	ldr	r1, [fp, #-8]
   14fd8:	e08c1001 	add	r1, ip, r1
   14fdc:	e1a01181 	lsl	r1, r1, #3
   14fe0:	e0801001 	add	r1, r0, r1
   14fe4:	ed916b00 	vldr	d6, [r1]
   14fe8:	ed1b7b07 	vldr	d7, [fp, #-28]	; 0xffffffe4
   14fec:	ee267b07 	vmul.f64	d7, d6, d7
   14ff0:	e1a03183 	lsl	r3, r3, #3
   14ff4:	e0823003 	add	r3, r2, r3
   14ff8:	ed837b00 	vstr	d7, [r3]
   14ffc:	e51b300c 	ldr	r3, [fp, #-12]
   15000:	e2833001 	add	r3, r3, #1
   15004:	e50b300c 	str	r3, [fp, #-12]
   15008:	e51b3010 	ldr	r3, [fp, #-16]
   1500c:	e5932000 	ldr	r2, [r3]
   15010:	e51b300c 	ldr	r3, [fp, #-12]
   15014:	e1520003 	cmp	r2, r3
   15018:	caffffdf 	bgt	14f9c <mat_mul_scal+0x2c>
   1501c:	e51b3008 	ldr	r3, [fp, #-8]
   15020:	e2833001 	add	r3, r3, #1
   15024:	e50b3008 	str	r3, [fp, #-8]
   15028:	e51b3010 	ldr	r3, [fp, #-16]
   1502c:	e5932004 	ldr	r2, [r3, #4]
   15030:	e51b3008 	ldr	r3, [fp, #-8]
   15034:	e1520003 	cmp	r2, r3
   15038:	caffffd4 	bgt	14f90 <mat_mul_scal+0x20>
   1503c:	e1a00000 	nop			; (mov r0, r0)
   15040:	e28bd000 	add	sp, fp, #0
   15044:	e49db004 	pop	{fp}		; (ldr fp, [sp], #4)
   15048:	e12fff1e 	bx	lr

0001504c <mat_copy>:
   1504c:	e92d4800 	push	{fp, lr}
   15050:	e28db004 	add	fp, sp, #4
   15054:	e24dd010 	sub	sp, sp, #16
   15058:	e50b0010 	str	r0, [fp, #-16]
   1505c:	e50b1014 	str	r1, [fp, #-20]	; 0xffffffec
   15060:	e51b3014 	ldr	r3, [fp, #-20]	; 0xffffffec
   15064:	e5932000 	ldr	r2, [r3]
   15068:	e51b3010 	ldr	r3, [fp, #-16]
   1506c:	e5933000 	ldr	r3, [r3]
   15070:	e1520003 	cmp	r2, r3
   15074:	1a000014 	bne	150cc <mat_copy+0x80>
   15078:	e51b3014 	ldr	r3, [fp, #-20]	; 0xffffffec
   1507c:	e5932004 	ldr	r2, [r3, #4]
   15080:	e51b3010 	ldr	r3, [fp, #-16]
   15084:	e5933004 	ldr	r3, [r3, #4]
   15088:	e1520003 	cmp	r2, r3
   1508c:	1a00000e 	bne	150cc <mat_copy+0x80>
   15090:	e51b3010 	ldr	r3, [fp, #-16]
   15094:	e5933000 	ldr	r3, [r3]
   15098:	e51b2010 	ldr	r2, [fp, #-16]
   1509c:	e5922004 	ldr	r2, [r2, #4]
   150a0:	e0030392 	mul	r3, r2, r3
   150a4:	e1a03183 	lsl	r3, r3, #3
   150a8:	e50b3008 	str	r3, [fp, #-8]
   150ac:	e51b3010 	ldr	r3, [fp, #-16]
   150b0:	e5930008 	ldr	r0, [r3, #8]
   150b4:	e51b3014 	ldr	r3, [fp, #-20]	; 0xffffffec
   150b8:	e5933008 	ldr	r3, [r3, #8]
   150bc:	e51b2008 	ldr	r2, [fp, #-8]
   150c0:	e1a01003 	mov	r1, r3
   150c4:	ebffed70 	bl	1068c <memcpy@plt>
   150c8:	ea000000 	b	150d0 <mat_copy+0x84>
   150cc:	e1a00000 	nop			; (mov r0, r0)
   150d0:	e24bd004 	sub	sp, fp, #4
   150d4:	e8bd8800 	pop	{fp, pc}

000150d8 <mat_add>:
   150d8:	e52db004 	push	{fp}		; (str fp, [sp, #-4]!)
   150dc:	e28db000 	add	fp, sp, #0
   150e0:	e24dd01c 	sub	sp, sp, #28
   150e4:	e50b0010 	str	r0, [fp, #-16]
   150e8:	e50b1014 	str	r1, [fp, #-20]	; 0xffffffec
   150ec:	e50b2018 	str	r2, [fp, #-24]	; 0xffffffe8
   150f0:	e51b3010 	ldr	r3, [fp, #-16]
   150f4:	e5932000 	ldr	r2, [r3]
   150f8:	e51b3014 	ldr	r3, [fp, #-20]	; 0xffffffec
   150fc:	e5933000 	ldr	r3, [r3]
   15100:	e1520003 	cmp	r2, r3
   15104:	1a00004a 	bne	15234 <mat_add+0x15c>
   15108:	e51b3010 	ldr	r3, [fp, #-16]
   1510c:	e5932004 	ldr	r2, [r3, #4]
   15110:	e51b3014 	ldr	r3, [fp, #-20]	; 0xffffffec
   15114:	e5933004 	ldr	r3, [r3, #4]
   15118:	e1520003 	cmp	r2, r3
   1511c:	1a000044 	bne	15234 <mat_add+0x15c>
   15120:	e51b3018 	ldr	r3, [fp, #-24]	; 0xffffffe8
   15124:	e5932000 	ldr	r2, [r3]
   15128:	e51b3010 	ldr	r3, [fp, #-16]
   1512c:	e5933000 	ldr	r3, [r3]
   15130:	e1520003 	cmp	r2, r3
   15134:	1a00003e 	bne	15234 <mat_add+0x15c>
   15138:	e51b3018 	ldr	r3, [fp, #-24]	; 0xffffffe8
   1513c:	e5932004 	ldr	r2, [r3, #4]
   15140:	e51b3010 	ldr	r3, [fp, #-16]
   15144:	e5933004 	ldr	r3, [r3, #4]
   15148:	e1520003 	cmp	r2, r3
   1514c:	1a000038 	bne	15234 <mat_add+0x15c>
   15150:	e3a03000 	mov	r3, #0
   15154:	e50b3008 	str	r3, [fp, #-8]
   15158:	ea00002f 	b	1521c <mat_add+0x144>
   1515c:	e3a03000 	mov	r3, #0
   15160:	e50b300c 	str	r3, [fp, #-12]
   15164:	ea000024 	b	151fc <mat_add+0x124>
   15168:	e51b3018 	ldr	r3, [fp, #-24]	; 0xffffffe8
   1516c:	e5932008 	ldr	r2, [r3, #8]
   15170:	e51b3018 	ldr	r3, [fp, #-24]	; 0xffffffe8
   15174:	e5933004 	ldr	r3, [r3, #4]
   15178:	e51b100c 	ldr	r1, [fp, #-12]
   1517c:	e0010391 	mul	r1, r1, r3
   15180:	e51b3008 	ldr	r3, [fp, #-8]
   15184:	e0813003 	add	r3, r1, r3
   15188:	e51b1010 	ldr	r1, [fp, #-16]
   1518c:	e5910008 	ldr	r0, [r1, #8]
   15190:	e51b1010 	ldr	r1, [fp, #-16]
   15194:	e5911004 	ldr	r1, [r1, #4]
   15198:	e51bc00c 	ldr	ip, [fp, #-12]
   1519c:	e00c019c 	mul	ip, ip, r1
   151a0:	e51b1008 	ldr	r1, [fp, #-8]
   151a4:	e08c1001 	add	r1, ip, r1
   151a8:	e1a01181 	lsl	r1, r1, #3
   151ac:	e0801001 	add	r1, r0, r1
   151b0:	ed916b00 	vldr	d6, [r1]
   151b4:	e51b1014 	ldr	r1, [fp, #-20]	; 0xffffffec
   151b8:	e5910008 	ldr	r0, [r1, #8]
   151bc:	e51b1014 	ldr	r1, [fp, #-20]	; 0xffffffec
   151c0:	e5911004 	ldr	r1, [r1, #4]
   151c4:	e51bc00c 	ldr	ip, [fp, #-12]
   151c8:	e00c019c 	mul	ip, ip, r1
   151cc:	e51b1008 	ldr	r1, [fp, #-8]
   151d0:	e08c1001 	add	r1, ip, r1
   151d4:	e1a01181 	lsl	r1, r1, #3
   151d8:	e0801001 	add	r1, r0, r1
   151dc:	ed917b00 	vldr	d7, [r1]
   151e0:	ee367b07 	vadd.f64	d7, d6, d7
   151e4:	e1a03183 	lsl	r3, r3, #3
   151e8:	e0823003 	add	r3, r2, r3
   151ec:	ed837b00 	vstr	d7, [r3]
   151f0:	e51b300c 	ldr	r3, [fp, #-12]
   151f4:	e2833001 	add	r3, r3, #1
   151f8:	e50b300c 	str	r3, [fp, #-12]
   151fc:	e51b3018 	ldr	r3, [fp, #-24]	; 0xffffffe8
   15200:	e5932000 	ldr	r2, [r3]
   15204:	e51b300c 	ldr	r3, [fp, #-12]
   15208:	e1520003 	cmp	r2, r3
   1520c:	caffffd5 	bgt	15168 <mat_add+0x90>
   15210:	e51b3008 	ldr	r3, [fp, #-8]
   15214:	e2833001 	add	r3, r3, #1
   15218:	e50b3008 	str	r3, [fp, #-8]
   1521c:	e51b3018 	ldr	r3, [fp, #-24]	; 0xffffffe8
   15220:	e5932004 	ldr	r2, [r3, #4]
   15224:	e51b3008 	ldr	r3, [fp, #-8]
   15228:	e1520003 	cmp	r2, r3
   1522c:	caffffca 	bgt	1515c <mat_add+0x84>
   15230:	ea000000 	b	15238 <mat_add+0x160>
   15234:	e1a00000 	nop			; (mov r0, r0)
   15238:	e28bd000 	add	sp, fp, #0
   1523c:	e49db004 	pop	{fp}		; (ldr fp, [sp], #4)
   15240:	e12fff1e 	bx	lr

00015244 <mat_sub>:
   15244:	e52db004 	push	{fp}		; (str fp, [sp, #-4]!)
   15248:	e28db000 	add	fp, sp, #0
   1524c:	e24dd01c 	sub	sp, sp, #28
   15250:	e50b0010 	str	r0, [fp, #-16]
   15254:	e50b1014 	str	r1, [fp, #-20]	; 0xffffffec
   15258:	e50b2018 	str	r2, [fp, #-24]	; 0xffffffe8
   1525c:	e51b3010 	ldr	r3, [fp, #-16]
   15260:	e5932000 	ldr	r2, [r3]
   15264:	e51b3014 	ldr	r3, [fp, #-20]	; 0xffffffec
   15268:	e5933000 	ldr	r3, [r3]
   1526c:	e1520003 	cmp	r2, r3
   15270:	1a00004a 	bne	153a0 <mat_sub+0x15c>
   15274:	e51b3010 	ldr	r3, [fp, #-16]
   15278:	e5932004 	ldr	r2, [r3, #4]
   1527c:	e51b3014 	ldr	r3, [fp, #-20]	; 0xffffffec
   15280:	e5933004 	ldr	r3, [r3, #4]
   15284:	e1520003 	cmp	r2, r3
   15288:	1a000044 	bne	153a0 <mat_sub+0x15c>
   1528c:	e51b3018 	ldr	r3, [fp, #-24]	; 0xffffffe8
   15290:	e5932000 	ldr	r2, [r3]
   15294:	e51b3010 	ldr	r3, [fp, #-16]
   15298:	e5933000 	ldr	r3, [r3]
   1529c:	e1520003 	cmp	r2, r3
   152a0:	1a00003e 	bne	153a0 <mat_sub+0x15c>
   152a4:	e51b3018 	ldr	r3, [fp, #-24]	; 0xffffffe8
   152a8:	e5932004 	ldr	r2, [r3, #4]
   152ac:	e51b3010 	ldr	r3, [fp, #-16]
   152b0:	e5933004 	ldr	r3, [r3, #4]
   152b4:	e1520003 	cmp	r2, r3
   152b8:	1a000038 	bne	153a0 <mat_sub+0x15c>
   152bc:	e3a03000 	mov	r3, #0
   152c0:	e50b3008 	str	r3, [fp, #-8]
   152c4:	ea00002f 	b	15388 <mat_sub+0x144>
   152c8:	e3a03000 	mov	r3, #0
   152cc:	e50b300c 	str	r3, [fp, #-12]
   152d0:	ea000024 	b	15368 <mat_sub+0x124>
   152d4:	e51b3018 	ldr	r3, [fp, #-24]	; 0xffffffe8
   152d8:	e5932008 	ldr	r2, [r3, #8]
   152dc:	e51b3018 	ldr	r3, [fp, #-24]	; 0xffffffe8
   152e0:	e5933004 	ldr	r3, [r3, #4]
   152e4:	e51b100c 	ldr	r1, [fp, #-12]
   152e8:	e0010391 	mul	r1, r1, r3
   152ec:	e51b3008 	ldr	r3, [fp, #-8]
   152f0:	e0813003 	add	r3, r1, r3
   152f4:	e51b1010 	ldr	r1, [fp, #-16]
   152f8:	e5910008 	ldr	r0, [r1, #8]
   152fc:	e51b1010 	ldr	r1, [fp, #-16]
   15300:	e5911004 	ldr	r1, [r1, #4]
   15304:	e51bc00c 	ldr	ip, [fp, #-12]
   15308:	e00c019c 	mul	ip, ip, r1
   1530c:	e51b1008 	ldr	r1, [fp, #-8]
   15310:	e08c1001 	add	r1, ip, r1
   15314:	e1a01181 	lsl	r1, r1, #3
   15318:	e0801001 	add	r1, r0, r1
   1531c:	ed916b00 	vldr	d6, [r1]
   15320:	e51b1014 	ldr	r1, [fp, #-20]	; 0xffffffec
   15324:	e5910008 	ldr	r0, [r1, #8]
   15328:	e51b1014 	ldr	r1, [fp, #-20]	; 0xffffffec
   1532c:	e5911004 	ldr	r1, [r1, #4]
   15330:	e51bc00c 	ldr	ip, [fp, #-12]
   15334:	e00c019c 	mul	ip, ip, r1
   15338:	e51b1008 	ldr	r1, [fp, #-8]
   1533c:	e08c1001 	add	r1, ip, r1
   15340:	e1a01181 	lsl	r1, r1, #3
   15344:	e0801001 	add	r1, r0, r1
   15348:	ed917b00 	vldr	d7, [r1]
   1534c:	ee367b47 	vsub.f64	d7, d6, d7
   15350:	e1a03183 	lsl	r3, r3, #3
   15354:	e0823003 	add	r3, r2, r3
   15358:	ed837b00 	vstr	d7, [r3]
   1535c:	e51b300c 	ldr	r3, [fp, #-12]
   15360:	e2833001 	add	r3, r3, #1
   15364:	e50b300c 	str	r3, [fp, #-12]
   15368:	e51b3018 	ldr	r3, [fp, #-24]	; 0xffffffe8
   1536c:	e5932000 	ldr	r2, [r3]
   15370:	e51b300c 	ldr	r3, [fp, #-12]
   15374:	e1520003 	cmp	r2, r3
   15378:	caffffd5 	bgt	152d4 <mat_sub+0x90>
   1537c:	e51b3008 	ldr	r3, [fp, #-8]
   15380:	e2833001 	add	r3, r3, #1
   15384:	e50b3008 	str	r3, [fp, #-8]
   15388:	e51b3018 	ldr	r3, [fp, #-24]	; 0xffffffe8
   1538c:	e5932004 	ldr	r2, [r3, #4]
   15390:	e51b3008 	ldr	r3, [fp, #-8]
   15394:	e1520003 	cmp	r2, r3
   15398:	caffffca 	bgt	152c8 <mat_sub+0x84>
   1539c:	ea000000 	b	153a4 <mat_sub+0x160>
   153a0:	e1a00000 	nop			; (mov r0, r0)
   153a4:	e28bd000 	add	sp, fp, #0
   153a8:	e49db004 	pop	{fp}		; (ldr fp, [sp], #4)
   153ac:	e12fff1e 	bx	lr

000153b0 <mat_mul>:
   153b0:	e52db004 	push	{fp}		; (str fp, [sp, #-4]!)
   153b4:	e28db000 	add	fp, sp, #0
   153b8:	e24dd024 	sub	sp, sp, #36	; 0x24
   153bc:	e50b0018 	str	r0, [fp, #-24]	; 0xffffffe8
   153c0:	e50b101c 	str	r1, [fp, #-28]	; 0xffffffe4
   153c4:	e50b2020 	str	r2, [fp, #-32]	; 0xffffffe0
   153c8:	e51b3018 	ldr	r3, [fp, #-24]	; 0xffffffe8
   153cc:	e5932004 	ldr	r2, [r3, #4]
   153d0:	e51b301c 	ldr	r3, [fp, #-28]	; 0xffffffe4
   153d4:	e5933000 	ldr	r3, [r3]
   153d8:	e1520003 	cmp	r2, r3
   153dc:	1a000068 	bne	15584 <mat_mul+0x1d4>
   153e0:	e51b3020 	ldr	r3, [fp, #-32]	; 0xffffffe0
   153e4:	e5932000 	ldr	r2, [r3]
   153e8:	e51b3018 	ldr	r3, [fp, #-24]	; 0xffffffe8
   153ec:	e5933000 	ldr	r3, [r3]
   153f0:	e1520003 	cmp	r2, r3
   153f4:	1a000062 	bne	15584 <mat_mul+0x1d4>
   153f8:	e51b3020 	ldr	r3, [fp, #-32]	; 0xffffffe0
   153fc:	e5932004 	ldr	r2, [r3, #4]
   15400:	e51b301c 	ldr	r3, [fp, #-28]	; 0xffffffe4
   15404:	e5933004 	ldr	r3, [r3, #4]
   15408:	e1520003 	cmp	r2, r3
   1540c:	1a00005c 	bne	15584 <mat_mul+0x1d4>
   15410:	e3a03000 	mov	r3, #0
   15414:	e50b300c 	str	r3, [fp, #-12]
   15418:	ea000053 	b	1556c <mat_mul+0x1bc>
   1541c:	e3a03000 	mov	r3, #0
   15420:	e50b3010 	str	r3, [fp, #-16]
   15424:	ea000048 	b	1554c <mat_mul+0x19c>
   15428:	e51b3020 	ldr	r3, [fp, #-32]	; 0xffffffe0
   1542c:	e5932008 	ldr	r2, [r3, #8]
   15430:	e51b3020 	ldr	r3, [fp, #-32]	; 0xffffffe0
   15434:	e5933004 	ldr	r3, [r3, #4]
   15438:	e51b1010 	ldr	r1, [fp, #-16]
   1543c:	e0010391 	mul	r1, r1, r3
   15440:	e51b300c 	ldr	r3, [fp, #-12]
   15444:	e0813003 	add	r3, r1, r3
   15448:	e1a03183 	lsl	r3, r3, #3
   1544c:	e0821003 	add	r1, r2, r3
   15450:	e3a02000 	mov	r2, #0
   15454:	e3a03000 	mov	r3, #0
   15458:	e1c120f0 	strd	r2, [r1]
   1545c:	e3a03000 	mov	r3, #0
   15460:	e50b3008 	str	r3, [fp, #-8]
   15464:	ea000030 	b	1552c <mat_mul+0x17c>
   15468:	e51b3020 	ldr	r3, [fp, #-32]	; 0xffffffe0
   1546c:	e5932008 	ldr	r2, [r3, #8]
   15470:	e51b3020 	ldr	r3, [fp, #-32]	; 0xffffffe0
   15474:	e5933004 	ldr	r3, [r3, #4]
   15478:	e51b1010 	ldr	r1, [fp, #-16]
   1547c:	e0010391 	mul	r1, r1, r3
   15480:	e51b300c 	ldr	r3, [fp, #-12]
   15484:	e0813003 	add	r3, r1, r3
   15488:	e51b1020 	ldr	r1, [fp, #-32]	; 0xffffffe0
   1548c:	e5910008 	ldr	r0, [r1, #8]
   15490:	e51b1020 	ldr	r1, [fp, #-32]	; 0xffffffe0
   15494:	e5911004 	ldr	r1, [r1, #4]
   15498:	e51bc010 	ldr	ip, [fp, #-16]
   1549c:	e00c019c 	mul	ip, ip, r1
   154a0:	e51b100c 	ldr	r1, [fp, #-12]
   154a4:	e08c1001 	add	r1, ip, r1
   154a8:	e1a01181 	lsl	r1, r1, #3
   154ac:	e0801001 	add	r1, r0, r1
   154b0:	ed916b00 	vldr	d6, [r1]
   154b4:	e51b1018 	ldr	r1, [fp, #-24]	; 0xffffffe8
   154b8:	e5910008 	ldr	r0, [r1, #8]
   154bc:	e51b1018 	ldr	r1, [fp, #-24]	; 0xffffffe8
   154c0:	e5911004 	ldr	r1, [r1, #4]
   154c4:	e51bc010 	ldr	ip, [fp, #-16]
   154c8:	e00c019c 	mul	ip, ip, r1
   154cc:	e51b1008 	ldr	r1, [fp, #-8]
   154d0:	e08c1001 	add	r1, ip, r1
   154d4:	e1a01181 	lsl	r1, r1, #3
   154d8:	e0801001 	add	r1, r0, r1
   154dc:	ed915b00 	vldr	d5, [r1]
   154e0:	e51b101c 	ldr	r1, [fp, #-28]	; 0xffffffe4
   154e4:	e5910008 	ldr	r0, [r1, #8]
   154e8:	e51b101c 	ldr	r1, [fp, #-28]	; 0xffffffe4
   154ec:	e5911004 	ldr	r1, [r1, #4]
   154f0:	e51bc008 	ldr	ip, [fp, #-8]
   154f4:	e00c019c 	mul	ip, ip, r1
   154f8:	e51b100c 	ldr	r1, [fp, #-12]
   154fc:	e08c1001 	add	r1, ip, r1
   15500:	e1a01181 	lsl	r1, r1, #3
   15504:	e0801001 	add	r1, r0, r1
   15508:	ed917b00 	vldr	d7, [r1]
   1550c:	ee257b07 	vmul.f64	d7, d5, d7
   15510:	ee367b07 	vadd.f64	d7, d6, d7
   15514:	e1a03183 	lsl	r3, r3, #3
   15518:	e0823003 	add	r3, r2, r3
   1551c:	ed837b00 	vstr	d7, [r3]
   15520:	e51b3008 	ldr	r3, [fp, #-8]
   15524:	e2833001 	add	r3, r3, #1
   15528:	e50b3008 	str	r3, [fp, #-8]
   1552c:	e51b3018 	ldr	r3, [fp, #-24]	; 0xffffffe8
   15530:	e5932004 	ldr	r2, [r3, #4]
   15534:	e51b3008 	ldr	r3, [fp, #-8]
   15538:	e1520003 	cmp	r2, r3
   1553c:	caffffc9 	bgt	15468 <mat_mul+0xb8>
   15540:	e51b3010 	ldr	r3, [fp, #-16]
   15544:	e2833001 	add	r3, r3, #1
   15548:	e50b3010 	str	r3, [fp, #-16]
   1554c:	e51b3020 	ldr	r3, [fp, #-32]	; 0xffffffe0
   15550:	e5932000 	ldr	r2, [r3]
   15554:	e51b3010 	ldr	r3, [fp, #-16]
   15558:	e1520003 	cmp	r2, r3
   1555c:	caffffb1 	bgt	15428 <mat_mul+0x78>
   15560:	e51b300c 	ldr	r3, [fp, #-12]
   15564:	e2833001 	add	r3, r3, #1
   15568:	e50b300c 	str	r3, [fp, #-12]
   1556c:	e51b3020 	ldr	r3, [fp, #-32]	; 0xffffffe0
   15570:	e5932004 	ldr	r2, [r3, #4]
   15574:	e51b300c 	ldr	r3, [fp, #-12]
   15578:	e1520003 	cmp	r2, r3
   1557c:	caffffa6 	bgt	1541c <mat_mul+0x6c>
   15580:	ea000000 	b	15588 <mat_mul+0x1d8>
   15584:	e1a00000 	nop			; (mov r0, r0)
   15588:	e28bd000 	add	sp, fp, #0
   1558c:	e49db004 	pop	{fp}		; (ldr fp, [sp], #4)
   15590:	e12fff1e 	bx	lr

00015594 <mat_mul_1>:
   15594:	e52db004 	push	{fp}		; (str fp, [sp, #-4]!)
   15598:	e28db000 	add	fp, sp, #0
   1559c:	e24dd024 	sub	sp, sp, #36	; 0x24
   155a0:	e50b0018 	str	r0, [fp, #-24]	; 0xffffffe8
   155a4:	e50b101c 	str	r1, [fp, #-28]	; 0xffffffe4
   155a8:	e50b2020 	str	r2, [fp, #-32]	; 0xffffffe0
   155ac:	e51b3018 	ldr	r3, [fp, #-24]	; 0xffffffe8
   155b0:	e5932004 	ldr	r2, [r3, #4]
   155b4:	e51b301c 	ldr	r3, [fp, #-28]	; 0xffffffe4
   155b8:	e5933004 	ldr	r3, [r3, #4]
   155bc:	e1520003 	cmp	r2, r3
   155c0:	1a000068 	bne	15768 <mat_mul_1+0x1d4>
   155c4:	e51b3020 	ldr	r3, [fp, #-32]	; 0xffffffe0
   155c8:	e5932000 	ldr	r2, [r3]
   155cc:	e51b3018 	ldr	r3, [fp, #-24]	; 0xffffffe8
   155d0:	e5933000 	ldr	r3, [r3]
   155d4:	e1520003 	cmp	r2, r3
   155d8:	1a000062 	bne	15768 <mat_mul_1+0x1d4>
   155dc:	e51b3020 	ldr	r3, [fp, #-32]	; 0xffffffe0
   155e0:	e5932004 	ldr	r2, [r3, #4]
   155e4:	e51b301c 	ldr	r3, [fp, #-28]	; 0xffffffe4
   155e8:	e5933000 	ldr	r3, [r3]
   155ec:	e1520003 	cmp	r2, r3
   155f0:	1a00005c 	bne	15768 <mat_mul_1+0x1d4>
   155f4:	e3a03000 	mov	r3, #0
   155f8:	e50b300c 	str	r3, [fp, #-12]
   155fc:	ea000053 	b	15750 <mat_mul_1+0x1bc>
   15600:	e3a03000 	mov	r3, #0
   15604:	e50b3010 	str	r3, [fp, #-16]
   15608:	ea000048 	b	15730 <mat_mul_1+0x19c>
   1560c:	e51b3020 	ldr	r3, [fp, #-32]	; 0xffffffe0
   15610:	e5932008 	ldr	r2, [r3, #8]
   15614:	e51b3020 	ldr	r3, [fp, #-32]	; 0xffffffe0
   15618:	e5933004 	ldr	r3, [r3, #4]
   1561c:	e51b1010 	ldr	r1, [fp, #-16]
   15620:	e0010391 	mul	r1, r1, r3
   15624:	e51b300c 	ldr	r3, [fp, #-12]
   15628:	e0813003 	add	r3, r1, r3
   1562c:	e1a03183 	lsl	r3, r3, #3
   15630:	e0821003 	add	r1, r2, r3
   15634:	e3a02000 	mov	r2, #0
   15638:	e3a03000 	mov	r3, #0
   1563c:	e1c120f0 	strd	r2, [r1]
   15640:	e3a03000 	mov	r3, #0
   15644:	e50b3008 	str	r3, [fp, #-8]
   15648:	ea000030 	b	15710 <mat_mul_1+0x17c>
   1564c:	e51b3020 	ldr	r3, [fp, #-32]	; 0xffffffe0
   15650:	e5932008 	ldr	r2, [r3, #8]
   15654:	e51b3020 	ldr	r3, [fp, #-32]	; 0xffffffe0
   15658:	e5933004 	ldr	r3, [r3, #4]
   1565c:	e51b1010 	ldr	r1, [fp, #-16]
   15660:	e0010391 	mul	r1, r1, r3
   15664:	e51b300c 	ldr	r3, [fp, #-12]
   15668:	e0813003 	add	r3, r1, r3
   1566c:	e51b1020 	ldr	r1, [fp, #-32]	; 0xffffffe0
   15670:	e5910008 	ldr	r0, [r1, #8]
   15674:	e51b1020 	ldr	r1, [fp, #-32]	; 0xffffffe0
   15678:	e5911004 	ldr	r1, [r1, #4]
   1567c:	e51bc010 	ldr	ip, [fp, #-16]
   15680:	e00c019c 	mul	ip, ip, r1
   15684:	e51b100c 	ldr	r1, [fp, #-12]
   15688:	e08c1001 	add	r1, ip, r1
   1568c:	e1a01181 	lsl	r1, r1, #3
   15690:	e0801001 	add	r1, r0, r1
   15694:	ed916b00 	vldr	d6, [r1]
   15698:	e51b1018 	ldr	r1, [fp, #-24]	; 0xffffffe8
   1569c:	e5910008 	ldr	r0, [r1, #8]
   156a0:	e51b1018 	ldr	r1, [fp, #-24]	; 0xffffffe8
   156a4:	e5911004 	ldr	r1, [r1, #4]
   156a8:	e51bc010 	ldr	ip, [fp, #-16]
   156ac:	e00c019c 	mul	ip, ip, r1
   156b0:	e51b1008 	ldr	r1, [fp, #-8]
   156b4:	e08c1001 	add	r1, ip, r1
   156b8:	e1a01181 	lsl	r1, r1, #3
   156bc:	e0801001 	add	r1, r0, r1
   156c0:	ed915b00 	vldr	d5, [r1]
   156c4:	e51b101c 	ldr	r1, [fp, #-28]	; 0xffffffe4
   156c8:	e5910008 	ldr	r0, [r1, #8]
   156cc:	e51b101c 	ldr	r1, [fp, #-28]	; 0xffffffe4
   156d0:	e5911004 	ldr	r1, [r1, #4]
   156d4:	e51bc00c 	ldr	ip, [fp, #-12]
   156d8:	e00c019c 	mul	ip, ip, r1
   156dc:	e51b1008 	ldr	r1, [fp, #-8]
   156e0:	e08c1001 	add	r1, ip, r1
   156e4:	e1a01181 	lsl	r1, r1, #3
   156e8:	e0801001 	add	r1, r0, r1
   156ec:	ed917b00 	vldr	d7, [r1]
   156f0:	ee257b07 	vmul.f64	d7, d5, d7
   156f4:	ee367b07 	vadd.f64	d7, d6, d7
   156f8:	e1a03183 	lsl	r3, r3, #3
   156fc:	e0823003 	add	r3, r2, r3
   15700:	ed837b00 	vstr	d7, [r3]
   15704:	e51b3008 	ldr	r3, [fp, #-8]
   15708:	e2833001 	add	r3, r3, #1
   1570c:	e50b3008 	str	r3, [fp, #-8]
   15710:	e51b3018 	ldr	r3, [fp, #-24]	; 0xffffffe8
   15714:	e5932004 	ldr	r2, [r3, #4]
   15718:	e51b3008 	ldr	r3, [fp, #-8]
   1571c:	e1520003 	cmp	r2, r3
   15720:	caffffc9 	bgt	1564c <mat_mul_1+0xb8>
   15724:	e51b3010 	ldr	r3, [fp, #-16]
   15728:	e2833001 	add	r3, r3, #1
   1572c:	e50b3010 	str	r3, [fp, #-16]
   15730:	e51b3020 	ldr	r3, [fp, #-32]	; 0xffffffe0
   15734:	e5932000 	ldr	r2, [r3]
   15738:	e51b3010 	ldr	r3, [fp, #-16]
   1573c:	e1520003 	cmp	r2, r3
   15740:	caffffb1 	bgt	1560c <mat_mul_1+0x78>
   15744:	e51b300c 	ldr	r3, [fp, #-12]
   15748:	e2833001 	add	r3, r3, #1
   1574c:	e50b300c 	str	r3, [fp, #-12]
   15750:	e51b3020 	ldr	r3, [fp, #-32]	; 0xffffffe0
   15754:	e5932004 	ldr	r2, [r3, #4]
   15758:	e51b300c 	ldr	r3, [fp, #-12]
   1575c:	e1520003 	cmp	r2, r3
   15760:	caffffa6 	bgt	15600 <mat_mul_1+0x6c>
   15764:	ea000000 	b	1576c <mat_mul_1+0x1d8>
   15768:	e1a00000 	nop			; (mov r0, r0)
   1576c:	e28bd000 	add	sp, fp, #0
   15770:	e49db004 	pop	{fp}		; (ldr fp, [sp], #4)
   15774:	e12fff1e 	bx	lr

00015778 <mat_mul_1b>:
   15778:	e52db004 	push	{fp}		; (str fp, [sp, #-4]!)
   1577c:	e28db000 	add	fp, sp, #0
   15780:	e24dd024 	sub	sp, sp, #36	; 0x24
   15784:	e50b0018 	str	r0, [fp, #-24]	; 0xffffffe8
   15788:	e50b101c 	str	r1, [fp, #-28]	; 0xffffffe4
   1578c:	e50b2020 	str	r2, [fp, #-32]	; 0xffffffe0
   15790:	e51b3018 	ldr	r3, [fp, #-24]	; 0xffffffe8
   15794:	e5932000 	ldr	r2, [r3]
   15798:	e51b301c 	ldr	r3, [fp, #-28]	; 0xffffffe4
   1579c:	e5933000 	ldr	r3, [r3]
   157a0:	e1520003 	cmp	r2, r3
   157a4:	1a000068 	bne	1594c <mat_mul_1b+0x1d4>
   157a8:	e51b3020 	ldr	r3, [fp, #-32]	; 0xffffffe0
   157ac:	e5932000 	ldr	r2, [r3]
   157b0:	e51b3018 	ldr	r3, [fp, #-24]	; 0xffffffe8
   157b4:	e5933004 	ldr	r3, [r3, #4]
   157b8:	e1520003 	cmp	r2, r3
   157bc:	1a000062 	bne	1594c <mat_mul_1b+0x1d4>
   157c0:	e51b3020 	ldr	r3, [fp, #-32]	; 0xffffffe0
   157c4:	e5932004 	ldr	r2, [r3, #4]
   157c8:	e51b301c 	ldr	r3, [fp, #-28]	; 0xffffffe4
   157cc:	e5933004 	ldr	r3, [r3, #4]
   157d0:	e1520003 	cmp	r2, r3
   157d4:	1a00005c 	bne	1594c <mat_mul_1b+0x1d4>
   157d8:	e3a03000 	mov	r3, #0
   157dc:	e50b300c 	str	r3, [fp, #-12]
   157e0:	ea000053 	b	15934 <mat_mul_1b+0x1bc>
   157e4:	e3a03000 	mov	r3, #0
   157e8:	e50b3010 	str	r3, [fp, #-16]
   157ec:	ea000048 	b	15914 <mat_mul_1b+0x19c>
   157f0:	e51b3020 	ldr	r3, [fp, #-32]	; 0xffffffe0
   157f4:	e5932008 	ldr	r2, [r3, #8]
   157f8:	e51b3020 	ldr	r3, [fp, #-32]	; 0xffffffe0
   157fc:	e5933004 	ldr	r3, [r3, #4]
   15800:	e51b1010 	ldr	r1, [fp, #-16]
   15804:	e0010391 	mul	r1, r1, r3
   15808:	e51b300c 	ldr	r3, [fp, #-12]
   1580c:	e0813003 	add	r3, r1, r3
   15810:	e1a03183 	lsl	r3, r3, #3
   15814:	e0821003 	add	r1, r2, r3
   15818:	e3a02000 	mov	r2, #0
   1581c:	e3a03000 	mov	r3, #0
   15820:	e1c120f0 	strd	r2, [r1]
   15824:	e3a03000 	mov	r3, #0
   15828:	e50b3008 	str	r3, [fp, #-8]
   1582c:	ea000030 	b	158f4 <mat_mul_1b+0x17c>
   15830:	e51b3020 	ldr	r3, [fp, #-32]	; 0xffffffe0
   15834:	e5932008 	ldr	r2, [r3, #8]
   15838:	e51b3020 	ldr	r3, [fp, #-32]	; 0xffffffe0
   1583c:	e5933004 	ldr	r3, [r3, #4]
   15840:	e51b1010 	ldr	r1, [fp, #-16]
   15844:	e0010391 	mul	r1, r1, r3
   15848:	e51b300c 	ldr	r3, [fp, #-12]
   1584c:	e0813003 	add	r3, r1, r3
   15850:	e51b1020 	ldr	r1, [fp, #-32]	; 0xffffffe0
   15854:	e5910008 	ldr	r0, [r1, #8]
   15858:	e51b1020 	ldr	r1, [fp, #-32]	; 0xffffffe0
   1585c:	e5911004 	ldr	r1, [r1, #4]
   15860:	e51bc010 	ldr	ip, [fp, #-16]
   15864:	e00c019c 	mul	ip, ip, r1
   15868:	e51b100c 	ldr	r1, [fp, #-12]
   1586c:	e08c1001 	add	r1, ip, r1
   15870:	e1a01181 	lsl	r1, r1, #3
   15874:	e0801001 	add	r1, r0, r1
   15878:	ed916b00 	vldr	d6, [r1]
   1587c:	e51b1018 	ldr	r1, [fp, #-24]	; 0xffffffe8
   15880:	e5910008 	ldr	r0, [r1, #8]
   15884:	e51b1018 	ldr	r1, [fp, #-24]	; 0xffffffe8
   15888:	e5911004 	ldr	r1, [r1, #4]
   1588c:	e51bc008 	ldr	ip, [fp, #-8]
   15890:	e00c019c 	mul	ip, ip, r1
   15894:	e51b1010 	ldr	r1, [fp, #-16]
   15898:	e08c1001 	add	r1, ip, r1
   1589c:	e1a01181 	lsl	r1, r1, #3
   158a0:	e0801001 	add	r1, r0, r1
   158a4:	ed915b00 	vldr	d5, [r1]
   158a8:	e51b101c 	ldr	r1, [fp, #-28]	; 0xffffffe4
   158ac:	e5910008 	ldr	r0, [r1, #8]
   158b0:	e51b101c 	ldr	r1, [fp, #-28]	; 0xffffffe4
   158b4:	e5911004 	ldr	r1, [r1, #4]
   158b8:	e51bc008 	ldr	ip, [fp, #-8]
   158bc:	e00c019c 	mul	ip, ip, r1
   158c0:	e51b100c 	ldr	r1, [fp, #-12]
   158c4:	e08c1001 	add	r1, ip, r1
   158c8:	e1a01181 	lsl	r1, r1, #3
   158cc:	e0801001 	add	r1, r0, r1
   158d0:	ed917b00 	vldr	d7, [r1]
   158d4:	ee257b07 	vmul.f64	d7, d5, d7
   158d8:	ee367b07 	vadd.f64	d7, d6, d7
   158dc:	e1a03183 	lsl	r3, r3, #3
   158e0:	e0823003 	add	r3, r2, r3
   158e4:	ed837b00 	vstr	d7, [r3]
   158e8:	e51b3008 	ldr	r3, [fp, #-8]
   158ec:	e2833001 	add	r3, r3, #1
   158f0:	e50b3008 	str	r3, [fp, #-8]
   158f4:	e51b3018 	ldr	r3, [fp, #-24]	; 0xffffffe8
   158f8:	e5932000 	ldr	r2, [r3]
   158fc:	e51b3008 	ldr	r3, [fp, #-8]
   15900:	e1520003 	cmp	r2, r3
   15904:	caffffc9 	bgt	15830 <mat_mul_1b+0xb8>
   15908:	e51b3010 	ldr	r3, [fp, #-16]
   1590c:	e2833001 	add	r3, r3, #1
   15910:	e50b3010 	str	r3, [fp, #-16]
   15914:	e51b3020 	ldr	r3, [fp, #-32]	; 0xffffffe0
   15918:	e5932000 	ldr	r2, [r3]
   1591c:	e51b3010 	ldr	r3, [fp, #-16]
   15920:	e1520003 	cmp	r2, r3
   15924:	caffffb1 	bgt	157f0 <mat_mul_1b+0x78>
   15928:	e51b300c 	ldr	r3, [fp, #-12]
   1592c:	e2833001 	add	r3, r3, #1
   15930:	e50b300c 	str	r3, [fp, #-12]
   15934:	e51b3020 	ldr	r3, [fp, #-32]	; 0xffffffe0
   15938:	e5932004 	ldr	r2, [r3, #4]
   1593c:	e51b300c 	ldr	r3, [fp, #-12]
   15940:	e1520003 	cmp	r2, r3
   15944:	caffffa6 	bgt	157e4 <mat_mul_1b+0x6c>
   15948:	ea000000 	b	15950 <mat_mul_1b+0x1d8>
   1594c:	e1a00000 	nop			; (mov r0, r0)
   15950:	e28bd000 	add	sp, fp, #0
   15954:	e49db004 	pop	{fp}		; (ldr fp, [sp], #4)
   15958:	e12fff1e 	bx	lr

0001595c <mat_mul_2>:
   1595c:	e92d4800 	push	{fp, lr}
   15960:	e28db004 	add	fp, sp, #4
   15964:	e24dd020 	sub	sp, sp, #32
   15968:	e50b0018 	str	r0, [fp, #-24]	; 0xffffffe8
   1596c:	e50b101c 	str	r1, [fp, #-28]	; 0xffffffe4
   15970:	e50b2020 	str	r2, [fp, #-32]	; 0xffffffe0
   15974:	e51b301c 	ldr	r3, [fp, #-28]	; 0xffffffe4
   15978:	e5930000 	ldr	r0, [r3]
   1597c:	e51b3018 	ldr	r3, [fp, #-24]	; 0xffffffe8
   15980:	e5933000 	ldr	r3, [r3]
   15984:	e24b2010 	sub	r2, fp, #16
   15988:	e1a01003 	mov	r1, r3
   1598c:	eb00002c 	bl	15a44 <mat_create>
   15990:	e24b3010 	sub	r3, fp, #16
   15994:	e1a02003 	mov	r2, r3
   15998:	e51b1018 	ldr	r1, [fp, #-24]	; 0xffffffe8
   1599c:	e51b001c 	ldr	r0, [fp, #-28]	; 0xffffffe4
   159a0:	ebfffefb 	bl	15594 <mat_mul_1>
   159a4:	e24b3010 	sub	r3, fp, #16
   159a8:	e51b2020 	ldr	r2, [fp, #-32]	; 0xffffffe0
   159ac:	e1a01003 	mov	r1, r3
   159b0:	e51b0018 	ldr	r0, [fp, #-24]	; 0xffffffe8
   159b4:	ebfffe7d 	bl	153b0 <mat_mul>
   159b8:	e24b3010 	sub	r3, fp, #16
   159bc:	e1a00003 	mov	r0, r3
   159c0:	eb00005a 	bl	15b30 <mat_del>
   159c4:	e1a00000 	nop			; (mov r0, r0)
   159c8:	e24bd004 	sub	sp, fp, #4
   159cc:	e8bd8800 	pop	{fp, pc}

000159d0 <mat_mul_2b>:
   159d0:	e92d4800 	push	{fp, lr}
   159d4:	e28db004 	add	fp, sp, #4
   159d8:	e24dd020 	sub	sp, sp, #32
   159dc:	e50b0018 	str	r0, [fp, #-24]	; 0xffffffe8
   159e0:	e50b101c 	str	r1, [fp, #-28]	; 0xffffffe4
   159e4:	e50b2020 	str	r2, [fp, #-32]	; 0xffffffe0
   159e8:	e51b301c 	ldr	r3, [fp, #-28]	; 0xffffffe4
   159ec:	e5930000 	ldr	r0, [r3]
   159f0:	e51b3018 	ldr	r3, [fp, #-24]	; 0xffffffe8
   159f4:	e5933004 	ldr	r3, [r3, #4]
   159f8:	e24b2010 	sub	r2, fp, #16
   159fc:	e1a01003 	mov	r1, r3
   15a00:	eb00000f 	bl	15a44 <mat_create>
   15a04:	e24b3010 	sub	r3, fp, #16
   15a08:	e1a02003 	mov	r2, r3
   15a0c:	e51b1018 	ldr	r1, [fp, #-24]	; 0xffffffe8
   15a10:	e51b001c 	ldr	r0, [fp, #-28]	; 0xffffffe4
   15a14:	ebfffe65 	bl	153b0 <mat_mul>
   15a18:	e24b3010 	sub	r3, fp, #16
   15a1c:	e51b2020 	ldr	r2, [fp, #-32]	; 0xffffffe0
   15a20:	e1a01003 	mov	r1, r3
   15a24:	e51b0018 	ldr	r0, [fp, #-24]	; 0xffffffe8
   15a28:	ebffff52 	bl	15778 <mat_mul_1b>
   15a2c:	e24b3010 	sub	r3, fp, #16
   15a30:	e1a00003 	mov	r0, r3
   15a34:	eb00003d 	bl	15b30 <mat_del>
   15a38:	e1a00000 	nop			; (mov r0, r0)
   15a3c:	e24bd004 	sub	sp, fp, #4
   15a40:	e8bd8800 	pop	{fp, pc}

00015a44 <mat_create>:
   15a44:	e92d4800 	push	{fp, lr}
   15a48:	e28db004 	add	fp, sp, #4
   15a4c:	e24dd018 	sub	sp, sp, #24
   15a50:	e50b0010 	str	r0, [fp, #-16]
   15a54:	e50b1014 	str	r1, [fp, #-20]	; 0xffffffec
   15a58:	e50b2018 	str	r2, [fp, #-24]	; 0xffffffe8
   15a5c:	e51b3010 	ldr	r3, [fp, #-16]
   15a60:	e51b2014 	ldr	r2, [fp, #-20]	; 0xffffffec
   15a64:	e0030392 	mul	r3, r2, r3
   15a68:	e1a03183 	lsl	r3, r3, #3
   15a6c:	e1a00003 	mov	r0, r3
   15a70:	ebffeb14 	bl	106c8 <malloc@plt>
   15a74:	e1a03000 	mov	r3, r0
   15a78:	e1a02003 	mov	r2, r3
   15a7c:	e51b3018 	ldr	r3, [fp, #-24]	; 0xffffffe8
   15a80:	e5832008 	str	r2, [r3, #8]
   15a84:	e51b3018 	ldr	r3, [fp, #-24]	; 0xffffffe8
   15a88:	e51b2010 	ldr	r2, [fp, #-16]
   15a8c:	e5832000 	str	r2, [r3]
   15a90:	e51b3018 	ldr	r3, [fp, #-24]	; 0xffffffe8
   15a94:	e51b2014 	ldr	r2, [fp, #-20]	; 0xffffffec
   15a98:	e5832004 	str	r2, [r3, #4]
   15a9c:	e3a03000 	mov	r3, #0
   15aa0:	e50b3008 	str	r3, [fp, #-8]
   15aa4:	ea000019 	b	15b10 <mat_create+0xcc>
   15aa8:	e3a03000 	mov	r3, #0
   15aac:	e50b300c 	str	r3, [fp, #-12]
   15ab0:	ea00000e 	b	15af0 <mat_create+0xac>
   15ab4:	e51b3018 	ldr	r3, [fp, #-24]	; 0xffffffe8
   15ab8:	e5932008 	ldr	r2, [r3, #8]
   15abc:	e51b300c 	ldr	r3, [fp, #-12]
   15ac0:	e51b1014 	ldr	r1, [fp, #-20]	; 0xffffffec
   15ac4:	e0010391 	mul	r1, r1, r3
   15ac8:	e51b3008 	ldr	r3, [fp, #-8]
   15acc:	e0813003 	add	r3, r1, r3
   15ad0:	e1a03183 	lsl	r3, r3, #3
   15ad4:	e0821003 	add	r1, r2, r3
   15ad8:	e3a02000 	mov	r2, #0
   15adc:	e3a03000 	mov	r3, #0
   15ae0:	e1c120f0 	strd	r2, [r1]
   15ae4:	e51b300c 	ldr	r3, [fp, #-12]
   15ae8:	e2833001 	add	r3, r3, #1
   15aec:	e50b300c 	str	r3, [fp, #-12]
   15af0:	e51b3018 	ldr	r3, [fp, #-24]	; 0xffffffe8
   15af4:	e5932000 	ldr	r2, [r3]
   15af8:	e51b300c 	ldr	r3, [fp, #-12]
   15afc:	e1520003 	cmp	r2, r3
   15b00:	caffffeb 	bgt	15ab4 <mat_create+0x70>
   15b04:	e51b3008 	ldr	r3, [fp, #-8]
   15b08:	e2833001 	add	r3, r3, #1
   15b0c:	e50b3008 	str	r3, [fp, #-8]
   15b10:	e51b3018 	ldr	r3, [fp, #-24]	; 0xffffffe8
   15b14:	e5932004 	ldr	r2, [r3, #4]
   15b18:	e51b3008 	ldr	r3, [fp, #-8]
   15b1c:	e1520003 	cmp	r2, r3
   15b20:	caffffe0 	bgt	15aa8 <mat_create+0x64>
   15b24:	e1a00000 	nop			; (mov r0, r0)
   15b28:	e24bd004 	sub	sp, fp, #4
   15b2c:	e8bd8800 	pop	{fp, pc}

00015b30 <mat_del>:
   15b30:	e92d4800 	push	{fp, lr}
   15b34:	e28db004 	add	fp, sp, #4
   15b38:	e24dd008 	sub	sp, sp, #8
   15b3c:	e50b0008 	str	r0, [fp, #-8]
   15b40:	e51b3008 	ldr	r3, [fp, #-8]
   15b44:	e5933008 	ldr	r3, [r3, #8]
   15b48:	e1a00003 	mov	r0, r3
   15b4c:	ebffeacb 	bl	10680 <free@plt>
   15b50:	e1a00000 	nop			; (mov r0, r0)
   15b54:	e24bd004 	sub	sp, fp, #4
   15b58:	e8bd8800 	pop	{fp, pc}

00015b5c <mat_det>:
   15b5c:	e52db004 	push	{fp}		; (str fp, [sp, #-4]!)
   15b60:	e28db000 	add	fp, sp, #0
   15b64:	e24dd014 	sub	sp, sp, #20
   15b68:	e50b0010 	str	r0, [fp, #-16]
   15b6c:	e50b1014 	str	r1, [fp, #-20]	; 0xffffffec
   15b70:	e51b3010 	ldr	r3, [fp, #-16]
   15b74:	e5932000 	ldr	r2, [r3]
   15b78:	e51b3010 	ldr	r3, [fp, #-16]
   15b7c:	e5933004 	ldr	r3, [r3, #4]
   15b80:	e1520003 	cmp	r2, r3
   15b84:	1a000051 	bne	15cd0 <mat_det+0x174>
   15b88:	e51b3010 	ldr	r3, [fp, #-16]
   15b8c:	e5933000 	ldr	r3, [r3]
   15b90:	e3530002 	cmp	r3, #2
   15b94:	0a00000a 	beq	15bc4 <mat_det+0x68>
   15b98:	e3530003 	cmp	r3, #3
   15b9c:	0a000019 	beq	15c08 <mat_det+0xac>
   15ba0:	e3530001 	cmp	r3, #1
   15ba4:	0a000000 	beq	15bac <mat_det+0x50>
   15ba8:	ea000049 	b	15cd4 <mat_det+0x178>
